(lp1
(Vburns
Vreturns
p2
Vabab
p3
Va
V1887
p4
I0
VA. E. Housman
p5
tp6
a(Vplain
Vagain
g3
Vb
g4
I0
g5
tp7
a(Vbright
Vto-night
p8
Vabab
p9
Va
g4
I1
g5
tp10
a(Vbetween
VQueen
g9
Vb
g4
I1
g5
tp11
a(Vtowers
p12
Vours
p13
Vabab
p14
Va
g4
I2
g5
tp15
a(Vtrod
VGod
g14
Vb
g4
I2
g5
tp16
a(Vright
Vto-night
Vabab
p17
Va
g4
I3
g5
tp18
a(Vbrave
Vsave
g17
Vb
g4
I3
g5
tp19
a(Vshow
p20
Voverflow
p21
Vabab
p22
Va
g4
I4
g5
tp23
a(Vread
Vdead
g22
Vb
g4
I4
g5
tp24
a(Vtown
p25
Vdown
p26
Vabab
p27
Va
g4
I5
g5
tp28
a(Vwar
Vfor
g27
Vb
g4
I5
g5
tp29
a(Vsing
Vring
Vabab
p30
Va
g4
I6
g5
tp31
a(Vheard
VFifty-third
g30
Vb
g4
I6
g5
tp32
a(Vnot
Vgot
Vabab
p33
Va
g4
I7
g5
tp34
a(Vbeen
VQueen
g33
Vb
g4
I7
g5
tp35
a(Vnow
p36
Vbough
Vaabb
p37
Va
VLoveliest of Trees, the Cherry Now
p38
I0
g5
tp39
a(Vride
p40
VEastertide
g37
Vb
g38
I0
g5
tp41
a(Vten
Vagain
Vaabb
p42
Va
g38
I1
g5
tp43
a(Vscore
Vmore
g42
Vb
g38
I1
g5
tp44
a(Vbloom
p45
Vroom
Vaabb
p46
Va
g38
I2
g5
tp47
a(Vgo
p48
Vsnow
g46
Vb
g38
I2
g5
tp49
a(Vhand
Vstand
Vabcb
p50
Vb
VLeave your home behind, lad
p51
I0
g5
tp52
a(Vstill
p53
Vmill
Vabcb
p54
Vb
g51
I1
g5
tp55
a(Vhums
p56
Vcomes
Vabcb
p57
Vb
g51
I2
g5
tp58
a(Vall
Vfall
Vabcb
p59
Vb
g51
I3
g5
tp60
a(Vmorn
Vborn
Vabcb
p61
Vb
g51
I4
g5
tp62
a(Vlie
Vdie
Vabcb
p63
Vb
g51
I5
g5
tp64
a(Vtown
p65
Vdown
Vabcb
p66
Vb
g51
I6
g5
tp67
a(Vreturning
p68
Vburning
p69
Vabab
p70
Va
VReveille
p71
I0
g5
tp72
a(Vbrims
Vrims
g70
Vb
g71
I0
g5
tp73
a(Vshatters
Vtatters
p74
Vabab
p75
Va
g71
I1
g5
tp76
a(Vspanned
Vland
g75
Vb
g71
I1
g5
tp77
a(Vlying
Vcrying
p78
Vabab
p79
Va
g71
I2
g5
tp80
a(Vplay
Vaway
g79
Vb
g71
I2
g5
tp81
a(Vtogether
Vleather
p82
Vabab
p83
Va
g71
I3
g5
tp84
a(Vcall
Vall
g83
Vb
g71
I3
g5
tp85
a(Vcumber
p86
Vslumber
p87
Vabab
p88
Va
g71
I4
g5
tp89
a(Vthrive
Valive
g88
Vb
g71
I4
g5
tp90
a(Vrover
Vover
p91
Vabab
p92
Va
g71
I5
g5
tp93
a(Vkeep
p94
Vsleep
g92
Vb
g71
I5
g5
tp95
a(Vflowers
p96
Vhours
p97
Vababcded
p98
Va
VOh see how thick the goldcup flowers
p99
I0
g5
tp100
a(Vlane
Vagain
g98
Vb
g99
I0
g5
tp101
a(Vgay
Vmay
g98
Vd
g99
I0
g5
tp102
a(Vlad
Vglad
p103
Vababcded
p104
Va
g99
I1
g5
tp105
a(Vgold
Vold
g104
Vb
g99
I1
g5
tp106
a(Vnew
Vtrue
g104
Vd
g99
I1
g5
tp107
a(Vsay
Vaway
p108
Vababcded
p109
Va
g99
I2
g5
tp110
a(Vthieve
Vleave
g109
Vb
g99
I2
g5
tp111
a(Vchaps
Vperhaps
g109
Vd
g99
I2
g5
tp112
a(Vdoubt
Vabout
Vababcded
p113
Va
g99
I3
g5
tp114
a(Vtown
Vdown
g113
Vb
g99
I3
g5
tp115
a(Vsigh
Vgood-bye
g113
Vd
g99
I3
g5
tp116
a(Vsighs
Vlies
Vabab
p117
Va
VWhen the lad for longing sighs
p118
I0
g5
tp119
a(Vpale
Vail
g117
Vb
g118
I0
g5
tp120
a(Vbuy
Veye
Vabab
p121
Va
g118
I1
g5
tp122
a(Vtone
Vown
g121
Vb
g118
I1
g5
tp123
a(Vmorn
p124
Vforlorn
Vabab
p125
Va
g118
I2
g5
tp126
a(Vsell
Vwell
g125
Vb
g118
I2
g5
tp127
a(VTeme
p128
Vbeam
p129
Vabcbb
p130
Vb
VWhen smoke stood up from Ludlow
p131
I0
g5
tp132
a(g128
Vteam
p133
g130
Vb
g131
I0
g5
tp134
a(g129
g133
g130
Vb
g131
I0
g5
tp135
a(Vstride
p136
Vbeside
p137
Vabcbb
p138
Vb
g131
I1
g5
tp139
a(g136
Vreplied
p140
g138
Vb
g131
I1
g5
tp141
a(g137
g140
g138
Vb
g131
I1
g5
tp142
a(Vrise
p143
Vlies
p144
Vabcbb
p145
Vb
g131
I2
g5
tp146
a(g143
Vwise
p147
g145
Vb
g131
I2
g5
tp148
a(g144
g147
g145
Vb
g131
I2
g5
tp149
a(Vbill
p150
Vwill
p151
Vabcbb
p152
Vb
g131
I3
g5
tp153
a(g150
Vstill
p154
g152
Vb
g131
I3
g5
tp155
a(g151
g154
g152
Vb
g131
I3
g5
tp156
a(Vstrain
p157
Vlane
p158
Vabcbb
p159
Vb
g131
I4
g5
tp160
a(g157
Vagain
p161
g159
Vb
g131
I4
g5
tp162
a(g158
g161
g159
Vb
g131
I4
g5
tp163
a(Vwest
p164
Vrest
p165
Vabcbb
p166
Vb
g131
I5
g5
tp167
a(g164
Vbest
p168
g166
Vb
g131
I5
g5
tp169
a(g165
g168
g166
Vb
g131
I5
g5
tp170
a(Vtree
Vme
Vabab
p171
Va
VFarewell to barn and stack and tree
p172
I0
g5
tp173
a(Vshore
Vmore
g171
Vb
g172
I0
g5
tp174
a(Vhill
Vstill
p175
Vabab
p176
Va
g172
I1
g5
tp177
a(Vdried
Vside
g176
Vb
g172
I1
g5
tp178
a(Vaway
Vday
Vabab
p179
Va
g172
I2
g5
tp180
a(Vmown
Valone
g179
Vb
g172
I2
g5
tp181
a(Vshake
Vrake
Vabab
p182
Va
g172
I3
g5
tp183
a(Vgood-bye
VI
g182
Vb
g172
I3
g5
tp184
a(Vpride
VLammastide
Vabab
p185
Va
g172
I4
g5
tp186
a(Vclean
Vgreen
g185
Vb
g172
I4
g5
tp187
a(Vwait
Vplate
Vabab
p188
Va
g172
I5
g5
tp189
a(Vfold
Vcold
g188
Vb
g172
I5
g5
tp190
a(Vbank
p191
Vclank
p192
Vabab
p193
Va
VOn moonlit heath and lonesome bank
p194
I0
g5
tp195
a(Vgraze
Vways
g193
Vb
g194
I0
g5
tp196
a(Vkeep
p197
Vsheep
p198
Vabab
p199
Va
g194
I1
g5
tp200
a(V[1
Vair
g199
Vb
g194
I1
g5
tp201
a(Vjail
Vrail
p202
Vabab
p203
Va
g194
I2
g5
tp204
a(Vforlorn
Vmorn
g203
Vb
g194
I2
g5
tp205
a(Vto-night
Vright
Vabab
p206
Va
g194
I3
g5
tp207
a(Vbetide
Voutside
g206
Vb
g194
I3
g5
tp208
a(Vnoose
p209
Vuse
p210
Vabab
p211
Va
g194
I4
g5
tp212
a(Vring
p213
Vstring
g211
Vb
g194
I4
g5
tp214
a(Vsnap
Vchap
p215
Vabab
p216
Va
g194
I5
g5
tp217
a(Vstand
p218
Vland
g216
Vb
g194
I5
g5
tp219
a(Vwait
p220
Veight
p221
Vabab
p222
Va
g194
I6
g5
tp223
a(Vshine
Vnine
g222
Vb
g194
I6
g5
tp224
a(Vsleep
p225
Vsheep
p226
Vabab
p227
Va
g194
I7
g5
tp228
a(Vknow
Vago
g227
Vb
g194
I7
g5
tp229
a(Vair
VPair
p230
Vaabb
p231
Va
VThe sun at noon to higher air
p232
I0
g5
tp233
a(Vswam
VRam
g231
Vb
g232
I0
g5
tp234
a(Vsings
p235
Vthings
Vaabb
p236
Va
g232
I1
g5
tp237
a(Vpen
p238
Vagain
g236
Vb
g232
I1
g5
tp239
a(Vday
p240
Vaway
Vaabb
p241
Va
g232
I2
g5
tp242
a(Vhills
p243
Vdaffodils
g241
Vb
g232
I2
g5
tp244
a(Vrepair
Vthere
Vaabb
p245
Va
g232
I3
g5
tp246
a(Vpond
p247
Vwand
g245
Vb
g232
I3
g5
tp248
a(Vshire
p249
Vdesire
Vaabb
p250
Va
g232
I4
g5
tp251
a(Vvain
Vagain
g250
Vb
g232
I4
g5
tp252
a(Vlying
p253
Vsighing
p254
Vababccb
p255
Va
VOn your midnight pallet lying
p256
I0
g5
tp257
a(Vdoor
p258
Vmore
p259
g255
Vb
g256
I0
g5
tp260
a(g258
Vbefore
p261
g255
Vb
g256
I0
g5
tp262
a(g259
g261
g255
Vb
g256
I0
g5
tp263
a(Vsorrow
Vto-morrow
g255
Vc
g256
I0
g5
tp264
a(Vtravel
Vgravel
Vababccb
p265
Va
g256
I1
g5
tp266
a(Vsay
p267
Vlay
p268
g265
Vb
g256
I1
g5
tp269
a(g267
Vclay
p270
g265
Vb
g256
I1
g5
tp271
a(g268
g270
g265
Vb
g256
I1
g5
tp272
a(Vsmothers
p273
Vanother's
p274
g265
Vc
g256
I1
g5
tp275
a(Vmeet
Vstreet
p276
Vabab
p277
Va
VWhen I watch the living meet
p278
I0
g5
tp279
a(Vfile
p280
Vwhile
g277
Vb
g278
I0
g5
tp281
a(Vlust
p282
Vdust
p283
Vabab
p284
Va
g278
I1
g5
tp285
a(Vstrong
Vlong
g284
Vb
g278
I1
g5
tp286
a(Vnot
p287
Vforgot
Vabab
p288
Va
g278
I2
g5
tp289
a(Vbefore
Vmore
g288
Vb
g278
I2
g5
tp290
a(Vtwo
p291
Vthrough
p292
Vabab
p293
Va
g278
I3
g5
tp294
a(Vbeside
Vbride
g293
Vb
g278
I3
g5
tp295
a(Vone-and-twenty
p296
Vone-and-twenty
Vabcbcdac
p297
Va
VWhen I was one-and-twenty
p298
I0
g5
tp299
a(Vsay
Vaway
g297
Vb
g298
I0
g5
tp300
a(Vguineas
p301
Vrubies
p302
g297
Vc
g298
I0
g5
tp303
a(g301
Vme
p304
g297
Vc
g298
I0
g5
tp305
a(g302
g304
g297
Vc
g298
I0
g5
tp306
a(Vone-and-twenty
p307
Vplenty
p308
Vabcbadad
p309
Va
g298
I1
g5
tp310
a(g307
Vtwo-and-twenty
p311
g309
Va
g298
I1
g5
tp312
a(Vagain
Vvain
g309
Vb
g298
I1
g5
tp313
a(g308
g311
g309
Va
g298
I1
g5
tp314
a(Vrue
Vtrue
g309
Vd
g298
I1
g5
tp315
a(Vown
Valone
Vabcb
p316
Vb
VThere pass the careless people
p317
I0
g5
tp318
a(Vsound
Vdrowned
Vabcb
p319
Vb
g317
I1
g5
tp320
a(Vday
p321
Vaway
Vabcb
p322
Vb
g317
I2
g5
tp323
a(Vwest
p324
Vbreast
Vabcb
p325
Vb
g317
I3
g5
tp326
a(Vstroll
Vsoul
Vabcb
p327
Vb
g317
I4
g5
tp328
a(Vfear
p329
Vclear
p330
Vababcdcd
p331
Va
VLook not in my eyes, for fear
p332
I0
g5
tp333
a(Vsee
Vme
g331
Vb
g332
I0
g5
tp334
a(Vlie
p335
VI
g331
Vc
g332
I0
g5
tp336
a(Vsighs
Veyes
g331
Vd
g332
I0
g5
tp337
a(Vtell
Vwell
p338
Vababcdcd
p339
Va
g332
I1
g5
tp340
a(Vvain
Vagain
g339
Vb
g332
I1
g5
tp341
a(Vflowers
Vshowers
p342
g339
Vc
g332
I1
g5
tp343
a(Vsad
Vlad
g339
Vd
g332
I1
g5
tp344
a(Vrecovers
p345
Vlovers
p346
Vabab
p347
Va
VIt nods and curtseys and recovers
p348
I0
g5
tp349
a(Vabove
Vlove
g347
Vb
g348
I0
g5
tp350
a(Vover
Vlover
p351
Vabab
p352
Va
g348
I1
g5
tp353
a(Vmove
Vlove
g352
Vb
g348
I1
g5
tp354
a(Vthorough
p355
Vsorrow
p356
Vabab
p357
Va
VTwice a week the winter thorough
p358
I0
g5
tp359
a(Vgoal
Vsoul
g357
Vb
g358
I0
g5
tp360
a(Vwicket
p361
Vcricket
p362
Vabab
p363
Va
g358
I1
g5
tp364
a(Vpad
Vglad
g363
Vb
g358
I1
g5
tp365
a(Vtrying
Vlying
p366
Vabab
p367
Va
g358
I2
g5
tp368
a(Vmirth
p369
Vearth
g367
Vb
g358
I2
g5
tp370
a(Vyou
Vgrew
p371
Vabab
p372
Va
VOh, when I was in love with you
p373
I0
g5
tp374
a(Vbrave
Vbehave
g372
Vb
g373
I0
g5
tp375
a(Vby
VI
Vabab
p376
Va
g373
I1
g5
tp377
a(Vremain
Vagain
g376
Vb
g373
I1
g5
tp378
a(Vrace
p379
Vmarket-place
Vaabb
p380
Va
VThe time you won your town the race
p381
I0
g5
tp382
a(Vby
Vshoulder-high
g380
Vb
g381
I0
g5
tp383
a(Vcome
Vhome
Vaabb
p384
Va
g381
I1
g5
tp385
a(Vdown
Vtown
g384
Vb
g381
I1
g5
tp386
a(Vaway
p387
Vstay
p388
Vaabb
p389
Va
g381
I2
g5
tp390
a(Vgrows
p391
Vrose
g389
Vb
g381
I2
g5
tp392
a(Vshut
p393
Vcut
Vaabb
p394
Va
g381
I3
g5
tp395
a(Vcheers
p396
Vears
g394
Vb
g381
I3
g5
tp397
a(Vrout
p398
Vout
Vaabb
p399
Va
g381
I4
g5
tp400
a(Voutran
p401
Vman
g399
Vb
g381
I4
g5
tp402
a(Vfade
Vshade
Vaabb
p403
Va
g381
I5
g5
tp404
a(Vup
p405
Vchallenge-cup
g403
Vb
g381
I5
g5
tp406
a(Vhead
p407
Vdead
Vaabb
p408
Va
g381
I6
g5
tp409
a(Vcurls
p410
Vgirl's
g408
Vb
g381
I6
g5
tp411
a(Vplain
Vagain
p412
Vabab
p413
Va
VOh fair enough are sky and plain
p414
I0
g5
tp415
a(Vfar
Vare
g413
Vb
g414
I0
g5
tp416
a(Vclean
p417
Vseen
Vabab
p418
Va
g414
I1
g5
tp419
a(Vair
Vthere
g418
Vb
g414
I1
g5
tp420
a(Vthink
p421
Vbrink
p422
Vabab
p423
Va
g414
I2
g5
tp424
a(Vdown
p425
Vdrown
g423
Vb
g414
I2
g5
tp426
a(Vbrooks
p427
Vlooks
p428
Vabab
p429
Va
g414
I3
g5
tp430
a(Vspy
p431
VI
g429
Vb
g414
I3
g5
tp432
a(Vclear
p433
Vnear
p434
Vabcbb
p435
Vb
VIn summertime on Bredon
p436
I0
g5
tp437
a(g433
Vhear
p438
g435
Vb
g436
I0
g5
tp439
a(g434
g438
g435
Vb
g436
I0
g5
tp440
a(Vlie
p441
Vhigh
p442
Vabcbb
p443
Vb
g436
I1
g5
tp444
a(g441
Vsky
p445
g443
Vb
g436
I1
g5
tp446
a(g442
g445
g443
Vb
g436
I1
g5
tp447
a(Vaway
p448
Vpray
p449
Vabcbb
p450
Vb
g436
I2
g5
tp451
a(g448
Vstay
p452
g450
Vb
g436
I2
g5
tp453
a(g449
g452
g450
Vb
g436
I2
g5
tp454
a(Vthyme
p455
Vchime
p456
Vabcbb
p457
Vb
g436
I3
g5
tp458
a(g455
Vtime
p459
g457
Vb
g436
I3
g5
tp460
a(g456
g459
g457
Vb
g436
I3
g5
tp461
a(Vstrown
p462
Vunbeknown
p463
Vabcbb
p464
Vb
g436
I4
g5
tp465
a(g462
Valone
p466
g464
Vb
g436
I4
g5
tp467
a(g463
g466
g464
Vb
g436
I4
g5
tp468
a(Vsee
p469
Vshe
p470
Vabcbb
p471
Vb
g436
I5
g5
tp472
a(g469
Vme
p473
g471
Vb
g436
I5
g5
tp474
a(g470
g473
g471
Vb
g436
I5
g5
tp475
a(Vhum
p476
Vdumb
p477
Vabcbb
p478
Vb
g436
I6
g5
tp479
a(g476
Vcome
p480
g478
Vb
g436
I6
g5
tp481
a(g477
g480
g478
Vb
g436
I6
g5
tp482
a(Vtread
Vhead
Vabab
p483
Va
VThe street sounds to the soldiers' tread
p484
I0
g5
tp485
a(Vsee
Vme
g483
Vb
g484
I0
g5
tp486
a(Vfar
Vare
Vabab
p487
Va
g484
I1
g5
tp488
a(Vbefore
Vmore
g487
Vb
g484
I1
g5
tp489
a(VI
Vdry
Vabab
p490
Va
g484
I2
g5
tp491
a(Vtell
Vwell
g490
Vb
g484
I2
g5
tp492
a(Vfair
Vthere
Vabab
p493
Va
VThe lads in their hundreds
p494
I0
g5
tp495
a(Vfold
Vold
g493
Vb
g494
I0
g5
tp496
a(Vcart
Vheart
Vabab
p497
Va
g494
I1
g5
tp498
a(Vbrave
Vgrave
g497
Vb
g494
I1
g5
tp499
a(Vtell
p500
Vfarewell
p501
Vabab
p502
Va
g494
I2
g5
tp503
a(Vdiscern
Vreturn
g502
Vb
g494
I2
g5
tp504
a(Vscan
Vman
Vabab
p505
Va
g494
I3
g5
tp506
a(Vtold
p507
Vold
g505
Vb
g494
I3
g5
tp508
a(Vdo
Vtwo
Vabab
p509
Va
VSay, lad, have you things to do
p510
I0
g5
tp511
a(Vprime
Vtime
g509
Vb
g510
I0
g5
tp512
a(Vgo
Vlow
p513
Vabab
p514
Va
g510
I1
g5
tp515
a(Vcall
Vall
g514
Vb
g510
I1
g5
tp516
a(Vdecay
Vsay
Vabab
p517
Va
g510
I2
g5
tp518
a(Vnumb
Vcome
g517
Vb
g510
I2
g5
tp519
a(Vpast
Vlast
p520
Vabab
p521
Va
VThis time of year a twelvemonth past
p522
I0
g5
tp523
a(Vmeet
Vbeat
g521
Vb
g522
I0
g5
tp524
a(Vabout
Vout
p525
Vabab
p526
Va
g522
I1
g5
tp527
a(Vbegan
Vman
g526
Vb
g522
I1
g5
tp528
a(Vstill
Vwill
p529
Vabab
p530
Va
g522
I2
g5
tp531
a(VFred
Vdead
g530
Vb
g522
I2
g5
tp532
a(Vweather
Vtogether
p533
Vabab
p534
Va
g522
I3
g5
tp535
a(Vkeeps
Vsleeps
g534
Vb
g522
I3
g5
tp536
a(Vby
p537
VI
Vaabbccddee
p538
Va
VAlong the fields as we came by
p539
I0
g5
tp540
a(Vstone
p541
Valone
g538
S'b'
g539
I0
g5
tp542
a(Vpass
Vlass
g538
S'c'
g539
I0
g5
tp543
a(Vwed
Vbed
g538
S'd'
g539
I0
g5
tp544
a(Vabove
Vlove
g538
S'e'
g539
I0
g5
tp545
a(Vtree
p546
Vme
Vaabbccddee
p547
Va
g539
I1
g5
tp548
a(Vheaves
p549
Vleaves
g547
S'b'
g539
I1
g5
tp550
a(Vstir
Vher
g547
S'c'
g539
I1
g5
tp551
a(Vunderstand
p552
Vhand
p553
g547
S'd'
g539
I1
g5
tp554
a(Vclad
Vlad
g547
S'e'
g539
I1
g5
tp555
a(Vdrive
p556
Valive
Vabcb
p557
Vb
VIs my team ploughing
p558
I0
g5
tp559
a(Vnow
Vplough
Vabcb
p560
Vb
g558
I1
g5
tp561
a(Vshore
Vmore
Vabcb
p562
Vb
g558
I2
g5
tp563
a(Vsoul
Vgoal
Vabcb
p564
Vb
g558
I3
g5
tp565
a(Vleave
Veve
Vabcb
p566
Vb
g558
I4
g5
tp567
a(Vweep
Vsleep
Vabcb
p568
Vb
g558
I5
g5
tp569
a(Vpine
Vmine
Vabcb
p570
Vb
g558
I6
g5
tp571
a(Vchoose
Vwhose
Vabcb
p572
Vb
g558
I7
g5
tp573
a(Vgleam
p574
Vstream
Vaabb
p575
Va
VHigh the vanes of Shrewsbury gleam
p576
I0
g5
tp577
a(Vcrest
p578
Vwest
g575
Vb
g576
I0
g5
tp579
a(Vstate
p580
Vgate
Vaabb
p581
Va
g576
I1
g5
tp582
a(Vprevails
VWales
g581
Vb
g576
I1
g5
tp583
a(Vbled
p584
Vmarriage-bed
Vaabb
p585
Va
g576
I2
g5
tp586
a(Vfar
p587
Vwar
g585
Vb
g576
I2
g5
tp588
a(Vran
p589
Vman
Vaabb
p590
Va
g576
I3
g5
tp591
a(Vgrave
p592
Vslave
g590
Vb
g576
I3
g5
tp593
a(Vlong
p594
Vwrong
Vaabb
p595
Va
g576
I4
g5
tp596
a(Vstill
p597
Vill
g595
Vb
g576
I4
g5
tp598
a(Vdied
Vside
Vaabb
p599
Va
g576
I5
g5
tp600
a(Vwest
Vbreast
g599
Vb
g576
I5
g5
tp601
a(Vyet
p602
Vsweat
Vaabb
p603
Va
g576
I6
g5
tp604
a(Vdie
VI
g603
Vb
g576
I6
g5
tp605
a(Vundo
p606
Vtwo
Vaabb
p607
Va
g576
I7
g5
tp608
a(Vpain
Vslain
g607
Vb
g576
I7
g5
tp609
a(Vrid
p610
Vdid
Vaabb
p611
Va
g576
I8
g5
tp612
a(Vhearse
p613
Vcurse
g611
Vb
g576
I8
g5
tp614
a(Vramble
p615
Vbramble
p616
Vababb
p617
Va
V'Tis spring; come out to ramble
p618
I0
g5
tp619
a(Varound
p620
Vground
p621
g617
Vb
g618
I0
g5
tp622
a(g620
Vfound
p623
g617
Vb
g618
I0
g5
tp624
a(g621
g623
g617
Vb
g618
I0
g5
tp625
a(Vchilly
p626
Vlily
p627
Vababb
p628
Va
g618
I1
g5
tp629
a(Vplay
p630
Vstay
p631
g628
Vb
g618
I1
g5
tp632
a(g630
Vday
p633
g628
Vb
g618
I1
g5
tp634
a(g631
g633
g628
Vb
g618
I1
g5
tp635
a(Vmaying
p636
Vplaying
p637
Vababb
p638
Va
g618
I2
g5
tp639
a(Vstill
p640
Vwill
p641
g638
Vb
g618
I2
g5
tp642
a(g640
Vdaffodil
p643
g638
Vb
g618
I2
g5
tp644
a(g641
g643
g638
Vb
g618
I2
g5
tp645
a(Vsally
p646
Vvalley
p647
Vababb
p648
Va
g618
I3
g5
tp649
a(Varray
p650
Vaway
p651
g648
Vb
g618
I3
g5
tp652
a(g650
Vday
p653
g648
Vb
g618
I3
g5
tp654
a(g651
g653
g648
Vb
g618
I3
g5
tp655
a(Vfirst
Vdurst
Vaabb
p656
Va
VOthers, I am not the first
p657
I0
g5
tp658
a(Vtoo
p659
Vnew
g656
Vb
g657
I0
g5
tp660
a(Vtold
Vcold
Vaabb
p661
Va
g657
I1
g5
tp662
a(Vfire
p663
Vdesire
g661
Vb
g657
I1
g5
tp664
a(Vthey
Vway
p665
Vaabb
p666
Va
g657
I2
g5
tp667
a(Vmould
p668
Vcold
g666
Vb
g657
I2
g5
tp669
a(Vbrow
p670
Vnow
Vaabb
p671
Va
g657
I3
g5
tp672
a(Vfight
p673
Vnight
g671
Vb
g657
I3
g5
tp674
a(Vtrouble
Vdouble
Vabab
p675
Va
VOn Wenlock Edge the wood's in trouble
p676
I0
g5
tp677
a(Vheaves
Vleaves
g675
Vb
g676
I0
g5
tp678
a(Vhanger
p679
Vanger
Vabab
p680
Va
g676
I1
g5
tp681
a(Vstood
Vwood
g680
Vb
g676
I1
g5
tp682
a(VRoman
p683
Vyeoman
Vabab
p684
Va
g676
I2
g5
tp685
a(Vstare
Vthere
g684
Vb
g676
I2
g5
tp686
a(Vriot
Vquiet
Vabab
p687
Va
g676
I3
g5
tp688
a(Vhigh
VI
g687
Vb
g676
I3
g5
tp689
a(Vdouble
Vtrouble
p690
Vabab
p691
Va
g676
I4
g5
tp692
a(Vgone
VUricon
g691
Vb
g676
I4
g5
tp693
a(Vsky
VI
Vabcb
p694
Vb
VFrom far, from eve and morning
p695
I0
g5
tp696
a(Vapart
Vheart
Vabcb
p697
Vb
g695
I1
g5
tp698
a(Vsay
Vway
Vabcb
p699
Vb
g695
I2
g5
tp700
a(Vhigh
Vdie
Vabcb
p701
Vb
VIf truth in hearts that perish
p702
I0
g5
tp703
a(Vsave
Vgrave
Vabcb
p704
Vb
g702
I1
g5
tp705
a(Vplease
Vthese
Vabcb
p706
Vb
g702
I2
g5
tp707
a(Vkind
Vfind
Vabcb
p708
Vb
g702
I3
g5
tp709
a(Vbe
Vme
Vaabb
p710
Va
VOh, sick I am to see you
p711
I0
g5
tp712
a(V_
Vdear
g710
Vb
g711
I0
g5
tp713
a(Vbred
p714
Vred
Vaabb
p715
Va
g711
I1
g5
tp716
a(Vclean
VQueen
g715
Vb
g711
I1
g5
tp717
a(Vmind
Vkind
Vaabb
p718
Va
g711
I2
g5
tp719
a(Vcap
Vchap
g718
Vb
g711
I2
g5
tp720
a(Vtwo
Vdo
Vaabb
p721
Va
g711
I3
g5
tp722
a(Vthick
Vsick
g721
Vb
g711
I3
g5
tp723
a(Vsummer
Vdrummer
p724
Vabab
p725
Va
VOn the idle hill of summer
p726
I0
g5
tp727
a(Vstreams
Vdreams
g725
Vb
g726
I0
g5
tp728
a(Vlouder
p729
Vpowder
Vabab
p730
Va
g726
I1
g5
tp731
a(Vby
Vdie
g730
Vb
g726
I1
g5
tp732
a(Vforgotten
p733
Vrotten
Vabab
p734
Va
g726
I2
g5
tp735
a(Vslain
Vagain
g734
Vb
g726
I2
g5
tp736
a(Vhollo
Vfollow
Vabab
p737
Va
g726
I3
g5
tp738
a(Vreplies
Vrise
g737
Vb
g726
I3
g5
tp739
a(Vlies
Vlies
p740
Vabab
p741
Va
VWhite in the moon the long road lies
p742
I0
g5
tp743
a(Vabove
Vlove
g741
Vb
g742
I0
g5
tp744
a(Vgust
Vdust
p745
Vabab
p746
Va
g742
I1
g5
tp747
a(Vstay
Vway
g746
Vb
g742
I1
g5
tp748
a(Vtell
Vwell
Vabab
p749
Va
g742
I2
g5
tp750
a(Vtrack
Vback
g749
Vb
g742
I2
g5
tp751
a(Vhies
p752
Vlies
p753
Vabab
p754
Va
g742
I3
g5
tp755
a(Vremove
Vlove
g754
Vb
g742
I3
g5
tp756
a(VWyre
p757
Vshire
Vaabbccddeeffgghhiijjkkllmmnnooppqqrr
p758
Va
VAs through the wild green hills of Wyre
p759
I0
g5
tp760
a(Vcrest
Vwest
p761
g758
S'b'
g759
I0
g5
tp762
a(VClee
Vknee
g758
S'c'
g759
I0
g5
tp763
a(Vlay
Vaway
p764
g758
S'd'
g759
I0
g5
tp765
a(Vfist
p766
Vwrist
g758
S'e'
g759
I0
g5
tp767
a(Vpart
p768
Vheart
g758
S'f'
g759
I0
g5
tp769
a(Vlands
Vhands
g758
S'g'
g759
I0
g5
tp770
a(Vdo
p771
Vyou
g758
S'h'
g759
I0
g5
tp772
a(Vshame
p773
Vname
g758
S'i'
g759
I0
g5
tp774
a(Vsay
p775
Vthey
g758
S'j'
g759
I0
g5
tp776
a(Vmind
p777
Vbehind
g758
S'k'
g759
I0
g5
tp778
a(Vcold
p779
Vgold
g758
S'l'
g759
I0
g5
tp780
a(Vnot
p781
Vforgot
g758
S'm'
g759
I0
g5
tp782
a(Vmore
p783
Vshore
g758
S'n'
g759
I0
g5
tp784
a(Vstill
p785
Vhill
g758
S'o'
g759
I0
g5
tp786
a(Vtree
Vme
g758
S'p'
g759
I0
g5
tp787
a(Vfarm
p788
Vharm
g758
S'q'
g759
I0
g5
tp789
a(Vgave
p790
Vgrave
g758
S'r'
g759
I0
g5
tp791
a(Vblow
Vknow
p792
Vabab
p793
Va
VThe winds out of the west land blow
p794
I0
g5
tp795
a(Vthere
Vair
g793
Vb
g794
I0
g5
tp796
a(Vlungs
Vtongues
p797
Vabab
p798
Va
g794
I1
g5
tp799
a(Vfree
Vme
g798
Vb
g794
I1
g5
tp800
a(Vfly
Vby
Vabab
p801
Va
g794
I2
g5
tp802
a(Vsown
Vown
g801
Vb
g794
I2
g5
tp803
a(Vplain
Vvain
p804
Vabab
p805
Va
g794
I3
g5
tp806
a(Vstill
Vhill
g805
Vb
g794
I3
g5
tp807
a(Vthere
Vfare
p808
Vabab
p809
Va
g794
I4
g5
tp810
a(Vabode
Vroad
g809
Vb
g794
I4
g5
tp811
a(Vtown
p812
Vdown
p813
Vabab
p814
Va
V'Tis time, I think by Wenlock town
p815
I0
g5
tp816
a(Vblow
Vsnow
g814
Vb
g815
I0
g5
tp817
a(Vtime
p818
Vclimb
p819
Vabab
p820
Va
g815
I1
g5
tp821
a(Vaway
Vmay
g820
Vb
g815
I1
g5
tp822
a(VEdge
Vhedge
p823
Vabab
p824
Va
g815
I2
g5
tp825
a(Vsee
Vme
g824
Vb
g815
I2
g5
tp826
a(Vkills
p827
Vhills
Vabab
p828
Va
VInto my heart an air that kills
p829
I0
g5
tp830
a(Vblows
Vthose
g828
Vb
g829
I0
g5
tp831
a(Vcontent
Vwent
p832
Vabab
p833
Va
g829
I1
g5
tp834
a(Vplain
Vagain
g833
Vb
g829
I1
g5
tp835
a(Vsad
p836
Vhad
Vaabbccddeeffgghhii
p837
Va
VIn my own shire, if I was sad
p838
I0
g5
tp839
a(Vsore
Vbore
g837
S'b'
g838
I0
g5
tp840
a(Vremain
Vpain
g837
S'c'
g838
I0
g5
tp841
a(VI
Vby
g837
S'd'
g838
I0
g5
tp842
a(Vdear
Vyear
g837
S'e'
g838
I0
g5
tp843
a(Vbrown
p844
Vdown
g837
S'f'
g838
I0
g5
tp845
a(Vpale
p846
Vdale
g837
S'g'
g838
I0
g5
tp847
a(VMay
p848
Vlay
g837
S'h'
g838
I0
g5
tp849
a(Vstood
p850
Vwood
g837
S'i'
g838
I0
g5
tp851
a(Vloads
Vroads
Vaabbccddeeffgg
p852
Va
g838
I1
g5
tp853
a(Vken
p854
Vmen
g852
S'b'
g838
I1
g5
tp855
a(Vbear
Vcare
g852
S'c'
g838
I1
g5
tp856
a(Vsee
p857
Vme
p858
g852
S'd'
g838
I1
g5
tp859
a(Vmind
p860
Vkind
g852
S'e'
g838
I1
g5
tp861
a(Vcan
p862
Vman
g852
S'f'
g838
I1
g5
tp863
a(Vstill
p864
Vill
g852
S'g'
g838
I1
g5
tp865
a(Vwold
Vgold
Vabcb
p866
Vb
VOnce in the wind of morning
p867
I0
g5
tp868
a(Vtrod
Vrod
Vabcb
p869
Vb
g867
I1
g5
tp870
a(Vguise
p871
Veyes
Vabcb
p872
Vb
g867
I2
g5
tp873
a(Vsay
Vway
Vabcb
p874
Vb
g867
I3
g5
tp875
a(Vbeside
p876
Vguide
Vabcb
p877
Vb
g867
I4
g5
tp878
a(Vstill
p879
Vhill
Vabcb
p880
Vb
g867
I5
g5
tp881
a(Vdown
p882
Vtown
Vabcb
p883
Vb
g867
I6
g5
tp884
a(Vstride
p885
Vguide
Vabcb
p886
Vb
g867
I7
g5
tp887
a(Vafield
p888
Vweald
Vabcb
p889
Vb
g867
I8
g5
tp890
a(Vwide
Vguide
Vabcb
p891
Vb
g867
I9
g5
tp892
a(Vblown
p893
Valone
Vabcb
p894
Vb
g867
I10
g5
tp895
a(Vthinned
Vwind
Vabcb
p896
Vb
g867
I11
g5
tp897
a(Vwhirled
p898
Vworld
Vabcb
p899
Vb
g867
I12
g5
tp900
a(Vdied
p901
Vguide
Vabcb
p902
Vb
g867
I13
g5
tp903
a(Vrespond
Vwand
Vabcb
p904
Vb
g867
I14
g5
tp905
a(Vbeam
Vdream
Vaabb
p906
Va
VWhen I meet the morning beam
p907
I0
g5
tp908
a(Vsay
Vday
g906
Vb
g907
I0
g5
tp909
a(Vcast
Vlast
Vaabb
p910
Va
g907
I1
g5
tp911
a(Vslain
p912
Vremain
g910
Vb
g907
I1
g5
tp913
a(Vshout
Vabout
Vaabb
p914
Va
g907
I2
g5
tp915
a(Vschemes
Vdreams
g914
Vb
g907
I2
g5
tp916
a(Vpower
p917
Vhour
Vaabb
p918
Va
g907
I3
g5
tp919
a(Vcontrol
p920
Vsoul
g918
Vb
g907
I3
g5
tp921
a(Vgone
Von
Vaabb
p922
Va
g907
I4
g5
tp923
a(Vbirth
p924
Vearth
g922
Vb
g907
I4
g5
tp925
a(Vwest
Vrest
Vaabb
p926
Va
g907
I5
g5
tp927
a(Vson
p928
Vskeleton
g926
Vb
g907
I5
g5
tp929
a(Vdust
Vmust
Vaabb
p930
Va
g907
I6
g5
tp931
a(Vlight
Vnight
g930
Vb
g907
I6
g5
tp932
a(Vsore
Vmore
Vaabb
p933
Va
g907
I7
g5
tp934
a(Vwild
Vchild
g933
Vb
g907
I7
g5
tp935
a(Vcast
Vlast
Vaabb
p936
Va
g907
I8
g5
tp937
a(Vday
Vsay
g936
Vb
g907
I8
g5
tp938
a(Vwill
p939
Vstill
Vaabb
p940
Va
g907
I9
g5
tp941
a(Vstrong
Valong
g940
Vb
g907
I9
g5
tp942
a(Vdecay
Vaway
Vaabb
p943
Va
g907
I10
g5
tp944
a(Valone
p945
Vbone
g943
Vb
g907
I10
g5
tp946
a(Vending
Vmending
Vabab
p947
Va
VShot? so quick, so clean an ending
p948
I0
g5
tp949
a(Vbrave
Vgrave
g947
Vb
g948
I0
g5
tp950
a(Vreason
Vseason
p951
Vabab
p952
Va
g948
I1
g5
tp953
a(Vled
Vhead
g952
Vb
g948
I1
g5
tp954
a(Vlater
p955
Vtraitor
Vabab
p956
Va
g948
I2
g5
tp957
a(Vscorn
Vborn
g956
Vb
g948
I2
g5
tp958
a(Vmorrow
p959
Vsorrow
Vabab
p960
Va
g948
I3
g5
tp961
a(Vmust
Vdust
g960
Vb
g948
I3
g5
tp962
a(Vothers
Vbrothers
Vabab
p963
Va
g948
I4
g5
tp964
a(Vbegan
Vman
g963
Vb
g948
I4
g5
tp965
a(Vstranger
p966
Vdanger
Vabab
p967
Va
g948
I5
g5
tp968
a(Vcome
Vhome
g967
Vb
g948
I5
g5
tp969
a(Vwaking
Vtaking
Vabab
p970
Va
g948
I6
g5
tp971
a(Vmade
Vfade
g970
Vb
g948
I6
g5
tp972
a(Vyou
Vyou
Vabab
p973
Va
VIf it chance your eye offend you
p974
I0
g5
tp975
a(Vsound
Vground
g973
Vb
g974
I0
g5
tp976
a(Vyou
Vyou
Vabab
p977
Va
g974
I1
g5
tp978
a(Vwhole
Vsoul
g977
Vb
g974
I1
g5
tp979
a(Vthrow
Vsnow
Vaabbccddee
p980
Va
VBring, in this timeless grave to throw
p981
I0
g5
tp982
a(Vyew
p983
Vthrough
g980
S'b'
g981
I0
g5
tp984
a(Vrime
p985
Vclime
g980
S'c'
g981
I0
g5
tp986
a(Vlook
p987
Vbrook
p988
g980
S'd'
g981
I0
g5
tp989
a(Vbring
p990
Vspring
g980
S'e'
g981
I0
g5
tp991
a(Vkept
p992
Voverstept
Vaabbccddeeff
p993
Va
g981
I1
g5
tp994
a(Vblue
p995
Vtwo
g993
S'b'
g981
I1
g5
tp996
a(Vo'er
p997
Vfrore
g993
S'c'
g981
I1
g5
tp998
a(Vplain
p999
Vagain
g993
S'd'
g981
I1
g5
tp1000
a(Vthose
p1001
Vbedfellows
p1002
g993
S'e'
g981
I1
g5
tp1003
a(Vlies
p1004
Varise
g993
S'f'
g981
I1
g5
tp1005
a(Vcart
Vpart
Vaabb
p1006
Va
VHere the hangman stops his cart
p1007
I0
g5
tp1008
a(VI
Vdie
g1006
Vb
g1007
I0
g5
tp1009
a(Vstayed
p1010
Vtrade
Vaabb
p1011
Va
g1007
I1
g5
tp1012
a(Vadze
Vlads
g1011
Vb
g1007
I1
g5
tp1013
a(Vperhaps
p1014
Vchaps
Vaabb
p1015
Va
g1007
I2
g5
tp1016
a(Vown
Valone
g1015
Vb
g1007
I2
g5
tp1017
a(Vhigh
Vby
p1018
Vaabb
p1019
Va
g1007
I3
g5
tp1020
a(Vcurse
Vworse
g1019
Vb
g1007
I3
g5
tp1021
a(Vleft
p1022
Vtheft
Vaabb
p1023
Va
g1007
I4
g5
tp1024
a(Vprove
Vlove
g1023
Vb
g1007
I4
g5
tp1025
a(Vgaze
Vways
Vaabb
p1026
Va
g1007
I5
g5
tp1027
a(Vown
Valone
g1026
Vb
g1007
I5
g5
tp1028
a(Vend
Vfriend
Vaabb
p1029
Va
g1007
I6
g5
tp1030
a(VI
Vdie
g1029
Vb
g1007
I6
g5
tp1031
a(Vbrittle
Vlittle
Vabab
p1032
Va
VBe still, my soul, be still
p1033
I0
g5
tp1034
a(Vstrong
Vlong
g1032
Vb
g1033
I0
g5
tp1035
a(Vquarry
p1036
Vsorry
Vabab
p1037
Va
g1033
I1
g5
tp1038
a(Vmourn
Vborn
g1037
Vb
g1033
I1
g5
tp1039
a(Vreason
Vseason
Vabab
p1040
Va
g1033
I2
g5
tp1041
a(Vsun
Vdone
g1040
Vb
g1033
I2
g5
tp1042
a(Vfoundation
Vindignation
Vabab
p1043
Va
g1033
I3
g5
tp1044
a(Vvain
Vagain
g1043
Vb
g1033
I3
g5
tp1045
a(Vjolly
Vfolly
p1046
Vabccab
p1047
Va
VThink no more, lad; laugh, be jolly
p1048
I0
g5
tp1049
a(Vdie
Vsky
g1047
Vb
g1048
I0
g5
tp1050
a(Va-talking
p1051
Vwalking
g1047
Vc
g1048
I0
g5
tp1052
a(Vdrinking
p1053
Vthinking
p1054
Vabccab
p1055
Va
g1048
I1
g5
tp1056
a(Varound
Vunderground
g1055
Vb
g1048
I1
g5
tp1057
a(Vclever
Vever
g1055
Vc
g1048
I1
g5
tp1058
a(Vrivers
Vlivers
Vabab
p1059
Va
VIn valleys of springs of rivers
p1060
I0
g5
tp1061
a(VClun
Vsun
g1059
Vb
g1060
I0
g5
tp1062
a(Vlighten
VKnighton
p1063
Vabab
p1064
Va
g1060
I1
g5
tp1065
a(Vglad
Vlad
g1064
Vb
g1060
I1
g5
tp1066
a(Vunder
Vwonder
p1067
Vabab
p1068
Va
g1060
I2
g5
tp1069
a(Vill
Vstill
g1068
Vb
g1060
I2
g5
tp1070
a(Volder
p1071
Vshoulder
p1072
Vabab
p1073
Va
g1060
I3
g5
tp1074
a(Vmore
Vbefore
g1073
Vb
g1060
I3
g5
tp1075
a(Vdeliver
p1076
Vriver
Vabab
p1077
Va
g1060
I4
g5
tp1078
a(Vdown
Vtown
g1077
Vb
g1060
I4
g5
tp1079
a(VKnighton
Vlighten
p1080
Vabab
p1081
Va
g1060
I5
g5
tp1082
a(VClun
Vone
g1081
Vb
g1060
I5
g5
tp1083
a(Veye
p1084
Vgallery
Vaabbccddee
p1085
Va
VLoitering with a vacant eye
p1086
I0
g5
tp1087
a(Vill
Vstill
g1085
S'b'
g1086
I0
g5
tp1088
a(Vhe
Vme
g1085
S'c'
g1086
I0
g5
tp1089
a(Vsay
Vaway
g1085
S'd'
g1086
I0
g5
tp1090
a(Vyoung
Vamong
g1085
S'e'
g1086
I0
g5
tp1091
a(Vhard
Vregard
Vaabbccddeeffgghh
p1092
Va
g1086
I1
g5
tp1093
a(Vlot
Vnot
g1092
S'b'
g1086
I1
g5
tp1094
a(Vline
p1095
Vmine
g1092
S'c'
g1086
I1
g5
tp1096
a(Vrest
Vprest
g1092
S'd'
g1086
I1
g5
tp1097
a(Vill
Vstill
g1092
S'e'
g1086
I1
g5
tp1098
a(Vlong
Vstrong
g1092
S'f'
g1086
I1
g5
tp1099
a(Vsay
Vlay
g1092
S'g'
g1086
I1
g5
tp1100
a(Vbone
p1101
Vstone
g1092
S'h'
g1086
I1
g5
tp1102
a(Vago
p1103
Vknow
Vabcb
p1104
Vb
VFar in a western brookland
p1105
I0
g5
tp1106
a(Vwhy
Vsigh
Vabcb
p1107
Vb
g1105
I1
g5
tp1108
a(Vknown
Valone
Vabcb
p1109
Vb
g1105
I2
g5
tp1110
a(Vhears
p1111
Vweirs
Vabcb
p1112
Vb
g1105
I3
g5
tp1113
a(Vnight
Vsight
p1114
Vabab
p1115
Va
VThe lad came to the door at night
p1116
I0
g5
tp1117
a(Vvows
Vboughs
g1115
Vb
g1116
I0
g5
tp1118
a(Vface
p1119
Vspace
p1120
Vabab
p1121
Va
g1116
I1
g5
tp1122
a(Vaye
Vgrey
g1121
Vb
g1116
I1
g5
tp1123
a(Vpast
p1124
Vlast
p1125
Vabab
p1126
Va
g1116
I2
g5
tp1127
a(Vbride
Vbeside
g1126
Vb
g1116
I2
g5
tp1128
a(Vwhy
Vsky
p1129
Vabab
p1130
Va
g1116
I3
g5
tp1131
a(Vlaid
Vshade
g1130
Vb
g1116
I3
g5
tp1132
a(Vbreast
p1133
Vprest
p1134
Vabab
p1135
Va
g1116
I4
g5
tp1136
a(Vfall
Vall
g1135
Vb
g1116
I4
g5
tp1137
a(Vknock
Vclock
p1138
Vabab
p1139
Va
g1116
I5
g5
tp1140
a(Vthen
Vagain
g1139
Vb
g1116
I5
g5
tp1141
a(Vdrips
p1142
Vlips
Vabab
p1143
Va
g1116
I6
g5
tp1144
a(Vmine
Vbrine
g1143
Vb
g1116
I6
g5
tp1145
a(Vdear
Vear
p1146
Vabab
p1147
Va
g1116
I7
g5
tp1148
a(Vslit
p1149
Vit
g1147
Vb
g1116
I7
g5
tp1150
a(Vlight
p1151
Vnight
Vabab
p1152
Va
g1116
I8
g5
tp1153
a(Vboughs
Vvows
g1152
Vb
g1116
I8
g5
tp1154
a(Vladen
p1155
Vmaiden
p1156
Vabab
p1157
Va
VWith rue my heart is laden
p1158
I0
g5
tp1159
a(Vhad
Vlad
g1157
Vb
g1158
I0
g5
tp1160
a(Vleaping
p1161
Vsleeping
p1162
Vabab
p1163
Va
g1158
I1
g5
tp1164
a(Vlaid
Vfade
g1163
Vb
g1158
I1
g5
tp1165
a(Vplains
p1166
Vveins
p1167
Vabab
p1168
Va
VWestward on the high-hilled plains
p1169
I0
g5
tp1170
a(Vbegan
Vman
g1168
Vb
g1169
I0
g5
tp1171
a(VI
Vtry
Vabab
p1172
Va
g1169
I1
g5
tp1173
a(Vshore
Vbefore
g1172
Vb
g1169
I1
g5
tp1174
a(Vwest
p1175
Vrest
p1176
Vabab
p1177
Va
g1169
I2
g5
tp1178
a(Vwide
Vbeside
g1177
Vb
g1169
I2
g5
tp1179
a(Vmine
Vshine
p1180
Vabab
p1181
Va
g1169
I3
g5
tp1182
a(Vsteep
Vkeep
g1181
Vb
g1169
I3
g5
tp1183
a(Vblow
p1184
Vgo
Vaabb
p1185
Va
VFar I hear the bugle blow
p1186
I0
g5
tp1187
a(Vsong
Vlong
g1185
Vb
g1186
I0
g5
tp1188
a(Vfly
p1189
Vdie
Vaabb
p1190
Va
g1186
I1
g5
tp1191
a(Vnot
Vshot
g1190
Vb
g1186
I1
g5
tp1192
a(Vaway
p1193
Vday
Vaabb
p1194
Va
g1186
I2
g5
tp1195
a(Vcome
p1196
Vhome
g1194
Vb
g1186
I2
g5
tp1197
a(Vbad
Vlad
Vaabb
p1198
Va
g1186
I3
g5
tp1199
a(Vslain
Vbrain
g1198
Vb
g1186
I3
g5
tp1200
a(Vto-day
Vsay
Vabab
p1201
Va
VYou smile upon your friend to-day
p1202
I0
g5
tp1203
a(Vover
Vlover
g1201
Vb
g1202
I0
g5
tp1204
a(Vsmile
Vwhile
p1205
Vabab
p1206
Va
g1202
I1
g5
tp1207
a(Vnever
Vever
g1206
Vb
g1202
I1
g5
tp1208
a(Vpale
Vhale
Vabcb
p1209
Vb
VWhen I came last to Ludlow
p1210
I0
g5
tp1211
a(Vjail
Vpale
Vabcb
p1212
Vb
g1210
I1
g5
tp1213
a(Vto-night
p1214
Vlight
p1215
Vabab
p1216
Va
VThe star-filled seas are smooth to-night
p1217
I0
g5
tp1218
a(Vstrown
Vstone
g1216
Vb
g1217
I0
g5
tp1219
a(Vrise
Vlies
p1220
Vabab
p1221
Va
g1217
I1
g5
tp1222
a(Vfree
Vme
g1221
Vb
g1217
I1
g5
tp1223
a(Vlight
Vnight
p1224
Vabab
p1225
Va
g1217
I2
g5
tp1226
a(Vaye
Vday
g1225
Vb
g1217
I2
g5
tp1227
a(Vblack
Vpack
Vabab
p1228
Va
VNow hollow fires burn out to black
p1229
I0
g5
tp1230
a(Vlow
Vgo
g1228
Vb
g1229
I0
g5
tp1231
a(Vdread
Vtread
p1232
Vabab
p1233
Va
g1229
I1
g5
tp1234
a(Vright
Vnight
g1233
Vb
g1229
I1
g5
tp1235
a(Vsteeple
p1236
Vpeople
Vababcdcd
p1237
Va
VThe vane on Hughley steeple
p1238
I0
g5
tp1239
a(Vsign
Vmine
g1237
Vb
g1238
I0
g5
tp1240
a(Vtower
p1241
Vhour
p1242
g1237
Vc
g1238
I0
g5
tp1243
a(Vsun
Vnone
g1237
Vd
g1238
I0
g5
tp1244
a(Vcluster
Vmuster
p1245
Vababcdcd
p1246
Va
g1238
I1
g5
tp1247
a(Vthick
Vquick
g1246
Vb
g1238
I1
g5
tp1248
a(Vnumber
Vslumber
p1249
g1246
Vc
g1238
I1
g5
tp1250
a(Vdelves
Vthemselves
g1246
Vd
g1238
I1
g5
tp1251
a(Vparted
Vsingle-hearted
Vababcdcd
p1252
Va
g1238
I2
g5
tp1253
a(Vabove
Vlove
g1252
Vb
g1238
I2
g5
tp1254
a(Vonly
p1255
Vlonely
p1256
g1252
Vc
g1238
I2
g5
tp1257
a(Vknows
Vthose
g1252
Vd
g1238
I2
g5
tp1258
a(Vstuff
Venough
Vaabbccddeeffgg
p1259
Va
VTerence, this is stupid stuff
p1260
I0
g5
tp1261
a(Vclear
Vbeer
g1259
S'b'
g1260
I0
g5
tp1262
a(Vmake
Vbelly-ache
g1259
S'c'
g1260
I0
g5
tp1263
a(Vdead
Vhead
g1259
S'd'
g1260
I0
g5
tp1264
a(Vnow
p1265
Vcow
g1259
S'e'
g1260
I0
g5
tp1266
a(Vrhyme
p1267
Vtime
p1268
g1259
S'f'
g1260
I0
g5
tp1269
a(Vmad
Vlad
g1259
S'g'
g1260
I0
g5
tp1270
a(Vbe
Vpoetry
Vaabbccddeeffgghhiijjkkllmmnn
p1271
Va
g1260
I1
g5
tp1272
a(Vmeant
VTrent
g1271
S'b'
g1260
I1
g5
tp1273
a(Vbrews
p1274
VMuse
g1271
S'c'
g1260
I1
g5
tp1275
a(Vcan
p1276
Vman
g1271
S'd'
g1260
I1
g5
tp1277
a(Vdrink
p1278
Vthink
g1271
S'e'
g1260
I1
g5
tp1279
a(Vpot
p1280
Vnot
g1271
S'f'
g1260
I1
g5
tp1281
a(Vpast
Vlast
g1271
S'g'
g1260
I1
g5
tp1282
a(Vfair
p1283
Vwhere
g1271
S'h'
g1260
I1
g5
tp1284
a(Vnear
Vbeer
g1271
S'i'
g1260
I1
g5
tp1285
a(Vbad
Vlad
g1271
S'j'
g1260
I1
g5
tp1286
a(Vlain
Vagain
g1271
S'k'
g1260
I1
g5
tp1287
a(Vsky
Vlie
g1271
S'l'
g1260
I1
g5
tp1288
a(Vyet
Vwet
g1271
S'm'
g1260
I1
g5
tp1289
a(Vdo
p1290
Vanew
g1271
S'n'
g1260
I1
g5
tp1291
a(Vstill
p1292
Vill
Vaabbccddeeffgghh
p1293
Va
g1260
I2
g5
tp1294
a(Vendure
p1295
Vsure
g1293
S'b'
g1260
I2
g5
tp1296
a(Vwould
Vgood
g1293
S'c'
g1260
I2
g5
tp1297
a(Vsale
p1298
Vale
g1293
S'd'
g1260
I2
g5
tp1299
a(Vhand
p1300
Vland
g1293
S'e'
g1260
I2
g5
tp1301
a(Vsour
Vhour
g1293
S'f'
g1260
I2
g5
tp1302
a(Vhead
p1303
Vstead
g1293
S'g'
g1260
I2
g5
tp1304
a(Vmay
Vday
g1293
S'h'
g1260
I2
g5
tp1305
a(VEast
Vfeast
Vaabbccddeeffgghhii
p1306
Va
g1260
I3
g5
tp1307
a(Vthink
p1308
Vdrink
g1306
S'b'
g1260
I3
g5
tp1309
a(Vbirth
p1310
Vearth
g1306
S'c'
g1260
I3
g5
tp1311
a(Vmore
Vstore
g1306
S'd'
g1260
I3
g5
tp1312
a(Vsound
Vround
g1306
S'e'
g1260
I3
g5
tp1313
a(Vmeat
p1314
Veat
g1306
S'f'
g1260
I3
g5
tp1315
a(Vcup
p1316
Vup
g1306
S'g'
g1260
I3
g5
tp1317
a(Vshirt
Vhurt
g1306
S'h'
g1260
I3
g5
tp1318
a(Vtold
Vold
g1306
S'i'
g1260
I3
g5
tp1319
a(Vweeded
Vunheeded
Vabab
p1320
Va
VI Hoed and trenched and weeded
p1321
I0
g5
tp1322
a(Vfair
Vwear
g1320
Vb
g1321
I0
g5
tp1323
a(Vthem
p1324
Vthem
Vabab
p1325
Va
g1321
I1
g5
tp1326
a(Vfind
Vmind
g1325
Vb
g1321
I1
g5
tp1327
a(Vdevour
Vflower
p1328
Vabab
p1329
Va
g1321
I2
g5
tp1330
a(Vmars
Vstars
g1329
Vb
g1321
I2
g5
tp1331
a(Vthem
p1332
Vthem
p1333
Vabab
p1334
Va
g1321
I3
g5
tp1335
a(Von
Vgone
g1334
Vb
g1321
I3
g5
tp1336
a(Vmore
p1337
Vwore
p1338
Vabcacbbaacda
p1339
Va
VPrologue to Last Poems
p1340
I0
g5
tp1341
a(g1337
Vmore
p1342
g1339
Va
g1340
I0
g5
tp1343
a(g1337
Vmore
p1344
g1339
Va
g1340
I0
g5
tp1345
a(g1337
Vmore
p1346
g1339
Va
g1340
I0
g5
tp1347
a(Vcut
p1348
Vshut
p1349
g1339
Vb
g1340
I0
g5
tp1350
a(g1348
Vcut
p1351
g1339
Vb
g1340
I0
g5
tp1352
a(Vbay
p1353
Vday
p1354
g1339
Vc
g1340
I0
g5
tp1355
a(g1353
Vaway
p1356
g1339
Vc
g1340
I0
g5
tp1357
a(g1338
g1342
g1339
Va
g1340
I0
g5
tp1358
a(g1338
g1344
g1339
Va
g1340
I0
g5
tp1359
a(g1338
g1346
g1339
Va
g1340
I0
g5
tp1360
a(g1354
g1356
g1339
Vc
g1340
I0
g5
tp1361
a(g1349
g1351
g1339
Vb
g1340
I0
g5
tp1362
a(g1342
g1344
g1339
Va
g1340
I0
g5
tp1363
a(g1342
g1346
g1339
Va
g1340
I0
g5
tp1364
a(g1344
g1346
g1339
Va
g1340
I0
g5
tp1365
a(Vcrest
p1366
V-
Vaabb
p1367
Va
VThe West
p1368
I0
g5
tp1369
a(Vaway
p1370
Vday
g1367
Vb
g1368
I0
g5
tp1371
a(Vpine
p1372
Vline
Vaabb
p1373
Va
g1368
I1
g5
tp1374
a(Vwan
p1375
Von
g1373
Vb
g1368
I1
g5
tp1376
a(Vbrow
p1377
Vnow
Vaabb
p1378
Va
g1368
I2
g5
tp1379
a(Veyes
Vsighs
g1378
Vb
g1368
I2
g5
tp1380
a(Vroam
Vhome
Vaabb
p1381
Va
g1368
I3
g5
tp1382
a(Vtale
Vale
g1381
Vb
g1368
I3
g5
tp1383
a(Vsky
p1384
VI
Vaabb
p1385
Va
g1368
I4
g5
tp1386
a(Vstride
Vside
g1385
Vb
g1368
I4
g5
tp1387
a(Vwest
Vbreast
Vaabb
p1388
Va
g1368
I5
g5
tp1389
a(Vfar
Vbar
g1388
Vb
g1368
I5
g5
tp1390
a(Vsea
p1391
Vme
Vaabb
p1392
Va
g1368
I6
g5
tp1393
a(Vta'en
Vagain
g1392
Vb
g1368
I6
g5
tp1394
a(Vbefore
p1395
Vshore
Vaabb
p1396
Va
g1368
I7
g5
tp1397
a(Vleave
p1398
Veve
g1396
Vb
g1368
I7
g5
tp1399
a(Vforlorn
p1400
Vbourn
Vaabb
p1401
Va
g1368
I8
g5
tp1402
a(Veyed
p1403
Veventide
g1401
Vb
g1368
I8
g5
tp1404
a(Vroam
Vhome
Vaabb
p1405
Va
g1368
I9
g5
tp1406
a(Vstand
Vland
g1405
Vb
g1368
I9
g5
tp1407
a(Vair
p1408
Vthere
Vaabb
p1409
Va
g1368
I10
g5
tp1410
a(Vbest
Vwest
g1409
Vb
g1368
I10
g5
tp1411
a(Vthigh
VI
Vabcb
p1412
Vb
VLast Poems, II
p1413
I0
g5
tp1414
a(Vlow
p1415
Vknow
Vabcb
p1416
Vb
g1413
I1
g5
tp1417
a(Vstore
Vbefore
Vabcb
p1418
Vb
g1413
I2
g5
tp1419
a(Vbrave
Vsave
Vabcb
p1420
Vb
g1413
I3
g5
tp1421
a(Vwreck
Vneck
Vabcb
p1422
Vb
VLast Poems, III
p1423
I0
g5
tp1424
a(Vcry
Vdie
Vabcb
p1425
Vb
g1423
I1
g5
tp1426
a(Vsay
Vto-day
Vabcb
p1427
Vb
g1423
I2
g5
tp1428
a(Vhim
Vhim
Vabab
p1429
Va
VIllic Jacet
p1430
I0
g5
tp1431
a(Vcheap
Vsleep
g1429
Vb
g1430
I0
g5
tp1432
a(Vcrying
p1433
Vsighing
p1434
Vabab
p1435
Va
g1430
I1
g5
tp1436
a(Vbrave
Vgrave
g1435
Vb
g1430
I1
g5
tp1437
a(Vlonely
Vonly
p1438
Vabab
p1439
Va
g1430
I2
g5
tp1440
a(Vdepart
Vheart
g1439
Vb
g1430
I2
g5
tp1441
a(Vcovers
p1442
Vlovers
p1443
Vabab
p1444
Va
g1430
I3
g5
tp1445
a(Vrepose
Vchose
g1444
Vb
g1430
I3
g5
tp1446
a(Vme
Vbe
p1447
Vabab
p1448
Va
VThe Grenadier
p1449
I0
g5
tp1450
a(Vsay
Vday
g1448
Vb
g1449
I0
g5
tp1451
a(VI
Vlie
Vabab
p1452
Va
g1449
I1
g5
tp1453
a(Vwore
Vmore
g1452
Vb
g1449
I1
g5
tp1454
a(Vwet
Vdebt
p1455
Vabab
p1456
Va
g1449
I2
g5
tp1457
a(Vaway
Vday
g1456
Vb
g1449
I2
g5
tp1458
a(Vmen
p1459
Vthen
p1460
Vabab
p1461
Va
g1449
I3
g5
tp1462
a(Vsee
Vme
g1461
Vb
g1449
I3
g5
tp1463
a(Vprice
Vdevice
p1464
Vabab
p1465
Va
g1449
I4
g5
tp1466
a(Vsay
Vday
g1465
Vb
g1449
I4
g5
tp1467
a(Vlancer
Vlancer
p1468
Vabab
p1469
Va
VLancer
p1470
I0
g5
tp1471
a(Vbrave
Vgrave
g1469
Vb
g1470
I0
g5
tp1472
a(Vbidden
p1473
Vridden
Vabab
p1474
Va
g1470
I1
g5
tp1475
a(Vkeep
Vsleep
g1474
Vb
g1470
I1
g5
tp1476
a(Vlying
p1477
Vdying
Vabab
p1478
Va
g1470
I2
g5
tp1479
a(Vbehave
Vbrave
g1478
Vb
g1470
I2
g5
tp1480
a(Vanswer
Vlancer
Vaab
p1481
Va
g1470
I3
g5
tp1482
a(Vsleeping
p1483
Vkeeping
p1484
Vabab
p1485
Va
g1470
I4
g5
tp1486
a(Vloam
Vhome
g1485
Vb
g1470
I4
g5
tp1487
a(Vplaying
Vsaying
p1488
Vabab
p1489
Va
g1470
I5
g5
tp1490
a(Vwave
Vbrave
g1489
Vb
g1470
I5
g5
tp1491
a(Vanswer
Vlancer
Vaab
p1492
Va
g1470
I6
g5
tp1493
a(Vstill
p1494
Vhill
p1495
Vabab
p1496
Va
VLast Poems, VII
p1497
I0
g5
tp1498
a(Vmaying
p1499
Vplaying
g1496
Vb
g1497
I0
g5
tp1500
a(Vfife
Vlife
p1501
Vabab
p1502
Va
g1497
I1
g5
tp1503
a(Vhollow
Vfollow
g1502
Vb
g1497
I1
g5
tp1504
a(Vtrade
Vmaid
p1505
Vabab
p1506
Va
g1497
I2
g5
tp1507
a(Vweather
p1508
Vtogether
g1506
Vb
g1497
I2
g5
tp1509
a(Vlass
p1510
Vpass
Vabab
p1511
Va
g1497
I3
g5
tp1512
a(Vlying
p1513
Vsighing
g1511
Vb
g1497
I3
g5
tp1514
a(Vthey
p1515
Vway
p1516
Vabab
p1517
Va
g1497
I4
g5
tp1518
a(Vswelling
p1519
Vdwelling
g1517
Vb
g1497
I4
g5
tp1520
a(Vreturning
Vearning
Vabab
p1521
Va
VLast Poems, VIII
p1522
I0
g5
tp1523
a(Vtown
Vdown
g1521
Vb
g1522
I0
g5
tp1524
a(Vover
Vclover
p1525
Vabab
p1526
Va
g1522
I1
g5
tp1527
a(Vall
Vstall
g1526
Vb
g1522
I1
g5
tp1528
a(Vbiting
p1529
Vfighting
p1530
Vabab
p1531
Va
g1522
I2
g5
tp1532
a(Vspring
VKing
g1531
Vb
g1522
I2
g5
tp1533
a(Vbridle
Vidle
p1534
Vabab
p1535
Va
g1522
I3
g5
tp1536
a(Vpay
Vaye
g1535
Vb
g1522
I3
g5
tp1537
a(Vflowers
p1538
Vshowers
Vabab
p1539
Va
VLast Poems, IX
p1540
I0
g5
tp1541
a(Vaway
VMay
g1539
Vb
g1540
I0
g5
tp1542
a(Vlot
Vnot
Vabab
p1543
Va
g1540
I1
g5
tp1544
a(Vstore
Vtwenty-four
g1543
Vb
g1540
I1
g5
tp1545
a(Vfirst
p1546
Vcursed
p1547
Vabab
p1548
Va
g1540
I2
g5
tp1549
a(Vhurled
p1550
Vworld
g1548
Vb
g1540
I2
g5
tp1551
a(Vhigh
p1552
VI
Vabab
p1553
Va
g1540
I3
g5
tp1554
a(Vcrave
Vgrave
g1553
Vb
g1540
I3
g5
tp1555
a(Vcan
Vman
Vabab
p1556
Va
g1540
I4
g5
tp1557
a(Vbore
Vmore
g1556
Vb
g1540
I4
g5
tp1558
a(Vlours
p1559
Vours
p1560
Vabab
p1561
Va
g1540
I5
g5
tp1562
a(Vbehests
Vbreasts
g1561
Vb
g1540
I5
g5
tp1563
a(Vdust
p1564
Vmust
Vabab
p1565
Va
g1540
I6
g5
tp1566
a(Vfail
Vale
g1565
Vb
g1540
I6
g5
tp1567
a(Vfights
Vnights
Vabcb
p1568
Vb
VLast Poems, X
p1569
I0
g5
tp1570
a(Vstarts
Vhearts
Vabcb
p1571
Vb
g1569
I1
g5
tp1572
a(Vblink
p1573
Vdrink
p1574
Vabaab
p1575
Va
VLast Poems, XI
p1576
I0
g5
tp1577
a(g1573
Vthink
p1578
g1575
Va
g1576
I0
g5
tp1579
a(VI
Vwhy
g1575
Vb
g1576
I0
g5
tp1580
a(g1574
g1578
g1575
Va
g1576
I0
g5
tp1581
a(Vdressed
p1582
Vrest
p1583
Vabaab
p1584
Va
g1576
I1
g5
tp1585
a(g1582
Vbest
p1586
g1584
Va
g1576
I1
g5
tp1587
a(Vpain
Vagain
g1584
Vb
g1576
I1
g5
tp1588
a(g1583
g1586
g1584
Va
g1576
I1
g5
tp1589
a(Vman
Vcan
Vaabbccddeeffgghhiijjkkll
p1590
Va
VLast Poems, XII
p1591
I0
g5
tp1592
a(Vdecree
p1593
Vme
g1590
S'b'
g1591
I0
g5
tp1594
a(Vtheirs
p1595
Vaffairs
g1590
S'c'
g1591
I0
g5
tp1596
a(Vcondemn
Vthem
g1590
S'd'
g1591
I0
g5
tp1597
a(Vthey
p1598
Vway
g1590
S'e'
g1591
I0
g5
tp1599
a(Vstill
p1600
Vwill
g1590
S'f'
g1591
I0
g5
tp1601
a(Vdesire
p1602
Vhell-fire
g1590
S'g'
g1591
I0
g5
tp1603
a(Vodds
p1604
VGod's
g1590
S'h'
g1591
I0
g5
tp1605
a(Vafraid
p1606
Vmade
g1590
S'i'
g1591
I0
g5
tp1607
a(Vwrong
Vstrong
g1590
S'j'
g1591
I0
g5
tp1608
a(Vfly
p1609
VMercury
g1590
S'k'
g1591
I0
g5
tp1610
a(Vcan
Vman
g1590
S'l'
g1591
I0
g5
tp1611
a(Vwonder
Vthunder
Vabab
p1612
Va
VThe Deserter
p1613
I0
g5
tp1614
a(Vdumb
Vdrum
g1612
Vb
g1613
I0
g5
tp1615
a(Vhaven
p1616
Vraven
Vabab
p1617
Va
g1613
I1
g5
tp1618
a(Vfar
Vwar
g1617
Vb
g1613
I1
g5
tp1619
a(Vcrying
Vdying
Vabab
p1620
Va
g1613
I2
g5
tp1621
a(VI
Vdie
g1620
Vb
g1613
I2
g5
tp1622
a(Vplenty
p1623
Vfour-and-twenty
Vabab
p1624
Va
g1613
I3
g5
tp1625
a(Vcheap
Vsleep
g1624
Vb
g1613
I3
g5
tp1626
a(Vprattle
Vbattle
Vabab
p1627
Va
g1613
I4
g5
tp1628
a(Vgone
Von
g1627
Vb
g1613
I4
g5
tp1629
a(Vseason
Vtreason
Vabab
p1630
Va
g1613
I5
g5
tp1631
a(Vfair
Vwere
g1630
Vb
g1613
I5
g5
tp1632
a(Vlightly
Vrightly
p1633
Vabab
p1634
Va
g1613
I6
g5
tp1635
a(Vbrave
Vgrave
g1634
Vb
g1613
I6
g5
tp1636
a(Vundoing
Va-wooing
p1637
Vabab
p1638
Va
g1613
I7
g5
tp1639
a(Vwest
p1640
Vbreast
g1638
Vb
g1613
I7
g5
tp1641
a(Vover
Vlover
p1642
Vabab
p1643
Va
g1613
I8
g5
tp1644
a(Vaway
Vday
g1643
Vb
g1613
I8
g5
tp1645
a(Vme
p1646
Vbe
p1647
Vabcbb
p1648
Vb
VThe Culprit
p1649
I0
g5
tp1650
a(g1646
Vsee
p1651
g1648
Vb
g1649
I0
g5
tp1652
a(g1647
g1651
g1648
Vb
g1649
I0
g5
tp1653
a(Vglad
p1654
Vlad
p1655
Vabcbb
p1656
Vb
g1649
I1
g5
tp1657
a(g1654
Vhad
p1658
g1656
Vb
g1649
I1
g5
tp1659
a(g1655
g1658
g1656
Vb
g1649
I1
g5
tp1660
a(Vlie
p1661
VI
Vabcbb
p1662
Vb
g1649
I2
g5
tp1663
a(g1661
Vhigh
p1664
g1662
Vb
g1649
I2
g5
tp1665
a(VI
g1664
g1662
Vb
g1649
I2
g5
tp1666
a(Vforgot
p1667
Vknot
p1668
Vabcbb
p1669
Vb
g1649
I3
g5
tp1670
a(g1667
Vrot
p1671
g1669
Vb
g1649
I3
g5
tp1672
a(g1668
g1671
g1669
Vb
g1649
I3
g5
tp1673
a(Vbegun
p1674
Vson
p1675
Vabcbb
p1676
Vb
g1649
I4
g5
tp1677
a(g1674
Vnone
p1678
g1676
Vb
g1649
I4
g5
tp1679
a(g1675
g1678
g1676
Vb
g1649
I4
g5
tp1680
a(Vsteeple
p1681
Vpeople
p1682
Vabab
p1683
Va
VEight O' Clock
p1684
I0
g5
tp1685
a(Vtown
Vdown
g1683
Vb
g1684
I0
g5
tp1686
a(Vhour
Vtower
p1687
Vabab
p1688
Va
g1684
I1
g5
tp1689
a(Vluck
Vstruck
g1688
Vb
g1684
I1
g5
tp1690
a(Vbell
p1691
Vwell
p1692
Vabab
p1693
Va
VSpring Morning
p1694
I0
g5
tp1695
a(Vrenews
Vdews
g1693
Vb
g1694
I0
g5
tp1696
a(Vlook
Vbrook
p1697
Vabab
p1698
Va
g1694
I1
g5
tp1699
a(Vpains
Vplains
g1698
Vb
g1694
I1
g5
tp1700
a(Vair
p1701
Vthere
Vabab
p1702
Va
g1694
I2
g5
tp1703
a(Von
Vgone
g1702
Vb
g1694
I2
g5
tp1704
a(Vlad
p1705
Vglad
p1706
Vabab
p1707
Va
g1694
I3
g5
tp1708
a(Vgnawn
p1709
Vdawn
g1707
Vb
g1694
I3
g5
tp1710
a(Vdie
Vtry
p1711
Vabab
p1712
Va
g1694
I4
g5
tp1713
a(Vplain
p1714
Vagain
g1712
Vb
g1694
I4
g5
tp1715
a(Vwest
p1716
Vbest
p1717
Vabab
p1718
Va
g1694
I5
g5
tp1719
a(Vwide
Vside
g1718
Vb
g1694
I5
g5
tp1720
a(Vsteep
p1721
Vweep
p1722
Vabab
p1723
Va
VAstronomy
p1724
I0
g5
tp1725
a(Vaway
VAfrica
g1723
Vb
g1724
I0
g5
tp1726
a(Vrank
Vsank
p1727
Vabab
p1728
Va
g1724
I1
g5
tp1729
a(Vfound
Vunderground
g1728
Vb
g1724
I1
g5
tp1730
a(Vsee
p1731
Vhe
p1732
Vabab
p1733
Va
g1724
I2
g5
tp1734
a(Vroll
p1735
Vpole
g1733
Vb
g1724
I2
g5
tp1736
a(Vclay
Vaway
Vabccb
p1737
Vb
VLast Poems, XVIII
p1738
I0
g5
tp1739
a(Vright
p1740
Vgood-night
g1737
Vc
g1738
I0
g5
tp1741
a(Vsure
Vcure
Vabccb
p1742
Vb
g1738
I1
g5
tp1743
a(Vless
Vheaviness
p1744
g1742
Vc
g1738
I1
g5
tp1745
a(Vwide
Vbeside
Vabccb
p1746
Vb
g1738
I2
g5
tp1747
a(Vnought
p1748
Vthought
p1749
g1746
Vc
g1738
I2
g5
tp1750
a(Vthrough
Vyou
Vabccb
p1751
Vb
g1738
I3
g5
tp1752
a(Vmirth
Vearth
p1753
g1751
Vc
g1738
I3
g5
tp1754
a(Vagain
Vrain
Vabccb
p1755
Vb
g1738
I4
g5
tp1756
a(Vwoe
p1757
Vago
p1758
g1755
Vc
g1738
I4
g5
tp1759
a(Vnigh
Vsky
Vabcb
p1760
Vb
VLast Poems, XIX
p1761
I0
g5
tp1762
a(Vroars
Vdoors
Vabcb
p1763
Vb
g1761
I1
g5
tp1764
a(Vhold
Vcold
Vabcb
p1765
Vb
g1761
I2
g5
tp1766
a(VInd
Vwind
Vabcb
p1767
Vb
g1761
I3
g5
tp1768
a(Vforlorn
Vmorn
Vabcb
p1769
Vb
g1761
I4
g5
tp1770
a(Vstay
Vday
Vabcb
p1771
Vb
g1761
I5
g5
tp1772
a(Vfast
Vpast
Vabcabc
p1773
Va
VLast Poems, XX
p1774
I0
g5
tp1775
a(VDecember
Vremember
p1776
g1773
Vb
g1774
I0
g5
tp1777
a(Vold
p1778
Vcold
g1773
Vc
g1774
I0
g5
tp1779
a(Vhe
Vsea
p1780
Vabcabc
p1781
Va
g1774
I1
g5
tp1782
a(Vclever
Vever
g1781
Vb
g1774
I1
g5
tp1783
a(Vrobe
Vglobe
g1781
Vc
g1774
I1
g5
tp1784
a(Vdances
p1785
Vglances
p1786
Vabab
p1787
Va
VLast Poems, XXI
p1788
I0
g5
tp1789
a(Vlawn
Vdawn
g1787
Vb
g1788
I0
g5
tp1790
a(Vsockets
Vpockets
p1791
Vabab
p1792
Va
g1788
I1
g5
tp1793
a(Vday
Vpay
g1792
Vb
g1788
I1
g5
tp1794
a(Vflower
Vhour
Vabab
p1795
Va
VLost Poems, XXII
p1796
I0
g5
tp1797
a(Vdim
Vhim
g1795
Vb
g1796
I0
g5
tp1798
a(Vbower
Vhour
Vabab
p1799
Va
g1796
I1
g5
tp1800
a(Vfir
Vher
g1799
Vb
g1796
I1
g5
tp1801
a(Vhay
Vday
Vabcb
p1802
Vb
VLost Poems, XXII
p1803
I0
g5
tp1804
a(Vlay
Vaway
Vabcb
p1805
Vb
g1803
I1
g5
tp1806
a(Vson
VHelicon
Vaabbccdd
p1807
Va
VEpithalium
p1808
I0
g5
tp1809
a(Vheart
Vpart
g1807
S'b'
g1808
I0
g5
tp1810
a(Vside
p1811
Vbride
g1807
S'c'
g1808
I0
g5
tp1812
a(Vo'er
p1813
Vmore
g1807
S'd'
g1808
I0
g5
tp1814
a(Vbeam
p1815
Vstream
Vaabbcc
p1816
Va
g1808
I1
g5
tp1817
a(Vsun
Vdone
g1816
S'b'
g1808
I1
g5
tp1818
a(Vsteep
p1819
Vsleep
g1816
S'c'
g1808
I1
g5
tp1820
a(Vbrings
p1821
Vthings
Vaabbccdd
p1822
Va
g1808
I2
g5
tp1823
a(Vroam
Vhome
g1822
S'b'
g1808
I2
g5
tp1824
a(Vbehold
Vfold
g1822
S'c'
g1808
I2
g5
tp1825
a(Vwide
Vbride
g1822
S'd'
g1808
I2
g5
tp1826
a(Vcup
p1827
Vup
Vaabbcc
p1828
Va
g1808
I3
g5
tp1829
a(Vborne
p1830
Vthorn
g1828
S'b'
g1808
I3
g5
tp1831
a(Vpast
Vlast
g1828
S'c'
g1808
I3
g5
tp1832
a(Vlight
p1833
Vnight
Vaabbccddeeffgghh
p1834
Va
g1808
I4
g5
tp1835
a(Vconfuse
p1836
Vdews
g1834
S'b'
g1808
I4
g5
tp1837
a(Vcontrol
Vpole
g1834
S'c'
g1808
I4
g5
tp1838
a(Vshed
p1839
Vbed
g1834
S'd'
g1808
I4
g5
tp1840
a(Vprime
p1841
Vtime
g1834
S'e'
g1808
I4
g5
tp1842
a(Valarms
Vharms
g1834
S'f'
g1808
I4
g5
tp1843
a(Vground
Vround
p1844
g1834
S'g'
g1808
I4
g5
tp1845
a(Vward
Vsword
g1834
S'h'
g1808
I4
g5
tp1846
a(Vmountain
p1847
Vfountain
Vabab
p1848
Va
VThe Oracles
p1849
I0
g5
tp1850
a(Vtolled
Vold
g1848
Vb
g1849
I0
g5
tp1851
a(Vspeaking
Vshrieking
p1852
Vabab
p1853
Va
g1849
I1
g5
tp1854
a(Vplain
Vagain
g1853
Vb
g1849
I1
g5
tp1855
a(Vit
Vit
Vabab
p1856
Va
g1849
I2
g5
tp1857
a(Vmore
Vbefore
g1856
Vb
g1849
I2
g5
tp1858
a(Vmorning
Vreturning
Vabab
p1859
Va
g1849
I3
g5
tp1860
a(Vair
Vhair
g1859
Vb
g1849
I3
g5
tp1861
a(Vlove
Vlove
Vabab
p1862
Va
VLast Poems, XXVI
p1863
I0
g5
tp1864
a(Vrain
Vtwain
g1862
Vb
g1863
I0
g5
tp1865
a(Vlove
Vlove
Vabab
p1866
Va
g1863
I1
g5
tp1867
a(Vlie
VI
g1866
Vb
g1863
I1
g5
tp1868
a(Vgrasses
p1869
Vpasses
p1870
Vabab
p1871
Va
VLast Poems, XXVII
p1872
I0
g5
tp1873
a(Vrise
p1874
Vsighs
g1871
Vb
g1872
I0
g5
tp1875
a(Vadorning
p1876
Vmorning
Vabab
p1877
Va
g1872
I1
g5
tp1878
a(Vlea
Vthee
g1877
Vb
g1872
I1
g5
tp1879
a(Vlight
Vnight
Vabab
p1880
Va
VLast Poems, XXVIII
p1881
I0
g5
tp1882
a(Vdrear
Vyear
g1880
Vb
g1881
I0
g5
tp1883
a(Vhad
Vlad
p1884
Vabab
p1885
Va
g1881
I1
g5
tp1886
a(Vsmall
p1887
Vall
g1885
Vb
g1881
I1
g5
tp1888
a(Vthunder
p1889
Vunder
Vabccabdd
p1890
Va
VLast Poems XXIX
p1891
I0
g5
tp1892
a(Vtoll
Vsoul
g1890
Vb
g1891
I0
g5
tp1893
a(Vplanet
Vgranite
g1890
Vc
g1891
I0
g5
tp1894
a(Vpast
Vlast
g1890
Vd
g1891
I0
g5
tp1895
a(Vdrilling
p1896
Vfilling
p1897
Vabccabdd
p1898
Va
g1891
I1
g5
tp1899
a(Vcures
Vyours
g1898
Vb
g1891
I1
g5
tp1900
a(Vrattle
p1901
Vbattle
g1898
Vc
g1891
I1
g5
tp1902
a(Vbest
Vrest
g1898
Vd
g1891
I1
g5
tp1903
a(Vlanded
Vshort-handed
Vabccabdd
p1904
Va
g1891
I2
g5
tp1905
a(Vdown
Vdrown
g1904
Vb
g1891
I2
g5
tp1906
a(Vyou
Vyou
g1904
Vc
g1891
I2
g5
tp1907
a(Vo'er
Vmore
g1904
Vd
g1891
I2
g5
tp1908
a(Vblew
p1909
Vrue
Vabcb
p1910
Vb
VSinner's Rue
p1911
I0
g5
tp1912
a(Vslays
Vways
Vabcb
p1913
Vb
g1911
I1
g5
tp1914
a(Vblue
Vrue
Vabcb
p1915
Vb
g1911
I2
g5
tp1916
a(Vsign
Vmine
Vabcb
p1917
Vb
g1911
I3
g5
tp1918
a(Vyou
Vrue
Vabcb
p1919
Vb
g1911
I4
g5
tp1920
a(Vagain
p1921
Vplain
p1922
Vaabbccddeeff
p1923
Va
VHell's Gate
p1924
I0
g5
tp1925
a(Vdim
Vrim
p1926
g1923
S'b'
g1924
I0
g5
tp1927
a(Vsight
p1928
Vnight
g1923
S'c'
g1924
I0
g5
tp1929
a(Vglow
p1930
Vago
g1923
S'd'
g1924
I0
g5
tp1931
a(Vbroke
p1932
Vspoke
g1923
S'e'
g1924
I0
g5
tp1933
a(Vwell
Vhell
g1923
S'f'
g1924
I0
g5
tp1934
a(Vsee
p1935
Vmasonry
Vaabbccdd
p1936
Va
g1924
I1
g5
tp1937
a(Vdark
p1938
Vspark
g1936
S'b'
g1924
I1
g5
tp1939
a(Vguide
p1940
Vreplied
g1936
S'c'
g1924
I1
g5
tp1941
a(Vturn
p1942
Vburn
g1936
S'd'
g1924
I1
g5
tp1943
a(Vsky
p1944
Veye
p1945
Vaabbccddeeffgghhiijjkkll
p1946
Va
g1924
I2
g5
tp1947
a(Vplain
Vagain
g1946
S'b'
g1924
I2
g5
tp1948
a(Vthen
Vmen
g1946
S'c'
g1924
I2
g5
tp1949
a(Vcrossed
Vlost
g1946
S'd'
g1924
I2
g5
tp1950
a(Vsaid
Vled
p1951
g1946
S'e'
g1924
I2
g5
tp1952
a(Vmire
p1953
Vfire
g1946
S'f'
g1924
I2
g5
tp1954
a(Vdun
p1955
Vsun
p1956
g1946
S'g'
g1924
I2
g5
tp1957
a(Vloom
Vgloom
p1958
g1946
S'h'
g1924
I2
g5
tp1959
a(Vgo
Vfro
g1946
S'i'
g1924
I2
g5
tp1960
a(Vadmire
p1961
Vfire
g1946
S'j'
g1924
I2
g5
tp1962
a(Vpace
Vplace
g1946
S'k'
g1924
I2
g5
tp1963
a(Vcorps
p1964
Vbefore
g1946
S'l'
g1924
I2
g5
tp1965
a(Vhigh
p1966
Vsky
Vaabbccddeeffgghhiijj
p1967
Va
g1924
I3
g5
tp1968
a(Vtrack
p1969
Vback
g1967
S'b'
g1924
I3
g5
tp1970
a(Vstill
p1971
Vsill
g1967
S'c'
g1924
I3
g5
tp1972
a(Vpride
Vside
g1967
S'd'
g1924
I3
g5
tp1973
a(Vapart
p1974
Vheart
g1967
S'e'
g1924
I3
g5
tp1975
a(Vin
p1976
VSun
p1977
g1967
S'f'
g1924
I3
g5
tp1978
a(Vsword
p1979
Vlord
g1967
S'g'
g1924
I3
g5
tp1980
a(Vsee
p1981
Vme
g1967
S'h'
g1924
I3
g5
tp1982
a(Vreply
VI
g1967
S'i'
g1924
I3
g5
tp1983
a(Vhead
VNed
g1967
S'j'
g1924
I3
g5
tp1984
a(Vstraight
Vgate
Vaabbccddeeffgghhiijjkk
p1985
Va
g1924
I4
g5
tp1986
a(Vchin
Vwithin
p1987
g1985
S'b'
g1924
I4
g5
tp1988
a(Vhum
p1989
Vcome
p1990
g1985
S'c'
g1924
I4
g5
tp1991
a(Vfar
p1992
Vwar
g1985
S'd'
g1924
I4
g5
tp1993
a(Vwaits
Vgates
g1985
S'e'
g1924
I4
g5
tp1994
a(Vbarred
p1995
Vguard
g1985
S'f'
g1924
I4
g5
tp1996
a(Vwell
p1997
Vhell
g1985
S'g'
g1924
I4
g5
tp1998
a(Vwhite
Vright
p1999
g1985
S'h'
g1924
I4
g5
tp2000
a(Vfear
p2001
Vmutineer
g1985
S'i'
g1924
I4
g5
tp2002
a(Vbowed
Vcloud
p2003
g1985
S'j'
g1924
I4
g5
tp2004
a(Vstroke
Vspoke
g1985
S'k'
g1924
I4
g5
tp2005
a(Vhell
p2006
Vfell
Vaabbccdd
p2007
Va
g1924
I5
g5
tp2008
a(Vrolled
p2009
Vold
g2007
S'b'
g1924
I5
g5
tp2010
a(Vflown
p2011
Valone
g2007
S'c'
g1924
I5
g5
tp2012
a(Vsky
p2013
VI
g2007
S'd'
g1924
I5
g5
tp2014
a(Vsay
Vway
Vaabbccddee
p2015
Va
g1924
I6
g5
tp2016
a(Vdied
p2017
Vside
g2015
S'b'
g1924
I6
g5
tp2018
a(Vattire
p2019
Vfire
g2015
S'c'
g1924
I6
g5
tp2020
a(Vtrack
p2021
Vback
g2015
S'd'
g1924
I6
g5
tp2022
a(Vmute
Vpursuit
g2015
S'e'
g1924
I6
g5
tp2023
a(Vamong
Vyoung
Vabcbdefe
p2024
Vb
VLast Poems, XXXIII
p2025
I0
g5
tp2026
a(Vkind
Vfind
g2024
Ve
g2025
I0
g5
tp2027
a(Vbrave
Vsave
Vabcbdefe
p2028
Vb
g2025
I1
g5
tp2029
a(Vsea
Vme
g2028
Ve
g2025
I1
g5
tp2030
a(Vshut
Vhut
p2031
Vabab
p2032
Va
VLast Poems, XXXIV
p2033
I0
g5
tp2034
a(Vbeams
Vdreams
g2032
Vb
g2033
I0
g5
tp2035
a(Vrock
Vknock
Vabab
p2036
Va
g2033
I1
g5
tp2037
a(Vmain
Vagain
g2036
Vb
g2033
I1
g5
tp2038
a(Vrest
p2039
Vwest
p2040
Vabab
p2041
Va
g2033
I2
g5
tp2042
a(Vlaid
Vmade
g2041
Vb
g2033
I2
g5
tp2043
a(Vdust
Vmust
Vabab
p2044
Va
g2033
I3
g5
tp2045
a(Vsea
Vme
g2044
Vb
g2033
I3
g5
tp2046
a(Vway
p2047
VMay
p2048
Vababcdcd
p2049
Va
VThe First of May
p2050
I0
g5
tp2051
a(Vfair
p2052
Vthere
g2049
Vb
g2050
I0
g5
tp2053
a(Vturning
p2054
Vburning
p2055
g2049
Vc
g2050
I0
g5
tp2056
a(Vshow
p2057
Vago
g2049
Vd
g2050
I0
g5
tp2058
a(Vgreen
Vbetween
p2059
Vababcdcd
p2060
Va
g2050
I1
g5
tp2061
a(Vsnowed
Vroad
g2060
Vb
g2050
I1
g5
tp2062
a(Vdrinking
p2063
Vthinking
p2064
g2060
Vc
g2050
I1
g5
tp2065
a(Vlimb
Vhim
g2060
Vd
g2050
I1
g5
tp2066
a(Vflower
p2067
Vtower
p2068
Vababcdcd
p2069
Va
g2050
I2
g5
tp2070
a(Vtread
p2071
Vdead
g2069
Vb
g2050
I2
g5
tp2072
a(Vafter
Vlaughter
g2069
Vc
g2050
I2
g5
tp2073
a(Vsay
VMay
g2069
Vd
g2050
I2
g5
tp2074
a(Vyet
p2075
Vget
p2076
Vababcdcd
p2077
Va
g2050
I3
g5
tp2078
a(Vthen
Vmen
g2077
Vb
g2050
I3
g5
tp2079
a(Vsorrow
p2080
Vto-morrow
p2081
g2077
Vc
g2050
I3
g5
tp2082
a(Vvain
Vagain
g2077
Vd
g2050
I3
g5
tp2083
a(Vtook
p2084
Vlook
p2085
Vabab
p2086
Va
VLast Poems, XXXV
p2087
I0
g5
tp2088
a(VI
Vbuy
g2086
Vb
g2087
I0
g5
tp2089
a(Vcare
p2090
Vfair
Vabab
p2091
Va
g2087
I1
g5
tp2092
a(Vcan
Vman
g2091
Vb
g2087
I1
g5
tp2093
a(Vfour
p2094
Vsore
p2095
Vabab
p2096
Va
g2087
I2
g5
tp2097
a(Vthree
p2098
Vbe
g2096
Vb
g2087
I2
g5
tp2099
a(Vroll
Vfoal
Vabab
p2100
Va
VRevolution
p2101
I0
g5
tp2102
a(Vborne
Vmorn
g2100
Vb
g2101
I0
g5
tp2103
a(Vsight
p2104
Vnight
Vabab
p2105
Va
g2101
I1
g5
tp2106
a(Vconveyed
p2107
Vshade
g2105
Vb
g2101
I1
g5
tp2108
a(Vhark
Vdark
p2109
Vabab
p2110
Va
g2101
I2
g5
tp2111
a(Vchime
Vclimb
g2110
Vb
g2101
I2
g5
tp2112
a(Vfalling
Vcalling
p2113
Vabab
p2114
Va
VEPITAPH ON AN ARMY OF MERCENARIES
p2115
I0
g5
tp2116
a(Vfled
Vdead
g2114
Vb
g2115
I0
g5
tp2117
a(Vsuspended
Vdefended
Vabab
p2118
Va
g2115
I1
g5
tp2119
a(Vstay
Vpay
g2118
Vb
g2115
I1
g5
tp2120
a(Vsea
Vme
Vabccb
p2121
Vb
VLast Poems, XXXVIII
p2122
I0
g5
tp2123
a(Vdrill
Vhill
p2124
g2121
Vc
g2122
I0
g5
tp2125
a(Vair
Vwere
Vabccb
p2126
Vb
g2122
I1
g5
tp2127
a(Vgrave
p2128
Vbrave
p2129
g2126
Vc
g2122
I1
g5
tp2130
a(Vcloud
p2131
Vvowed
p2132
Vabcbb
p2133
Vb
VLast Poems, XXXIX
p2134
I0
g5
tp2135
a(g2131
Vproud
p2136
g2133
Vb
g2134
I0
g5
tp2137
a(g2132
g2136
g2133
Vb
g2134
I0
g5
tp2138
a(Vray
p2139
Vaway
p2140
Vabcbb
p2141
Vb
g2134
I1
g5
tp2142
a(g2139
Vday
p2143
g2141
Vb
g2134
I1
g5
tp2144
a(g2140
g2143
g2141
Vb
g2134
I1
g5
tp2145
a(Vdied
p2146
Vcountryside
p2147
Vabcbb
p2148
Vb
g2134
I2
g5
tp2149
a(g2146
Vpride
p2150
g2148
Vb
g2134
I2
g5
tp2151
a(g2147
g2150
g2148
Vb
g2134
I2
g5
tp2152
a(Vstand
p2153
Vhand
p2154
Vabcbb
p2155
Vb
g2134
I3
g5
tp2156
a(g2153
Vland
p2157
g2155
Vb
g2134
I3
g5
tp2158
a(g2154
g2157
g2155
Vb
g2134
I3
g5
tp2159
a(Vclose
p2160
Vsnows
p2161
Vabcbb
p2162
Vb
g2134
I4
g5
tp2163
a(g2160
Vthose
p2164
g2162
Vb
g2134
I4
g5
tp2165
a(g2161
g2164
g2162
Vb
g2134
I4
g5
tp2166
a(Vanew
p2167
Vensue
p2168
Vabcbb
p2169
Vb
g2134
I5
g5
tp2170
a(g2167
Vfew
p2171
g2169
Vb
g2134
I5
g5
tp2172
a(g2168
g2171
g2169
Vb
g2134
I5
g5
tp2173
a(Vnighs
p2174
Vsighs
p2175
Vabcbb
p2176
Vb
g2134
I6
g5
tp2177
a(g2174
Vreplies
p2178
g2176
Vb
g2134
I6
g5
tp2179
a(g2175
g2178
g2176
Vb
g2134
I6
g5
tp2180
a(Vplays
p2181
Vmays
p2182
Vabcbdb
p2183
Vb
VLast Poems, XL
p2184
I0
g5
tp2185
a(g2181
Vways
p2186
g2183
Vb
g2184
I0
g5
tp2187
a(g2182
g2186
g2183
Vb
g2184
I0
g5
tp2188
a(Vcone
p2189
Valone
p2190
Vabcbdb
p2191
Vb
g2184
I1
g5
tp2192
a(g2189
Vown
p2193
g2191
Vb
g2184
I1
g5
tp2194
a(g2190
g2193
g2191
Vb
g2184
I1
g5
tp2195
a(Vheaves
p2196
Vsheaves
p2197
Vabcbdb
p2198
Vb
g2184
I2
g5
tp2199
a(g2196
Vleaves
p2200
g2198
Vb
g2184
I2
g5
tp2201
a(g2197
g2200
g2198
Vb
g2184
I2
g5
tp2202
a(Vresign
p2203
Vshine
p2204
Vabcbdb
p2205
Vb
g2184
I3
g5
tp2206
a(g2203
Vmine
p2207
g2205
Vb
g2184
I3
g5
tp2208
a(g2204
g2207
g2205
Vb
g2184
I3
g5
tp2209
a(Vknow
p2210
Vgo
p2211
Vabcbdb
p2212
Vb
g2184
I4
g5
tp2213
a(g2210
Vno
p2214
g2212
Vb
g2184
I4
g5
tp2215
a(g2211
g2214
g2212
Vb
g2184
I4
g5
tp2216
a(Vlabour
p2217
Vneighbour
p2218
Vababcdcd
p2219
Va
VFancy's Knell
p2220
I0
g5
tp2221
a(VClee
Vme
g2219
Vb
g2220
I0
g5
tp2222
a(Vlances
p2223
Vdances
g2219
Vc
g2220
I0
g5
tp2224
a(Vlaid
Vplayed
g2219
Vd
g2220
I0
g5
tp2225
a(Vpleasures
Vmeasures
Vababcdcd
p2226
Va
g2220
I1
g5
tp2227
a(Vwere
Vair
g2226
Vb
g2220
I1
g5
tp2228
a(Vplaying
p2229
Vdelaying
g2226
Vc
g2220
I1
g5
tp2230
a(Vsteep
p2231
Vsleep
g2226
Vd
g2220
I1
g5
tp2232
a(Vfancy
VNancy
p2233
Vababcdcd
p2234
Va
g2220
I2
g5
tp2235
a(Vtan
VFan
g2234
Vb
g2220
I2
g5
tp2236
a(Vglances
p2237
Vdances
p2238
g2234
Vc
g2220
I2
g5
tp2239
a(Vmute
Vflute
g2234
Vd
g2220
I2
g5
tp2240
a(Vumbered
Vslumbered
p2241
Vababcdcd
p2242
Va
g2220
I3
g5
tp2243
a(VBurf
Vturf
g2242
Vb
g2220
I3
g5
tp2244
a(Vclover
p2245
Vover
p2246
g2242
Vc
g2220
I3
g5
tp2247
a(Vfade
Vshade
g2242
Vd
g2220
I3
g5
tp2248
a(Vadvances
Vdances
p2249
Vababcdcd
p2250
Va
g2220
I4
g5
tp2251
a(Vplay
Vto-day
g2250
Vb
g2220
I4
g5
tp2252
a(Vpity
Vditty
g2250
Vc
g2220
I4
g5
tp2253
a(Vhie
VI
g2250
Vd
g2220
I4
g5
tp2254
a(Vslain
Vvain
Vaabbcc
p2255
Va
VEaster Hymn
p2256
I0
g5
tp2257
a(Vbright
p2258
Vnight
p2259
g2255
S'b'
g2256
I0
g5
tp2260
a(Vfan
Vman
g2255
S'c'
g2256
I0
g5
tp2261
a(Vby
Vhigh
p2262
Vaabbcc
p2263
Va
g2256
I1
g5
tp2264
a(Vyet
p2265
Vsweat
g2263
S'b'
g2256
I1
g5
tp2266
a(Vgave
Vsave
g2263
S'c'
g2256
I1
g5
tp2267
a(Vcame
p2268
Vflame
Vabab
p2269
Va
VMore Poems, II
p2270
I0
g5
tp2271
a(Vtrod
VGod
g2269
Vb
g2270
I0
g5
tp2272
a(Vhand
p2273
Vsand
Vabab
p2274
Va
g2270
I1
g5
tp2275
a(Vfoam
Vhome
g2274
Vb
g2270
I1
g5
tp2276
a(Vheard
p2277
Vword
p2278
Vabab
p2279
Va
g2270
I2
g5
tp2280
a(Vblow
Vgo
g2279
Vb
g2270
I2
g5
tp2281
a(Vflame
Vcame
Vabab
p2282
Va
g2270
I3
g5
tp2283
a(Vdumb
Vcome
g2282
Vb
g2270
I3
g5
tp2284
a(Vaway
p2285
Vmay
p2286
Vabab
p2287
Va
g2270
I4
g5
tp2288
a(Vstand
Vland
g2287
Vb
g2270
I4
g5
tp2289
a(Vdie
p2290
VI
Vabab
p2291
Va
g2270
I5
g5
tp2292
a(Vown
Vknown
g2291
Vb
g2270
I5
g5
tp2293
a(Vhid
p2294
Vamid
p2295
Vabab
p2296
Va
g2270
I6
g5
tp2297
a(Vbegot
Vnot
g2296
Vb
g2270
I6
g5
tp2298
a(Vtrader
p2299
Vnadir
p2300
Vabab
p2301
Va
VMore Poems, III
p2302
I0
g5
tp2303
a(Vseas
Vthese
g2301
Vb
g2302
I0
g5
tp2304
a(Vhaggard
p2305
Vstaggered
p2306
Vabab
p2307
Va
g2302
I1
g5
tp2308
a(Vhurled
Vworld
g2307
Vb
g2302
I1
g5
tp2309
a(Vtarnished
Vgarnished
p2310
Vabab
p2311
Va
g2302
I2
g5
tp2312
a(Vaway
Vthey
g2311
Vb
g2302
I2
g5
tp2313
a(Veaten
Vsweeten
p2314
Vabab
p2315
Va
g2302
I3
g5
tp2316
a(Vregard
Vnard
g2315
Vb
g2302
I3
g5
tp2317
a(Vvexation
Vnation
p2318
Vabab
p2319
Va
g2302
I4
g5
tp2320
a(Vdone
Vsun
g2319
Vb
g2302
I4
g5
tp2321
a(Vannals
p2322
Vchannels
p2323
Vabab
p2324
Va
g2302
I5
g5
tp2325
a(Vtale
Vsail
g2324
Vb
g2302
I5
g5
tp2326
a(Vright
Vheight
p2327
Vabab
p2328
Va
VMore Poems, IV
p2329
I0
g5
tp2330
a(Vgain
p2331
Vplain
g2328
Vb
g2329
I0
g5
tp2332
a(Varray
p2333
Vassay
p2334
Vabab
p2335
Va
g2329
I1
g5
tp2336
a(Vcount
p2337
Vmount
g2335
Vb
g2329
I1
g5
tp2338
a(Vbegun
Vson
Vabab
p2339
Va
g2329
I2
g5
tp2340
a(Vstrive
Valive
g2339
Vb
g2329
I2
g5
tp2341
a(Vjust
p2342
Vdost
Vabab
p2343
Va
g2329
I3
g5
tp2344
a(Vbrave
Vsave
g2343
Vb
g2329
I3
g5
tp2345
a(Vdeep
Vsleep
p2346
Vabab
p2347
Va
g2329
I4
g5
tp2348
a(Vwon
Vnone
g2347
Vb
g2329
I4
g5
tp2349
a(Vthou
Vnow
p2350
Vabab
p2351
Va
g2329
I5
g5
tp2352
a(Vsworn
Vmorn
g2351
Vb
g2329
I5
g5
tp2353
a(Vprize
Veyes
p2354
Vabab
p2355
Va
g2329
I6
g5
tp2356
a(Vaye
Vday
g2355
Vb
g2329
I6
g5
tp2357
a(Vattain
Vgain
p2358
Vabab
p2359
Va
g2329
I7
g5
tp2360
a(Vshort
Vfort
g2359
Vb
g2329
I7
g5
tp2361
a(Vshaws
p2362
Vwithdraws
Vabab
p2363
Va
VMore Poems, V
p2364
I0
g5
tp2365
a(Vbirth
Vearth
g2363
Vb
g2364
I0
g5
tp2366
a(Vfear
p2367
Vyear
p2368
Vabab
p2369
Va
g2364
I1
g5
tp2370
a(Vplay
Vaye
g2369
Vb
g2364
I1
g5
tp2371
a(Vspring
p2372
Vscattering
Vabab
p2373
Va
g2364
I2
g5
tp2374
a(Vhers
p2375
Vstirs
g2373
Vb
g2364
I2
g5
tp2376
a(Vmar
Vare
Vabab
p2377
Va
g2364
I3
g5
tp2378
a(Vbeams
Vdreams
g2377
Vb
g2364
I3
g5
tp2379
a(Vadd
p2380
Vhad
p2381
Vabab
p2382
Va
g2364
I4
g5
tp2383
a(Vtold
Vhold
g2382
Vb
g2364
I4
g5
tp2384
a(Vamong
Vtongue
Vabab
p2385
Va
g2364
I5
g5
tp2386
a(Vo'er
Vmore
g2385
Vb
g2364
I5
g5
tp2387
a(Vstain
Vchain
p2388
Vabab
p2389
Va
g2364
I6
g5
tp2390
a(Vstay
Vaway
g2389
Vb
g2364
I6
g5
tp2391
a(Vcharmer
p2392
Varmour
p2393
Vabbcdeec
p2394
Vb
VMore Poems, VI
p2395
I0
g5
tp2396
a(Vbenign
Vmine
g2394
Vc
g2395
I0
g5
tp2397
a(Vher
p2398
Vdeceiver
p2399
g2394
Ve
g2395
I0
g5
tp2400
a(Vfleeting
Vmeeting
p2401
Vabbcdeec
p2402
Vb
g2395
I1
g5
tp2403
a(Vfame
Vcame
g2402
Vc
g2395
I1
g5
tp2404
a(Vsteady
Vready
p2405
g2402
Ve
g2395
I1
g5
tp2406
a(Vfall
Vall
p2407
Vababcdcd
p2408
Va
VMore Poems, VII
p2409
I0
g5
tp2410
a(Vdie
p2411
Vsky
g2408
Vb
g2409
I0
g5
tp2412
a(Vbe
p2413
Vsea
g2408
Vc
g2409
I0
g5
tp2414
a(Vfault
Vsalt
g2408
Vd
g2409
I0
g5
tp2415
a(Vleaf
Vgrief
Vabab
p2416
Va
VMore Poems, VIII
p2417
I0
g5
tp2418
a(Vstand
Vland
g2416
Vb
g2417
I0
g5
tp2419
a(Vfare
Vthere
p2420
Vabab
p2421
Va
g2417
I1
g5
tp2422
a(Vstay
Vaye
g2421
Vb
g2417
I1
g5
tp2423
a(Vforgets
p2424
Vnets
p2425
Vabab
p2426
Va
g2417
I2
g5
tp2427
a(Vagain
Vmain
g2426
Vb
g2417
I2
g5
tp2428
a(Vdust
p2429
Vmust
Vababcdcd
p2430
Va
VMore Poems, IX
p2431
I0
g5
tp2432
a(Vrain
Vagain
g2430
Vb
g2431
I0
g5
tp2433
a(Vbowers
p2434
Vcuckoo-flowers
p2435
g2430
Vc
g2431
I0
g5
tp2436
a(Vuncurled
Vworld
g2430
Vd
g2431
I0
g5
tp2437
a(Vsea
Vbreeze
Vabcb
p2438
Vb
VMore Poems, X
p2439
I0
g5
tp2440
a(Vknown
Valone
Vabcb
p2441
Vb
g2439
I1
g5
tp2442
a(Vprone
Valone
Vabcb
p2443
Vb
VMore Poems, XI
p2444
I0
g5
tp2445
a(Vsea
p2446
Vme
Vabcb
p2447
Vb
g2444
I1
g5
tp2448
a(Vpart
Vheart
p2449
Vabab
p2450
Va
VMore Poems, XII
p2451
I0
g5
tp2452
a(Vbegan
Vman
g2450
Vb
g2451
I0
g5
tp2453
a(Vlast
p2454
Vcast
p2455
Vabab
p2456
Va
g2451
I1
g5
tp2457
a(Vair
Vdespair
g2456
Vb
g2451
I1
g5
tp2458
a(Vrevive
Valive
Vabcb
p2459
Vb
VMore Poems, XIII
p2460
I0
g5
tp2461
a(Vforgot
Vnot
Vabcb
p2462
Vb
g2460
I1
g5
tp2463
a(Vhe
Vme
Vabcb
p2464
Vb
g2460
I2
g5
tp2465
a(Veven
Vheaven
p2466
Vabab
p2467
Va
VMore Poems, XIV
p2468
I0
g5
tp2469
a(Vstand
Vland
g2467
Vb
g2468
I0
g5
tp2470
a(Vme
Vme
Vabab
p2471
Va
g2468
I1
g5
tp2472
a(Vhill
Vstill
g2471
Vb
g2468
I1
g5
tp2473
a(Vsteeple
Vpeople
Vabab
p2474
Va
g2468
I2
g5
tp2475
a(Vstay
Vthey
g2474
Vb
g2468
I2
g5
tp2476
a(Vmet
Vyet
Vabab
p2477
Va
VMore Poems, XV
p2478
I0
g5
tp2479
a(Vstill
Vwill
g2477
Vb
g2478
I0
g5
tp2480
a(Vtower
Vhour
p2481
Vabab
p2482
Va
g2478
I1
g5
tp2483
a(Vlies
Vdies
g2482
Vb
g2478
I1
g5
tp2484
a(Vfirth
Vearth
p2485
Vabab
p2486
Va
g2478
I2
g5
tp2487
a(Vcomplain
p2488
Vagain
g2486
Vb
g2478
I2
g5
tp2489
a(Vbright
Vsight
p2490
Vaabcccb
p2491
Va
VMore Poems, XVI
p2492
I0
g5
tp2493
a(Vplay
Vday
g2491
Vb
g2492
I0
g5
tp2494
a(Vglee
p2495
Vfree
p2496
g2491
Vc
g2492
I0
g5
tp2497
a(g2495
Vsea
p2498
g2491
Vc
g2492
I0
g5
tp2499
a(g2496
g2498
g2491
Vc
g2492
I0
g5
tp2500
a(Vstrong
Vwrong
Vaabcccb
p2501
Va
g2492
I1
g5
tp2502
a(Vmore
Vbefore
g2501
Vb
g2492
I1
g5
tp2503
a(Vhow
p2504
Vnow
p2505
g2501
Vc
g2492
I1
g5
tp2506
a(g2504
Vvow
p2507
g2501
Vc
g2492
I1
g5
tp2508
a(g2505
g2507
g2501
Vc
g2492
I1
g5
tp2509
a(Vskies
p2510
Vdies
p2511
Vaabcccb
p2512
Va
g2492
I2
g5
tp2513
a(Vaway
Vday
g2512
Vb
g2492
I2
g5
tp2514
a(Vsound
p2515
Vfound
p2516
g2512
Vc
g2492
I2
g5
tp2517
a(g2515
Vground
p2518
g2512
Vc
g2492
I2
g5
tp2519
a(g2516
g2518
g2512
Vc
g2492
I2
g5
tp2520
a(Vtoll
Vsoul
Vaabb
p2521
Va
VMore Poems, XVII
p2522
I0
g5
tp2523
a(Vgone
p2524
Von
g2521
Vb
g2522
I0
g5
tp2525
a(Vlight
p2526
Vnight
Vaabb
p2527
Va
g2522
I1
g5
tp2528
a(Vstill
Vill
g2527
Vb
g2522
I1
g5
tp2529
a(VMay
p2530
Vday
p2531
Vababccb
p2532
Va
VMore Poems, XVIII
p2533
I0
g5
tp2534
a(Varise
p2535
Veyes
p2536
g2532
Vb
g2533
I0
g5
tp2537
a(g2535
Vlies
p2538
g2532
Vb
g2533
I0
g5
tp2539
a(g2536
g2538
g2532
Vb
g2533
I0
g5
tp2540
a(Vbe
Vme
g2532
Vc
g2533
I0
g5
tp2541
a(Vfail
Vnightingale
p2542
Vababccb
p2543
Va
g2533
I1
g5
tp2544
a(Vstill
p2545
Vhill
p2546
g2543
Vb
g2533
I1
g5
tp2547
a(g2545
Vill
p2548
g2543
Vb
g2533
I1
g5
tp2549
a(g2546
g2548
g2543
Vb
g2533
I1
g5
tp2550
a(Vflown
p2551
Valone
g2543
Vc
g2533
I1
g5
tp2552
a(Vcease
Vpeace
Vaabb
p2553
Va
VMore Poems, XIX
p2554
I0
g5
tp2555
a(Vby
VI
g2553
Vb
g2554
I0
g5
tp2556
a(Vtell
Vhell
Vaabb
p2557
Va
g2554
I1
g5
tp2558
a(Vbleed
Vdeed
g2557
Vb
g2554
I1
g5
tp2559
a(Vby
VI
Vaabb
p2560
Va
g2554
I2
g5
tp2561
a(Valone
p2562
Vstone
g2560
Vb
g2554
I2
g5
tp2563
a(Vslumber
p2564
Vnumber
p2565
Vabab
p2566
Va
VMore Poems, XX
p2567
I0
g5
tp2568
a(Vdivine
Vmine
g2566
Vb
g2567
I0
g5
tp2569
a(Vstation
Vnation
Vabab
p2570
Va
g2567
I1
g5
tp2571
a(Vleap
Vsleep
g2570
Vb
g2567
I1
g5
tp2572
a(Vconvulses
Vpulses
p2573
Vabab
p2574
Va
g2567
I2
g5
tp2575
a(Vbound
Vsound
g2574
Vb
g2567
I2
g5
tp2576
a(Vsee
Vme
Vabcb
p2577
Vb
VMore Poems, XXI
p2578
I0
g5
tp2579
a(Vremain
Vpain
Vabcb
p2580
Vb
g2578
I1
g5
tp2581
a(Vstole
Vsoul
Vabcb
p2582
Vb
g2578
I2
g5
tp2583
a(VI
Vdie
Vabcb
p2584
Vb
g2578
I3
g5
tp2585
a(Vgive
Vlive
Vabcb
p2586
Vb
VMore Poems, XXII
p2587
I0
g5
tp2588
a(Vpale
Vfail
Vabcb
p2589
Vb
g2587
I1
g5
tp2590
a(Vskies
Vdies
Vabcb
p2591
Vb
g2587
I2
g5
tp2592
a(Vcold
Vmould
Vabcb
p2593
Vb
g2587
I3
g5
tp2594
a(Vfee
Vme
Vabcb
p2595
Vb
VMore Poems, XXIII
p2596
I0
g5
tp2597
a(Vslave
Vgrave
Vabcb
p2598
Vb
g2596
I1
g5
tp2599
a(Vpass
Vgrass
p2600
Vabab
p2601
Va
VMore Poems, XXIV
p2602
I0
g5
tp2603
a(Vwonder
Vunder
g2601
Vb
g2602
I0
g5
tp2604
a(Vtie
p2605
Vlie
Vabab
p2606
Va
g2602
I1
g5
tp2607
a(Vsever
Vever
g2606
Vb
g2602
I1
g5
tp2608
a(Vsky
p2609
VI
Vabab
p2610
Va
VMore Poems, XXV
p2611
I0
g5
tp2612
a(Vbirth
Vearth
g2610
Vb
g2611
I0
g5
tp2613
a(Vto-day
Vaway
Vabab
p2614
Va
g2611
I1
g5
tp2615
a(Vplain
Vagain
g2614
Vb
g2611
I1
g5
tp2616
a(Vlives
p2617
Vknives
Vabab
p2618
Va
VMore Poems, XXVI
p2619
I0
g5
tp2620
a(Vsense
Vpence
g2618
Vb
g2619
I0
g5
tp2621
a(Vheart
p2622
Vdepart
p2623
Vabab
p2624
Va
g2619
I1
g5
tp2625
a(Vsky
Vdie
g2624
Vb
g2619
I1
g5
tp2626
a(Vmill
p2627
Vstill
p2628
Vaaba
p2629
Va
VMore Poems, XXVII
p2630
I0
g5
tp2631
a(g2627
Vill
p2632
g2629
Va
g2630
I0
g5
tp2633
a(g2628
g2632
g2629
Va
g2630
I0
g5
tp2634
a(Vapart
Vheart
p2635
Vabab
p2636
Va
VMore Poems, XXVIII
p2637
I0
g5
tp2638
a(Vplain
Vvain
g2636
Vb
g2637
I0
g5
tp2639
a(Vsends
p2640
Vends
Vaabb
p2641
Va
VMore Poems, XXIX
p2642
I0
g5
tp2643
a(Vfrayed
VLondon-made
g2641
Vb
g2642
I0
g5
tp2644
a(Vhearts
Vparts
Vaabb
p2645
Va
g2642
I1
g5
tp2646
a(Vdone
Vone
g2645
Vb
g2642
I1
g5
tp2647
a(Vtry
Vgood-bye
Vabccb
p2648
Vb
VMore Poems, XXX
p2649
I0
g5
tp2650
a(Vsaid
Vhead
g2648
Vc
g2649
I0
g5
tp2651
a(Vshare
Vthere
Vabccb
p2652
Vb
g2649
I1
g5
tp2653
a(Vtrue
p2654
Vyou
g2652
Vc
g2649
I1
g5
tp2655
a(Vsay
Vaway
Vabcb
p2656
Vb
VMore Poems, XXXI
p2657
I0
g5
tp2658
a(Vdry
VI
Vabcb
p2659
Vb
g2657
I1
g5
tp2660
a(Vpass
Vgrass
Vabcb
p2661
Vb
g2657
I2
g5
tp2662
a(Vstirred
Vword
Vabcb
p2663
Vb
g2657
I3
g5
tp2664
a(Vscatter
p2665
Vmatter
p2666
Vababb
p2667
Va
VMore Poems, XXXII
p2668
I0
g5
tp2669
a(Vgo
p2670
Vsow
p2671
g2667
Vb
g2668
I0
g5
tp2672
a(g2670
Vgrow
p2673
g2667
Vb
g2668
I0
g5
tp2674
a(g2671
g2673
g2667
Vb
g2668
I0
g5
tp2675
a(Vfallow
p2676
Vsallow
p2677
Vababb
p2678
Va
g2668
I1
g5
tp2679
a(Veyes
p2680
Vdies
p2681
g2678
Vb
g2668
I1
g5
tp2682
a(g2680
Varise
p2683
g2678
Vb
g2668
I1
g5
tp2684
a(g2681
g2683
g2678
Vb
g2668
I1
g5
tp2685
a(Vonly
p2686
Vlonely
Vababb
p2687
Va
g2668
I2
g5
tp2688
a(Vstand
p2689
Vland
p2690
g2687
Vb
g2668
I2
g5
tp2691
a(g2689
Vhand
p2692
g2687
Vb
g2668
I2
g5
tp2693
a(g2690
g2692
g2687
Vb
g2668
I2
g5
tp2694
a(Vshowers
Vtowers
p2695
Vababb
p2696
Va
g2668
I3
g5
tp2697
a(Vsprings
p2698
VKings
p2699
g2696
Vb
g2668
I3
g5
tp2700
a(g2698
Vstings
p2701
g2696
Vb
g2668
I3
g5
tp2702
a(g2699
g2701
g2696
Vb
g2668
I3
g5
tp2703
a(Vheaven
Veven
p2704
Vababcdcd
p2705
Va
VMore Poems, XXXIII
p2706
I0
g5
tp2707
a(Vby
VI
g2705
Vb
g2706
I0
g5
tp2708
a(Vfaces
p2709
Vplaces
p2710
g2705
Vc
g2706
I0
g5
tp2711
a(Vsee
Vbe
g2705
Vd
g2706
I0
g5
tp2712
a(Vyonder
Vfonder
Vababcdcd
p2713
Va
g2706
I1
g5
tp2714
a(Vshort
Vmore
g2713
Vb
g2706
I1
g5
tp2715
a(Vmoulder
p2716
Volder
g2713
Vc
g2706
I1
g5
tp2717
a(Vshed
p2718
Vdead
g2713
Vd
g2706
I1
g5
tp2719
a(Vpity
Vcity
Vababcdcd
p2720
Va
g2706
I2
g5
tp2721
a(Vstay
Vaway
g2720
Vb
g2706
I2
g5
tp2722
a(Vlamenting
p2723
Vindenting
p2724
g2720
Vc
g2706
I2
g5
tp2725
a(Vleave
Veve
g2720
Vd
g2706
I2
g5
tp2726
a(Vbenighted
p2727
Vlighted
Vababcdcd
p2728
Va
g2706
I3
g5
tp2729
a(Vdales
VWales
g2728
Vb
g2706
I3
g5
tp2730
a(Vpaces
p2731
Vfaces
p2732
g2728
Vc
g2706
I3
g5
tp2733
a(Vsea
Vme
g2728
Vd
g2706
I3
g5
tp2734
a(Vmile
p2735
Vwhile
p2736
Vabcbb
p2737
Vb
VMore Poems, XXXIV
p2738
I0
g5
tp2739
a(g2735
Vstile
p2740
g2737
Vb
g2738
I0
g5
tp2741
a(g2736
g2740
g2737
Vb
g2738
I0
g5
tp2742
a(Vcare
p2743
Vheir
p2744
Vabcbb
p2745
Vb
g2738
I1
g5
tp2746
a(g2743
Vthere
p2747
g2745
Vb
g2738
I1
g5
tp2748
a(g2744
g2747
g2745
Vb
g2738
I1
g5
tp2749
a(Vfell
p2750
Vtell
p2751
Vabcbb
p2752
Vb
g2738
I2
g5
tp2753
a(g2750
Vwell
p2754
g2752
Vb
g2738
I2
g5
tp2755
a(g2751
g2754
g2752
Vb
g2738
I2
g5
tp2756
a(Vawry
p2757
VI
Vabcbb
p2758
Vb
g2738
I3
g5
tp2759
a(g2757
Vdie
p2760
g2758
Vb
g2738
I3
g5
tp2761
a(VI
g2760
g2758
Vb
g2738
I3
g5
tp2762
a(Vmarred
p2763
Vevil-starred
p2764
Vabcbb
p2765
Vb
g2738
I4
g5
tp2766
a(g2763
Vhard
p2767
g2765
Vb
g2738
I4
g5
tp2768
a(g2764
g2767
g2765
Vb
g2738
I4
g5
tp2769
a(Vfold
p2770
Vmould
p2771
Vabcbb
p2772
Vb
g2738
I5
g5
tp2773
a(g2770
Vold
p2774
g2772
Vb
g2738
I5
g5
tp2775
a(g2771
g2774
g2772
Vb
g2738
I5
g5
tp2776
a(Vbroken
Vtoken
Vababcdcd
p2777
Va
VMore Poems, XXXV
p2778
I0
g5
tp2779
a(Vhalt
Vsalt
g2777
Vb
g2778
I0
g5
tp2780
a(Vbrewing
p2781
Vundoing
p2782
g2777
Vc
g2778
I0
g5
tp2783
a(Vsnowed
Vroad
g2777
Vd
g2778
I0
g5
tp2784
a(Vchoose
p2785
Vlose
Vabab
p2786
Va
VMore Poems, XXXVI
p2787
I0
g5
tp2788
a(Vsprung
Vyoung
g2786
Vb
g2787
I0
g5
tp2789
a(Vapart
Vheart
Vabcb
p2790
Vb
VMore Poems, XXXVII
p2791
I0
g5
tp2792
a(Vtried
Vdied
Vabcb
p2793
Vb
g2791
I1
g5
tp2794
a(Vsteeples
p2795
Vpeoples
p2796
Vabab
p2797
Va
VMore Poems, XXXVIII
p2798
I0
g5
tp2799
a(Vreceive
p2800
Veve
g2797
Vb
g2798
I0
g5
tp2801
a(Vslumber
p2802
Vnumber
p2803
Vabab
p2804
Va
g2798
I1
g5
tp2805
a(Vworn
Vmorn
g2804
Vb
g2798
I1
g5
tp2806
a(Vever
Vnever
p2807
Vabab
p2808
Va
g2798
I2
g5
tp2809
a(Vsight
Vnight
g2808
Vb
g2798
I2
g5
tp2810
a(Vafar
p2811
Vare
Vabab
p2812
Va
VMore Poems, XXXIX
p2813
I0
g5
tp2814
a(Vshot
Vnot
g2812
Vb
g2813
I0
g5
tp2815
a(Vman
p2816
Vran
Vabab
p2817
Va
g2813
I1
g5
tp2818
a(Vplain
Vremain
g2817
Vb
g2813
I1
g5
tp2819
a(Vnumber
p2820
Vslumber
p2821
Vabab
p2822
Va
VMore Poems, XL
p2823
I0
g5
tp2824
a(Vagain
p2825
Vpain
g2822
Vb
g2823
I0
g5
tp2826
a(Vthing
p2827
VKing
p2828
Vabab
p2829
Va
g2823
I1
g5
tp2830
a(Vbe
p2831
Vme
g2829
Vb
g2823
I1
g5
tp2832
a(Vburning
p2833
Vreturning
p2834
Vabab
p2835
Va
g2823
I2
g5
tp2836
a(Vflight
p2837
Vnight
g2835
Vb
g2823
I2
g5
tp2838
a(Vthought
p2839
Vbrought
p2840
Vabab
p2841
Va
VMore Poems, XLI
p2842
I0
g5
tp2843
a(Vfind
Vmind
g2841
Vb
g2842
I0
g5
tp2844
a(Vcap
Vchap
p2845
Vabab
p2846
Va
g2842
I1
g5
tp2847
a(Vhalf-crown
Vdown
g2846
Vb
g2842
I1
g5
tp2848
a(VKent
p2849
Vtent
p2850
Vabab
p2851
Va
g2842
I2
g5
tp2852
a(Vbrim
Vhim
g2851
Vb
g2842
I2
g5
tp2853
a(Voh
Vknow
Vabab
p2854
Va
VMore Poems, XLII
p2855
I0
g5
tp2856
a(Vforgot
Vnot
g2854
Vb
g2855
I0
g5
tp2857
a(Vhow
Vnow
p2858
Vabab
p2859
Va
g2855
I1
g5
tp2860
a(Vstay
Vaye
g2859
Vb
g2855
I1
g5
tp2861
a(Vlearn
p2862
Vreturn
Vabab
p2863
Va
g2855
I2
g5
tp2864
a(Vstill
p2865
Vwill
g2863
Vb
g2855
I2
g5
tp2866
a(Vcold
p2867
Vgold
Vabab
p2868
Va
g2855
I3
g5
tp2869
a(Von
Vgone
g2868
Vb
g2855
I3
g5
tp2870
a(Vunsaid
p2871
Vdead
Vabab
p2872
Va
g2855
I4
g5
tp2873
a(Vsay
Vaye
g2872
Vb
g2855
I4
g5
tp2874
a(Vturning
p2875
Vburning
p2876
Vabab
p2877
Va
VMore Poems, XLIII
p2878
I0
g5
tp2879
a(Vheight
p2880
Vnight
g2877
Vb
g2878
I0
g5
tp2881
a(Vstation
p2882
Vconflagration
p2883
Vabab
p2884
Va
g2878
I1
g5
tp2885
a(Vflare
Vair
g2884
Vb
g2878
I1
g5
tp2886
a(Vwarning
p2887
Vmorning
p2888
Vabab
p2889
Va
g2878
I2
g5
tp2890
a(Vregard
Vruinward
g2889
Vb
g2878
I2
g5
tp2891
a(Vshore
Vbore
Vababcdcd
p2892
Va
VMore Poems, XLIV
p2893
I0
g5
tp2894
a(Vwell
Vfell
g2892
Vb
g2893
I0
g5
tp2895
a(VTriest
p2896
Vwest
p2897
g2892
Vc
g2893
I0
g5
tp2898
a(Vbe
Vsea
g2892
Vd
g2893
I0
g5
tp2899
a(Vdispersed
p2900
Vfirst
p2901
Vababcdcd
p2902
Va
g2893
I1
g5
tp2903
a(Vamain
Vagain
g2902
Vb
g2893
I1
g5
tp2904
a(Vday
p2905
Vaway
p2906
g2902
Vc
g2893
I1
g5
tp2907
a(Vtolls
p2908
Vshoals
g2902
Vd
g2893
I1
g5
tp2909
a(Vsouth
Vmouth
p2910
Vababcdcd
p2911
Va
g2893
I2
g5
tp2912
a(Vwest
VTriest
g2911
Vb
g2893
I2
g5
tp2913
a(Vwell
Vfell
p2914
g2911
Vc
g2893
I2
g5
tp2915
a(Vthee
Vme
g2911
Vd
g2893
I2
g5
tp2916
a(Vland
p2917
Vsand
Vaabb
p2918
Va
VMore Poems, XLV
p2919
I0
g5
tp2920
a(Vdays
p2921
Vplays
g2918
Vb
g2919
I0
g5
tp2922
a(Vfound
p2923
Vmound
Vaabb
p2924
Va
g2919
I1
g5
tp2925
a(Vscore
p2926
Vshore
g2924
Vb
g2919
I1
g5
tp2927
a(Vsand
Vland
Vaabb
p2928
Va
g2919
I2
g5
tp2929
a(Vwrite
p2930
Vnight
g2928
Vb
g2919
I2
g5
tp2931
a(Vgrave
p2932
Vwave
Vaabb
p2933
Va
g2919
I3
g5
tp2934
a(Vdesign
p2935
Vmine
g2933
Vb
g2919
I3
g5
tp2936
a(VRome
p2937
Vfoam
Vaabb
p2938
Va
g2919
I4
g5
tp2939
a(Vstay
p2940
Vaye
g2938
Vb
g2919
I4
g5
tp2941
a(Vhand
Vsand
Vaabbcc
p2942
Va
g2919
I5
g5
tp2943
a(Vfast
p2944
Vlast
p2945
g2942
Vb
g2919
I5
g5
tp2946
a(Vvain
Vmain
g2942
Vc
g2919
I5
g5
tp2947
a(Vme
Vsea
Vabcb
p2948
Vb
VMore Poems, XLVI
p2949
I0
g5
tp2950
a(Vsky
p2951
VI
Vabcbdefeghih
p2952
Vb
g2949
I1
g5
tp2953
a(Vcold
Vgold
g2952
Ve
g2949
I1
g5
tp2954
a(Vshe
Vsea
g2952
Vh
g2949
I1
g5
tp2955
a(Vsail
p2956
Vtrail
Vabcbdefe
p2957
Vb
g2949
I2
g5
tp2958
a(Vleave
Veve
g2957
Ve
g2949
I2
g5
tp2959
a(Vbehold
p2960
Vgold
Vabcbdefeghih
p2961
Vb
g2949
I3
g5
tp2962
a(Vflame
Vcame
g2961
Ve
g2949
I3
g5
tp2963
a(Vsea
Vme
g2961
Vh
g2949
I3
g5
tp2964
a(Vheat
Vsaid
Vabcbdefe
p2965
Vb
g2949
I4
g5
tp2966
a(Vhe
p2967
Vsea
g2965
Ve
g2949
I4
g5
tp2968
a(Vroam
Vhome
Vabcb
Vb
VMore Poems, XLVII
p2969
I0
g5
tp2970
a(Vmade
Vshade
Vabcb
Vb
g2969
I1
g5
tp2971
a(Vrestore
p2972
Vmore
Vabcb
p2973
Vb
g2969
I2
g5
tp2974
a(Vrelease
Vpeace
Vaabccb
p2975
Va
VMore Poems, XLVII
p2976
I0
g5
tp2977
a(Vyours
Vendures
g2975
Vb
g2976
I0
g5
tp2978
a(Vland
Vstand
g2975
Vc
g2976
I0
g5
tp2979
a(Vflee
Vsea
p2980
Vaabccb
p2981
Va
g2976
I1
g5
tp2982
a(Vfound
Vsound
g2981
Vb
g2976
I1
g5
tp2983
a(Vburn
Vconcern
g2981
Vc
g2976
I1
g5
tp2984
a(Vriver
Vquiver
p2985
Vabab
p2986
Va
VAdditional Poems, I
p2987
I0
g5
tp2988
a(Vloam
Vhome
g2986
Vb
g2987
I0
g5
tp2989
a(Veven
p2990
Vheaving
Vabab
p2991
Va
g2987
I1
g5
tp2992
a(Vdown
Vtown
g2991
Vb
g2987
I1
g5
tp2993
a(Vladen
p2994
Vmaiden
p2995
Vabab
p2996
Va
g2987
I2
g5
tp2997
a(Vride
Vside
g2996
Vb
g2987
I2
g5
tp2998
a(Vfountain
p2999
Vmountain
Vabab
p3000
Va
g2987
I3
g5
tp3001
a(Vvein
Vplain
g3000
Vb
g2987
I3
g5
tp3002
a(Vstranger
p3003
Vdanger
Vabab
p3004
Va
g2987
I4
g5
tp3005
a(Vtrim
Vhim
g3004
Vb
g2987
I4
g5
tp3006
a(Vadvances
Vlances
Vabab
p3007
Va
g2987
I5
g5
tp3008
a(V-
Vgold
g3007
Vb
g2987
I5
g5
tp3009
a(Vending
p3010
Vwending
Vabab
p3011
Va
g2987
I6
g5
tp3012
a(Von
Vyon
g3011
Vb
g2987
I6
g5
tp3013
a(Vwhining
Vshining
Vabab
p3014
Va
g2987
I7
g5
tp3015
a(Vbeside
Vpride
g3014
Vb
g2987
I7
g5
tp3016
a(Vtogether
Vweather
p3017
Vabab
p3018
Va
VAdditional Poems, II
p3019
I0
g5
tp3020
a(Vmain
VSpain
g3018
Vb
g3019
I0
g5
tp3021
a(Vtogether
Vheather
p3022
Vabab
p3023
Va
g3019
I1
g5
tp3024
a(Vleave
Veve
g3023
Vb
g3019
I1
g5
tp3025
a(Vasunder
p3026
Vplunder
Vabab
p3027
Va
g3019
I2
g5
tp3028
a(Vremain
Vslain
g3027
Vb
g3019
I2
g5
tp3029
a(Vyoung
Vhung
p3030
Vabab
p3031
Va
VAdditional Poems, III
p3032
I0
g5
tp3033
a(Vhe
Vtree
g3031
Vb
g3032
I0
g5
tp3034
a(Vday
Vsay
Vabab
p3035
Va
g3032
I1
g5
tp3036
a(Vwrong
Vlong
g3035
Vb
g3032
I1
g5
tp3037
a(Vrest
Vbreast
p3038
Vabab
p3039
Va
g3032
I2
g5
tp3040
a(Vstay
Vaway
g3039
Vb
g3032
I2
g5
tp3041
a(Vtender
Vlender
Vabab
p3042
Va
VAdditional Poems, IV
p3043
I0
g5
tp3044
a(Vcan
Vman
g3042
Vb
g3043
I0
g5
tp3045
a(Vborrow
p3046
Vto-morrow
Vabab
p3047
Va
g3043
I1
g5
tp3048
a(Vlend
Vend
g3047
Vb
g3043
I1
g5
tp3049
a(Vstronger
Vlonger
Vabab
p3050
Va
g3043
I2
g5
tp3051
a(Vstrong
Vlong
g3050
Vb
g3043
I2
g5
tp3052
a(Vseven
Vheaven
Vabab
p3053
Va
VAdditional Poems, V
p3054
I0
g5
tp3055
a(Vtrain
Vremain
g3053
Vb
g3054
I0
g5
tp3056
a(Vreply
p3057
VI
Vaaba
p3058
Va
VAdditional Poems, VI
p3059
I0
g5
tp3060
a(g3057
V-
g3058
Va
g3059
I0
g5
tp3061
a(VI
V-
g3058
Va
g3059
I0
g5
tp3062
a(Vstain
p3063
Vslain
Vabab
p3064
Va
g3059
I1
g5
tp3065
a(Vhigh
Vreply
g3064
Vb
g3059
I1
g5
tp3066
a(Vwonder
Vsunder
Vabab
p3067
Va
VAdditional Poems, VII
p3068
I0
g5
tp3069
a(Vgaze
Vways
g3067
Vb
g3068
I0
g5
tp3070
a(Vearth
p3071
Vbirth
p3072
Vabab
p3073
Va
VAdditional Poems, VIII
p3074
I0
g5
tp3075
a(Vta'en
Vagain
g3073
Vb
g3074
I0
g5
tp3076
a(Vtower
p3077
Vsour
p3078
Vabab
p3079
Va
VAdditional Poems, IX
p3080
I0
g5
tp3081
a(Vamid
Vdid
g3079
Vb
g3080
I0
g5
tp3082
a(Vhereafter
p3083
Vair
Vabab
p3084
Va
VAdditional Poems, X
p3085
I0
g5
tp3086
a(Vlie
Vsky
g3084
Vb
g3085
I0
g5
tp3087
a(Vstair
p3088
Vair
Vaabbccddeeff
p3089
Va
VAdditional Poems, XI
p3090
I0
g5
tp3091
a(Vstill
p3092
Vsill
g3089
S'b'
g3090
I0
g5
tp3093
a(Vblithe
p3094
Vscythe
g3089
S'c'
g3090
I0
g5
tp3095
a(Varound
p3096
Vground
g3089
S'd'
g3090
I0
g5
tp3097
a(Veast
Vleast
g3089
S'e'
g3090
I0
g5
tp3098
a(Vsow
p3099
Vgrow
p3100
g3089
S'f'
g3090
I0
g5
tp3101
a(Vwere
Vne'er
Vaabbccddee
p3102
Va
VAdditional Poems, XIA
p3103
I0
g5
tp3104
a(Vunbegot
p3105
Vnot
g3102
S'b'
g3103
I0
g5
tp3106
a(Vlit
Vit
g3102
S'c'
g3103
I0
g5
tp3107
a(Vlay
p3108
Vaye
g3102
S'd'
g3103
I0
g5
tp3109
a(Vlie
p3110
Vsky
g3102
S'e'
g3103
I0
g5
tp3111
a(Vway
Vstay
Vaabbcc
p3112
Va
VAdditional Poems, XII
p3113
I0
g5
tp3114
a(Vbrow
Vnow
g3112
S'b'
g3113
I0
g5
tp3115
a(Vfound
Vsound
g3112
S'c'
g3113
I0
g5
tp3116
a(Vmarching
p3117
Vparching
p3118
Vababb
p3119
Va
VAdditional Poems, XIII
p3120
I0
g5
tp3121
a(Vway
p3122
Vlay
p3123
g3119
Vb
g3120
I0
g5
tp3124
a(g3122
Vaway
p3125
g3119
Vb
g3120
I0
g5
tp3126
a(g3123
g3125
g3119
Vb
g3120
I0
g5
tp3127
a(Va-wooing
p3128
Vpursuing
Vababb
p3129
Va
g3120
I1
g5
tp3130
a(Vbed
p3131
Vdead
p3132
g3129
Vb
g3120
I1
g5
tp3133
a(g3131
Vinstead
p3134
g3129
Vb
g3120
I1
g5
tp3135
a(g3132
g3134
g3129
Vb
g3120
I1
g5
tp3136
a(Vnations
Vfoundations
Vabab
p3137
Va
VAdditional Poems, XIV
p3138
I0
g5
tp3139
a(Vmad
Vlad
g3137
Vb
g3138
I0
g5
tp3140
a(Vcalling
Vfalling
Vabab
p3141
Va
g3138
I1
g5
tp3142
a(Vfind
p3143
Vmind
g3141
Vb
g3138
I1
g5
tp3144
a(Vcrying
p3145
Vdying
Vabab
p3146
Va
g3138
I2
g5
tp3147
a(Vdespair
Vwere
g3146
Vb
g3138
I2
g5
tp3148
a(Vdarnels
p3149
Vcharnels
p3150
Vabab
p3151
Va
g3138
I3
g5
tp3152
a(Vman
Vcan
g3151
Vb
g3138
I3
g5
tp3153
a(VI
Vdie
Vaabb
p3154
Va
VAdditional Poems, XV
p3155
I0
g5
tp3156
a(Vgive
Vlive
g3154
Vb
g3155
I0
g5
tp3157
a(Vfear
Vyear
Vaabb
p3158
Va
g3155
I1
g5
tp3159
a(Vagain
Vpain
g3158
Vb
g3155
I1
g5
tp3160
a(Valoof
p3161
Vroof
Vaabb
p3162
Va
g3155
I2
g5
tp3163
a(Vstrong
Vlong
g3162
Vb
g3155
I2
g5
tp3164
a(Vthrust
Vdust
Vaabb
p3165
Va
g3155
I3
g5
tp3166
a(Vflawed
p3167
Vabroad
g3165
Vb
g3155
I3
g5
tp3168
a(Vfast
Vlast
p3169
Vaabb
p3170
Va
g3155
I4
g5
tp3171
a(Vspan
Vman
g3170
Vb
g3155
I4
g5
tp3172
a(Vsick
Vtrick
Vaabb
p3173
Va
VAdditional Poems, XVI
p3174
I0
g5
tp3175
a(Vbreath
Vdeath
g3173
Vb
g3174
I0
g5
tp3176
a(Vdo
Vtwo
Vaabb
p3177
Va
VAdditional Poems, XVII
p3178
I0
g5
tp3179
a(Vrest
Vbreast
g3177
Vb
g3178
I0
g5
tp3180
a(Vfree
Vme
Vaabb
p3181
Va
g3178
I1
g5
tp3182
a(Vbed
p3183
Vhead
g3181
Vb
g3178
I1
g5
tp3184
a(Vwrists
Vfists
Vaabb
p3185
Va
VAdditional Poems, XVIII
p3186
I0
g5
tp3187
a(Vair
Vhair
g3185
Vb
g3186
I0
g5
tp3188
a(Vhis
Vis
Vaabb
p3189
Va
g3186
I1
g5
tp3190
a(Vfair
p3191
Vhair
g3189
Vb
g3186
I1
g5
tp3192
a(Vpaid
p3193
Vshade
Vaabb
p3194
Va
g3186
I2
g5
tp3195
a(Vstare
Vhair
g3194
Vb
g3186
I2
g5
tp3196
a(Vfeet
p3197
Vheat
Vaabb
p3198
Va
g3186
I3
g5
tp3199
a(Vspare
p3200
Vhair
g3198
Vb
g3186
I3
g5
tp3201
a(Vrenown
p3202
Vdown
Vaabb
p3203
Va
VAdditional Poems, XIX
p3204
I0
g5
tp3205
a(Vroar
p3206
Vbefore
g3203
Vb
g3204
I0
g5
tp3207
a(Vfall
Vwall
Vaabb
p3208
Va
g3204
I1
g5
tp3209
a(Vresound
Vground
g3208
Vb
g3204
I1
g5
tp3210
a(Vafar
p3211
Vstar
Vaabb
p3212
Va
g3204
I2
g5
tp3213
a(Vpride
p3214
Vdied
g3212
Vb
g3204
I2
g5
tp3215
a(Vsong
p3216
Vlong
Vaabb
p3217
Va
g3204
I3
g5
tp3218
a(Vtrod
p3219
VGod
g3217
Vb
g3204
I3
g5
tp3220
a(Vyou
p3221
Vtrue
p3222
Vababbaba
p3223
Va
VAdditional Poems, XX
p3224
I0
g5
tp3225
a(g3221
Vdo
p3226
g3223
Va
g3224
I0
g5
tp3227
a(g3221
Vyou
p3228
g3223
Va
g3224
I0
g5
tp3229
a(Vmay
p3230
Vaway
p3231
g3223
Vb
g3224
I0
g5
tp3232
a(g3230
Vto-day
p3233
g3223
Vb
g3224
I0
g5
tp3234
a(g3230
Vaye
p3235
g3223
Vb
g3224
I0
g5
tp3236
a(g3222
g3226
g3223
Va
g3224
I0
g5
tp3237
a(g3222
g3228
g3223
Va
g3224
I0
g5
tp3238
a(g3231
g3233
g3223
Vb
g3224
I0
g5
tp3239
a(g3231
g3235
g3223
Vb
g3224
I0
g5
tp3240
a(g3233
g3235
g3223
Vb
g3224
I0
g5
tp3241
a(g3226
g3228
g3223
Va
g3224
I0
g5
tp3242
a(Vchilly
p3243
Vshrilly
p3244
Vabab
p3245
Va
VAdditional Poems, XXI
p3246
I0
g5
tp3247
a(Vmoon
Vtune
g3245
Vb
g3246
I0
g5
tp3248
a(Vstory
Vglory
p3249
Vabab
p3250
Va
g3246
I1
g5
tp3251
a(Vscored
VLord
g3250
Vb
g3246
I1
g5
tp3252
a(Vrafter
p3253
Vlaughter
p3254
Vabab
p3255
Va
g3246
I2
g5
tp3256
a(Vhigh
p3257
Vgood-bye
g3255
Vb
g3246
I2
g5
tp3258
a(Vplaces
p3259
Vfaces
p3260
Vabab
p3261
Va
g3246
I3
g5
tp3262
a(Vname
Vflame
g3261
Vb
g3246
I3
g5
tp3263
a(Vmitre
p3264
Vwhiter
p3265
Vabab
p3266
Va
g3246
I4
g5
tp3267
a(Vgem
Vthem
g3266
Vb
g3246
I4
g5
tp3268
a(Vvaulted
p3269
Vexalted
Vabab
p3270
Va
g3246
I5
g5
tp3271
a(Vconfessed
Vwest
g3270
Vb
g3246
I5
g5
tp3272
a(Voblation
Vlamentation
Vabab
p3273
Va
g3246
I6
g5
tp3274
a(Vhead
Vsaid
g3273
Vb
g3246
I6
g5
tp3275
a(Vsorrow
Vto-morrow
p3276
Vabab
p3277
Va
g3246
I7
g5
tp3278
a(Vthus
Vus
g3277
Vb
g3246
I7
g5
tp3279
a(Vborder
p3280
Vorder
p3281
Vabab
p3282
Va
g3246
I8
g5
tp3283
a(Vcold
Vold
g3282
Vb
g3246
I8
g5
tp3284
a(Vqueenly
p3285
Vkeenly
p3286
Vabab
p3287
Va
g3246
I9
g5
tp3288
a(Valight
Vto-night
g3287
Vb
g3246
I9
g5
tp3289
a(Vappointed
p3290
Vdisanointed
p3291
Vabab
p3292
Va
g3246
I10
g5
tp3293
a(Vrun
Vdone
g3292
Vb
g3246
I10
g5
tp3294
a(Vportal
Vimmortal
p3295
Vabab
p3296
Va
g3246
I11
g5
tp3297
a(Vsky
Vdie
g3296
Vb
g3246
I11
g5
tp3298
a(Vpraying
Vsaying
p3299
Vabab
p3300
Va
g3246
I12
g5
tp3301
a(Vrest
Vwest
g3300
Vb
g3246
I12
g5
tp3302
a(Vpsalters
Valtars
p3303
Vabab
p3304
Va
g3246
I13
g5
tp3305
a(Vfarewells
Vknells
g3304
Vb
g3246
I13
g5
tp3306
a(Vsea
Vquay
p3307
Vabab
p3308
Va
VAdditional Poems, XXII
p3309
I0
g5
tp3310
a(Vfurled
p3311
Vworld
g3308
Vb
g3309
I0
g5
tp3312
a(Vhill
Vwill
p3313
Vabab
p3314
Va
g3309
I1
g5
tp3315
a(Vsnare
p3316
Vair
g3314
Vb
g3309
I1
g5
tp3317
a(Vfree
Vsea
Vabab
p3318
Va
g3309
I2
g5
tp3319
a(Vstill
Vhill
g3318
Vb
g3309
I2
g5
tp3320
a(Vsure
Vendure
Vabcb
p3321
Vb
VAdditional Poems, XXIII
p3322
I0
g5
tp3323
a(Vdied
p3324
Vabide
Vabcb
p3325
Vb
g3322
I1
g5
tp3326
a(Vwave
Vgrave
Vabcb
p3327
Vb
g3322
I2
g5
tp3328
a.