(lp1
(Vreworded
p2
Vaccorded
Vababbcc
p3
Va
VA Lover's Complaint
p4
I0
VWilliam Shakespeare
p5
tp6
a(Vvale
p7
Vtale
p8
g3
Vb
g4
I0
g5
tp9
a(g7
Vpale
p10
g3
Vb
g4
I0
g5
tp11
a(g8
g10
g3
Vb
g4
I0
g5
tp12
a(Va-twain
Vrain
g3
Vc
g4
I0
g5
tp13
a(Vstraw
Vsaw
p14
Vababbcc
p15
Va
g4
I1
g5
tp16
a(Vsun
p17
Vdone
p18
g15
Vb
g4
I1
g5
tp19
a(g17
Vbegun
p20
g15
Vb
g4
I1
g5
tp21
a(g18
g20
g15
Vb
g4
I1
g5
tp22
a(Vrage
Vage
g15
Vc
g4
I1
g5
tp23
a(Veyne
Vbrine
p24
Vababbcc
p25
Va
g4
I2
g5
tp26
a(Vcharacters
p27
Vtears
p28
g25
Vb
g4
I2
g5
tp29
a(g27
Vbears
p30
g25
Vb
g4
I2
g5
tp31
a(g28
g30
g25
Vb
g4
I2
g5
tp32
a(Vwoe
Vlow
g25
Vc
g4
I2
g5
tp33
a(Vride
Vtied
p34
Vababbcc
p35
Va
g4
I3
g5
tp36
a(Vintend
p37
Vextend
p38
g35
Vb
g4
I3
g5
tp39
a(g37
Vlend
p40
g35
Vb
g4
I3
g5
tp41
a(g38
g40
g35
Vb
g4
I3
g5
tp42
a(Vfix'd
Vcommix'd
g35
Vc
g4
I3
g5
tp43
a(Vplat
Vhat
Vababbcc
p44
Va
g4
I4
g5
tp45
a(Vpride
p46
Vbeside
p47
g44
Vb
g4
I4
g5
tp48
a(g46
Vbide
p49
g44
Vb
g4
I4
g5
tp50
a(g47
g49
g44
Vb
g4
I4
g5
tp51
a(Vthence
Vnegligence
g44
Vc
g4
I4
g5
tp52
a(Vdrew
p53
Vthrew
Vababbcc
p54
Va
g4
I5
g5
tp55
a(Vjet
p56
Vset
p57
g54
Vb
g4
I5
g5
tp58
a(g56
Vwet
p59
g54
Vb
g4
I5
g5
tp60
a(g57
g59
g54
Vb
g4
I5
g5
tp61
a(Vfall
p62
Vall
g54
Vc
g4
I5
g5
tp63
a(Vone
Vbone
p64
Vababbcc
p65
Va
g4
I6
g5
tp66
a(Vflood
p67
Vmud
p68
g65
Vb
g4
I6
g5
tp69
a(g67
Vblood
p70
g65
Vb
g4
I6
g5
tp71
a(g68
g70
g65
Vb
g4
I6
g5
tp72
a(Vaffectedly
p73
Vsecrecy
g65
Vc
g4
I6
g5
tp74
a(Veyes
Vlies
Vababbcc
p75
Va
g4
I7
g5
tp76
a(Vtear
p77
Vbear
p78
g75
Vb
g4
I7
g5
tp79
a(g77
Vhere
p80
g75
Vb
g4
I7
g5
tp81
a(g78
g80
g75
Vb
g4
I7
g5
tp82
a(Vrents
Vcontents
g75
Vc
g4
I7
g5
tp83
a(Vnigh
Vby
p84
Vababbcc
p85
Va
g4
I8
g5
tp86
a(Vknew
p87
Vflew
p88
g85
Vb
g4
I8
g5
tp89
a(g87
Vdrew
p90
g85
Vb
g4
I8
g5
tp91
a(g88
g90
g85
Vb
g4
I8
g5
tp92
a(Vknow
p93
Vwoe
g85
Vc
g4
I8
g5
tp94
a(Vbat
Vsat
Vababbcc
p95
Va
g4
I9
g5
tp96
a(Vside
p97
Vdivide
p98
g95
Vb
g4
I9
g5
tp99
a(g97
Vapplied
p100
g95
Vb
g4
I9
g5
tp101
a(g98
g100
g95
Vb
g4
I9
g5
tp102
a(Vassuage
Vage
g95
Vc
g4
I9
g5
tp103
a(Vbehold
p104
Vold
Vababbcc
p105
Va
g4
I10
g5
tp106
a(Vhour
p107
Vpower
p108
g105
Vb
g4
I10
g5
tp109
a(g107
Vflower
p110
g105
Vb
g4
I10
g5
tp111
a(g108
g110
g105
Vb
g4
I10
g5
tp112
a(Vself-applied
p113
Vbeside
g105
Vc
g4
I10
g5
tp114
a(Vattended
p115
Vcommended
Vababbcc
p116
Va
g4
I11
g5
tp117
a(Vgrace
p118
Vface
p119
g116
Vb
g4
I11
g5
tp120
a(g118
Vplace
p121
g116
Vb
g4
I11
g5
tp122
a(g119
g121
g116
Vb
g4
I11
g5
tp123
a(Vabide
Vdeified
g116
Vc
g4
I11
g5
tp124
a(Vcurls
Vhurls
Vababbcc
p125
Va
g4
I12
g5
tp126
a(Vwind
p127
Vfind
p128
g125
Vb
g4
I12
g5
tp129
a(g127
Vmind
p130
g125
Vb
g4
I12
g5
tp131
a(g128
g130
g125
Vb
g4
I12
g5
tp132
a(Vdrawn
p133
Vsawn
g125
Vc
g4
I12
g5
tp134
a(Vchin
Vskin
p135
Vababbcc
p136
Va
g4
I13
g5
tp137
a(Vappear
p138
Vwear
p139
g136
Vb
g4
I13
g5
tp140
a(g138
Vdear
p141
g136
Vb
g4
I13
g5
tp142
a(g139
g141
g136
Vb
g4
I13
g5
tp143
a(Vdoubt
p144
Vwithout
g136
Vc
g4
I13
g5
tp145
a(Vform
Vstorm
p146
Vababbcc
p147
Va
g4
I14
g5
tp148
a(Vfree
p149
Vsee
p150
g147
Vb
g4
I14
g5
tp151
a(g149
Vbe
p152
g147
Vb
g4
I14
g5
tp153
a(g150
g152
g147
Vb
g4
I14
g5
tp154
a(Vyouth
p155
Vtruth
g147
Vc
g4
I14
g5
tp156
a(Vsay
p157
Vsway
Vababbcc
p158
Va
g4
I15
g5
tp159
a(Vtakes
p160
Vmakes
p161
g158
Vb
g4
I15
g5
tp162
a(g160
Vtakes
p163
g158
Vb
g4
I15
g5
tp164
a(g161
g163
g158
Vb
g4
I15
g5
tp165
a(Vdeed
Vsteed
g158
Vc
g4
I15
g5
tp166
a(Vwent
Vornament
Vababbcc
p167
Va
g4
I16
g5
tp168
a(Vgrace
p169
Vcase
p170
g167
Vb
g4
I16
g5
tp171
a(g169
Vplace
p172
g167
Vb
g4
I16
g5
tp173
a(g170
g172
g167
Vb
g4
I16
g5
tp174
a(Vtrim
p175
Vhim
g167
Vc
g4
I16
g5
tp176
a(Vtongue
p177
Vstrong
Vababbcc
p178
Va
g4
I17
g5
tp179
a(Vdeep
p180
Vsleep
p181
g178
Vb
g4
I17
g5
tp182
a(g180
Vweep
p183
g178
Vb
g4
I17
g5
tp184
a(g181
g183
g178
Vb
g4
I17
g5
tp185
a(Vskill
Vwill
g178
Vc
g4
I17
g5
tp186
a(Vreign
p187
Vremain
p188
Vababbcc
p189
Va
g4
I18
g5
tp190
a(Venchanted
p191
Vhaunted
p192
g189
Vb
g4
I18
g5
tp193
a(g191
Vgranted
p194
g189
Vb
g4
I18
g5
tp195
a(g192
g194
g189
Vb
g4
I18
g5
tp196
a(Vsay
Vobey
g189
Vc
g4
I18
g5
tp197
a(Vget
Vset
p198
Vababbcc
p199
Va
g4
I19
g5
tp200
a(Vmind
p201
Vfind
p202
g199
Vb
g4
I19
g5
tp203
a(g201
Vassign'd
p204
g199
Vb
g4
I19
g5
tp205
a(g202
g204
g199
Vb
g4
I19
g5
tp206
a(Vthem
p207
Vthem
g199
Vc
g4
I19
g5
tp208
a(Vhand
Vstand
Vababbcc
p209
Va
g4
I20
g5
tp210
a(Vheart
p211
Vpart
p212
g209
Vb
g4
I20
g5
tp213
a(g211
Vart
p214
g209
Vb
g4
I20
g5
tp215
a(g212
g214
g209
Vb
g4
I20
g5
tp216
a(Vpower
Vflower
g209
Vc
g4
I20
g5
tp217
a(Vdid
Vforbid
Vababbcc
p218
Va
g4
I21
g5
tp219
a(Vyielded
p220
Vshielded
p221
g218
Vb
g4
I21
g5
tp222
a(g220
Vbuilded
p223
g218
Vb
g4
I21
g5
tp224
a(g221
g223
g218
Vb
g4
I21
g5
tp225
a(Vfoil
p226
Vspoil
g218
Vc
g4
I21
g5
tp227
a(Vprecedent
p228
Vcontent
Vababbcc
p229
Va
g4
I22
g5
tp230
a(Vassay
p231
Vway
p232
g229
Vb
g4
I22
g5
tp233
a(g231
Vstay
p234
g229
Vb
g4
I22
g5
tp235
a(g232
g234
g229
Vb
g4
I22
g5
tp236
a(Vseen
p237
Vkeen
g229
Vc
g4
I22
g5
tp238
a(Vblood
Vgood
Vababbcc
p239
Va
g4
I23
g5
tp240
a(Vproof
p241
Vbehoof
p242
g239
Vb
g4
I23
g5
tp243
a(g241
Valoof
p244
g239
Vb
g4
I23
g5
tp245
a(g242
g244
g239
Vb
g4
I23
g5
tp246
a(Vtaste
Vlast
g239
Vc
g4
I23
g5
tp247
a(Vuntrue
Vgrew
Vababbcc
p248
Va
g4
I24
g5
tp249
a(Vbeguiling
p250
Vsmiling
p251
g248
Vb
g4
I24
g5
tp252
a(g250
Vdefiling
p253
g248
Vb
g4
I24
g5
tp254
a(g251
g253
g248
Vb
g4
I24
g5
tp255
a(Vart
Vheart
g248
Vc
g4
I24
g5
tp256
a(Vcity
Vpity
Vababbcc
p257
Va
g4
I25
g5
tp258
a(Vmaid
p259
Vafraid
p260
g257
Vb
g4
I25
g5
tp261
a(g259
Vsaid
p262
g257
Vb
g4
I25
g5
tp263
a(g260
g262
g257
Vb
g4
I25
g5
tp264
a(Vunto
Vwoo
g257
Vc
g4
I25
g5
tp265
a(Vsee
p266
Vbe
Vababbcc
p267
Va
g4
I26
g5
tp268
a(Vmind
p269
Vkind
p270
g267
Vb
g4
I26
g5
tp271
a(g269
Vfind
p272
g267
Vb
g4
I26
g5
tp273
a(g270
g272
g267
Vb
g4
I26
g5
tp274
a(Vremains
Vcontains
g267
Vc
g4
I26
g5
tp275
a(Vseen
Vteen
Vababbcc
p276
Va
g4
I27
g5
tp277
a(Vwarm'd
p278
Vcharm'd
p279
g276
Vb
g4
I27
g5
tp280
a(g278
Vharm'd
p281
g276
Vb
g4
I27
g5
tp282
a(g279
g281
g276
Vb
g4
I27
g5
tp283
a(Vfree
Vmonarchy
g276
Vc
g4
I27
g5
tp284
a(Vme
Vme
p285
Vababbcc
p286
Va
g4
I28
g5
tp287
a(Vblood
p288
Vunderstood
p289
g286
Vb
g4
I28
g5
tp290
a(g288
Vmood
p291
g286
Vb
g4
I28
g5
tp292
a(g289
g291
g286
Vb
g4
I28
g5
tp293
a(Vmodesty
Voutwardly
g286
Vc
g4
I28
g5
tp294
a(Vhair
Vfair
Vababbcc
p295
Va
g4
I29
g5
tp296
a(Vimpleach'd
p297
Vbeseech'd
p298
g295
Vb
g4
I29
g5
tp299
a(g297
Venrich'd
p300
g295
Vb
g4
I29
g5
tp301
a(g298
g300
g295
Vb
g4
I29
g5
tp302
a(Vamplify
p303
Vquality
g295
Vc
g4
I29
g5
tp304
a(Vhard
Vregard
p305
Vababbcc
p306
Va
g4
I30
g5
tp307
a(Vtend
p308
Vamend
p309
g306
Vb
g4
I30
g5
tp310
a(g308
Vblend
p311
g306
Vb
g4
I30
g5
tp312
a(g309
g311
g306
Vb
g4
I30
g5
tp313
a(Vstone
Vmoan
g306
Vc
g4
I30
g5
tp314
a(Vhot
Vnot
Vababbcc
p315
Va
g4
I31
g5
tp316
a(Vtender
p317
Vrender
p318
g315
Vb
g4
I31
g5
tp319
a(g317
Vender
p320
g315
Vb
g4
I31
g5
tp321
a(g318
g320
g315
Vb
g4
I31
g5
tp322
a(Vbe
Vme
g315
Vc
g4
I31
g5
tp323
a(Vhand
Vcommand
Vababbcc
p324
Va
g4
I32
g5
tp325
a(Vpraise
p326
Vraise
p327
g324
Vb
g4
I32
g5
tp328
a(g326
Vobeys
p329
g324
Vb
g4
I32
g5
tp330
a(g327
g329
g324
Vb
g4
I32
g5
tp331
a(Vcomes
p332
Vsums
g324
Vc
g4
I32
g5
tp333
a(Vnun
Vshun
Vababbcc
p334
Va
g4
I33
g5
tp335
a(Vnote
p336
Vdote
p337
g334
Vb
g4
I33
g5
tp338
a(g336
Vcoat
p339
g334
Vb
g4
I33
g5
tp340
a(g337
g339
g334
Vb
g4
I33
g5
tp341
a(Vremove
Vlove
g334
Vc
g4
I33
g5
tp342
a(Vleave
p343
Vreceive
Vababbcc
p344
Va
g4
I34
g5
tp345
a(Vstrives
p346
Vgyves
p347
g344
Vb
g4
I34
g5
tp348
a(g346
Vcontrives
p349
g344
Vb
g4
I34
g5
tp350
a(g347
g349
g344
Vb
g4
I34
g5
tp351
a(Vflight
Vmight
g344
Vc
g4
I34
g5
tp352
a(Vtrue
Vsubdue
Vababbcc
p353
Va
g4
I35
g5
tp354
a(Veye
p355
Vfly
p356
g353
Vb
g4
I35
g5
tp357
a(g355
Veye
p358
g353
Vb
g4
I35
g5
tp359
a(g356
g358
g353
Vb
g4
I35
g5
tp360
a(Vimmured
Vprocured
g353
Vc
g4
I35
g5
tp361
a(Vtell
Vwell
Vababbcc
p362
Va
g4
I36
g5
tp363
a(Vbelong
p364
Vamong
p365
g362
Vb
g4
I36
g5
tp366
a(g364
Vstrong
p367
g362
Vb
g4
I36
g5
tp368
a(g365
g367
g362
Vb
g4
I36
g5
tp369
a(Vcongest
Vbreast
g362
Vc
g4
I36
g5
tp370
a(Vnun
Vbegun
Vababbcc
p371
Va
g4
I37
g5
tp372
a(Vgrace
p373
Vplace
p374
g371
Vb
g4
I37
g5
tp375
a(g373
Vspace
p376
g371
Vb
g4
I37
g5
tp377
a(g374
g376
g371
Vb
g4
I37
g5
tp378
a(Vconfine
Vthine
g371
Vc
g4
I37
g5
tp379
a(Vworth
p380
Vforth
p381
Vababbcc
p382
Va
g4
I38
g5
tp383
a(Vinflame
p384
Vfame
p385
g382
Vb
g4
I38
g5
tp386
a(g384
Vshame
p387
g382
Vb
g4
I38
g5
tp388
a(g385
g387
g382
Vb
g4
I38
g5
tp389
a(Vbears
Vfears
g382
Vc
g4
I38
g5
tp390
a(Vdepend
Vextend
Vababbcc
p391
Va
g4
I39
g5
tp392
a(Vpine
p393
Vmine
p394
g391
Vb
g4
I39
g5
tp395
a(g393
Vdesign
p396
g391
Vb
g4
I39
g5
tp397
a(g394
g396
g391
Vb
g4
I39
g5
tp398
a(Voath
p399
Vtroth
g391
Vc
g4
I39
g5
tp400
a(Vdismount
Vfount
p401
Vababbcc
p402
Va
g4
I40
g5
tp403
a(Vface
p404
Vapace
p405
g402
Vb
g4
I40
g5
tp406
a(g404
Vgrace
p407
g402
Vb
g4
I40
g5
tp408
a(g405
g407
g402
Vb
g4
I40
g5
tp409
a(Vroses
p410
Vencloses
g402
Vc
g4
I40
g5
tp411
a(Vlies
p412
Veyes
p413
Vababbcc
p414
Va
g4
I41
g5
tp415
a(Vtear
p416
Vwear
p417
g414
Vb
g4
I41
g5
tp418
a(g416
Vhere
p419
g414
Vb
g4
I41
g5
tp420
a(g417
g419
g414
Vb
g4
I41
g5
tp421
a(Vwrath
Vhath
g414
Vc
g4
I41
g5
tp422
a(Vcraft
Vdaff'd
Vababbcc
p423
Va
g4
I42
g5
tp424
a(Vtears
p425
Vfears
p426
g423
Vb
g4
I42
g5
tp427
a(g425
Vappears
p428
g423
Vb
g4
I42
g5
tp429
a(g426
g428
g423
Vb
g4
I42
g5
tp430
a(Vbore
Vrestore
g423
Vc
g4
I42
g5
tp431
a(Vmatter
Vwater
Vababbcc
p432
Va
g4
I43
g5
tp433
a(Vreceives
p434
Vleaves
p435
g432
Vb
g4
I43
g5
tp436
a(g434
Vdeceives
p437
g432
Vb
g4
I43
g5
tp438
a(g435
g437
g432
Vb
g4
I43
g5
tp439
a(Vwoes
Vshows
g432
Vc
g4
I43
g5
tp440
a(Vcame
p441
Vtame
Vababbcc
p442
Va
g4
I44
g5
tp443
a(Vaim
p444
Vmaim
p445
g442
Vb
g4
I44
g5
tp446
a(g444
Vexclaim
p447
g442
Vb
g4
I44
g5
tp448
a(g445
g447
g442
Vb
g4
I44
g5
tp449
a(Vluxury
Vchastity
g442
Vc
g4
I44
g5
tp450
a(VGrace
p451
Vplace
Vababbcc
p452
Va
g4
I45
g5
tp453
a(Vcover'd
p454
Vhover'd
p455
g452
Vb
g4
I45
g5
tp456
a(g454
Vlover'd
p457
g452
Vb
g4
I45
g5
tp458
a(g455
g457
g452
Vb
g4
I45
g5
tp459
a(Vmake
p460
Vsake
g452
Vc
g4
I45
g5
tp461
a(Veye
Vfly
Vababbcc
p462
Va
g4
I46
g5
tp463
a(Vglow'd
p464
Vbestow'd
p465
g462
Vb
g4
I46
g5
tp466
a(g464
Vowed
p467
g462
Vb
g4
I46
g5
tp468
a(g465
g467
g462
Vb
g4
I46
g5
tp469
a(Vfore-betray'd
Vmaid
g462
Vc
g4
I46
g5
tp470
a(Vtruth
Vyouth
Vababcdcdefefgg
p471
Va
VThe Passionate Pilgrim, I
p472
I0
g5
tp473
a(Vlies
Vforgeries
g471
Vb
g472
I0
g5
tp474
a(Vyoung
Vtongue
g471
Vc
g472
I0
g5
tp475
a(Vbest
Vrest
g471
Vd
g472
I0
g5
tp476
a(Vyoung
Vtongue
g471
Ve
g472
I0
g5
tp477
a(Vold
Vtold
g471
Vf
g472
I0
g5
tp478
a(Vme
Vbe
g471
Vg
g472
I0
g5
tp479
a(Vdespair
Vfair
Vababcdcdefefgg
p480
Va
VThe Passionate Pilgrim, II
p481
I0
g5
tp482
a(Vstill
Vill
g480
Vb
g481
I0
g5
tp483
a(Vevil
p484
Vdevil
g480
Vc
g481
I0
g5
tp485
a(Vside
Vpride
g480
Vd
g481
I0
g5
tp486
a(Vfiend
Vfriend
g480
Ve
g481
I0
g5
tp487
a(Vtell
Vhell
g480
Vf
g481
I0
g5
tp488
a(Vdoubt
Vout
g480
Vg
g481
I0
g5
tp489
a(Veye
Vperjury
Vababcdcdefefgg
p490
Va
VThe Passionate Pilgrim, III
p491
I0
g5
tp492
a(Vargument
Vpunishment
g490
Vb
g491
I0
g5
tp493
a(Vprove
Vlove
g490
Vc
g491
I0
g5
tp494
a(Vthee
Vme
g490
Vd
g491
I0
g5
tp495
a(Vis
Vis
g490
Ve
g491
I0
g5
tp496
a(Vshine
Vmine
g490
Vf
g491
I0
g5
tp497
a(Vwise
p498
Vparadise
g490
Vg
g491
I0
g5
tp499
a(Vbrook
p500
Vlook
Vababcdcdefefgg
p501
Va
VThe Passionate Pilgrim, IV
p502
I0
g5
tp503
a(Vgreen
Vqueen
g501
Vb
g502
I0
g5
tp504
a(Vear
Vthere
g501
Vc
g502
I0
g5
tp505
a(Veye
Vchastity
g501
Vd
g502
I0
g5
tp506
a(Vconceit
Vbait
g501
Ve
g502
I0
g5
tp507
a(Vproffer
Voffer
g501
Vf
g502
I0
g5
tp508
a(Vtoward
Vfroward
g501
Vg
g502
I0
g5
tp509
a(Vlove
Vprove
Vababcdcdefefgg
p510
Va
VThe Passionate Pilgrim, V
p511
I0
g5
tp512
a(Vvow'd
Vbow'd
g510
Vb
g511
I0
g5
tp513
a(Veyes
Vsuffice
g510
Vc
g511
I0
g5
tp514
a(Vcomprehend
Vcommend
g510
Vd
g511
I0
g5
tp515
a(Vwonder
Vthunder
g510
Ve
g511
I0
g5
tp516
a(Vadmire
Vfire
g510
Vf
g511
I0
g5
tp517
a(Vwrong
Vtongue
g510
Vg
g511
I0
g5
tp518
a(Vmorn
Vforlorn
Vababcdcdefefgg
p519
Va
VThe Passionate Pilgrim, VI
p520
I0
g5
tp521
a(Vshade
Vmade
p522
g519
Vb
g520
I0
g5
tp523
a(Vbrook
Vlook
p524
g519
Vc
g520
I0
g5
tp525
a(Vspleen
Vbeen
g519
Vd
g520
I0
g5
tp526
a(Vby
Veye
g519
Ve
g520
I0
g5
tp527
a(Vbrim
Vhim
g519
Vf
g520
I0
g5
tp528
a(Vstood
Vflood
g519
Vg
g520
I0
g5
tp529
a(Vfickle
Vbrittle
Vababcc
p530
Va
VThe Passionate Pilgrim, VII
p531
I0
g5
tp532
a(Vtrusty
Vrusty
g530
Vb
g531
I0
g5
tp533
a(Vher
Vher
g530
Vc
g531
I0
g5
tp534
a(Vjoined
Vcoined
Vababcc
p535
Va
g531
I1
g5
tp536
a(Vswearing
Vfearing
g535
Vb
g531
I1
g5
tp537
a(Vprotestings
Vjestings
g535
Vc
g531
I1
g5
tp538
a(Vflameth
Vframing
Vababcc
p539
Va
g531
I2
g5
tp540
a(Voutburneth
Va-turning
g539
Vb
g531
I2
g5
tp541
a(Vwhether
Vneither
g539
Vc
g531
I2
g5
tp542
a(Vagree
Vme
Vababcdcdefefgg
p543
Va
VThe Passionate Pilgrim, VIII
p544
I0
g5
tp545
a(Vbrother
Vother
g543
Vb
g544
I0
g5
tp546
a(Vtouch
p547
Vsuch
p548
g543
Vc
g544
I0
g5
tp549
a(Vsense
Vdefence
g543
Vd
g544
I0
g5
tp550
a(Vsound
p551
Vdrown'd
p552
g543
Ve
g544
I0
g5
tp553
a(Vmakes
Vbetakes
g543
Vf
g544
I0
g5
tp554
a(Vfeign
Vremain
g543
Vg
g544
I0
g5
tp555
a(Vvaded
Vshaded
Vababcc
p556
Va
VThe Passionate Pilgrim, IX
p557
I0
g5
tp558
a(Vspring
Vsting
g556
Vb
g557
I0
g5
tp559
a(Vtree
Vbe
g556
Vc
g557
I0
g5
tp560
a(Vhave
Vcrave
Vababcc
p561
Va
g557
I1
g5
tp562
a(Vwill
Vstill
g561
Vb
g557
I1
g5
tp563
a(Vthee
Vme
g561
Vc
g557
I1
g5
tp564
a(Vher
p565
Vher
Vababcdcdefefgg
p566
Va
VThe Passionate Pilgrim, X
p567
I0
g5
tp568
a(Vhim
Vhim
g566
Vb
g567
I0
g5
tp569
a(Vme
Vme
g566
Vc
g567
I0
g5
tp570
a(Varms
Vcharms
g566
Vd
g567
I0
g5
tp571
a(Vlips
Vskips
g566
Ve
g567
I0
g5
tp572
a(Vseizure
Vpleasure
g566
Vf
g567
I0
g5
tp573
a(Vbay
Vaway
g566
Vg
g567
I0
g5
tp574
a(Vtogether
Vweather
Vababcdcdefef
p575
Va
VThe Passionate Pilgrim, XI
p576
I0
g5
tp577
a(Vcare
Vbare
g575
Vb
g576
I0
g5
tp578
a(Vshort
Vcold
g575
Vc
g576
I0
g5
tp579
a(Vlame
Vtame
g575
Vd
g576
I0
g5
tp580
a(Vthee
Vthee
g575
Ve
g576
I0
g5
tp581
a(Vyoung
Vlong
g575
Vf
g576
I0
g5
tp582
a(Vgood
Vbud
Vababcc
p583
Va
VThe Passionate Pilgrim, XII
p584
I0
g5
tp585
a(Vsuddenly
Vpresently
g583
Vb
g584
I0
g5
tp586
a(Vflower
Vhour
g583
Vc
g584
I0
g5
tp587
a(Vfound
Vground
Vababcc
p588
Va
g584
I1
g5
tp589
a(Vrefresh
Vredress
g588
Vb
g584
I1
g5
tp590
a(Vlost
Vcost
g588
Vc
g584
I1
g5
tp591
a(Vshare
Vcare
Vababcc
p592
Va
VThe Passionate Pilgrim, XIII
p593
I0
g5
tp594
a(Vaway
Vdecay
g592
Vb
g593
I0
g5
tp595
a(Vtomorrow
Vsorrow
g592
Vc
g593
I0
g5
tp596
a(Vsmile
Vexile
Vababcc
p597
Va
g593
I1
g5
tp598
a(Vwhether
Vthither
g597
Vb
g593
I1
g5
tp599
a(Vmyself
Vpelf
g597
Vc
g593
I1
g5
tp600
a(Veast
Vrest
Vababcc
p601
Va
VThe Passionate Pilgrim, XIV
p602
I0
g5
tp603
a(Vrise
p604
Veyes
g601
Vb
g602
I0
g5
tp605
a(Vmark
Vlark
g601
Vc
g602
I0
g5
tp606
a(Vditty
Vpretty
Vababcc
p607
Va
g602
I1
g5
tp608
a(Vnight
Vsight
g607
Vb
g602
I1
g5
tp609
a(Vsorrow
Vtomorrow
g607
Vc
g602
I1
g5
tp610
a(Vsoon
Vmoon
Vababcc
p611
Va
g602
I2
g5
tp612
a(Vhours
Vflowers
g611
Vb
g602
I2
g5
tp613
a(Vborrow
Vtomorrow
g611
Vc
g602
I2
g5
tp614
a(Vthree
p615
Vbe
p616
Vaaab
p617
Va
VThe Passionate Pilgrim, XV
p618
I0
g5
tp619
a(g615
Vsee
p620
g617
Va
g618
I0
g5
tp621
a(g616
g620
g617
Va
g618
I0
g5
tp622
a(Vfight
p623
Vknight
p624
Vaaab
p625
Va
g618
I1
g5
tp626
a(g623
Vspite
p627
g625
Va
g618
I1
g5
tp628
a(g624
g627
g625
Va
g618
I1
g5
tp629
a(Vpain
p630
Vgain
p631
Vaaab
p632
Va
g618
I2
g5
tp633
a(g630
Vdisdain
p634
g632
Va
g618
I2
g5
tp635
a(g631
g634
g632
Va
g618
I2
g5
tp636
a(Vday
p637
Vaway
p638
Vaaab
p639
Va
g618
I3
g5
tp640
a(g637
Vgay
p641
g639
Va
g618
I3
g5
tp642
a(g638
g641
g639
Va
g618
I3
g5
tp643
a(Vday
VMay
Vaabbccddeeffgghhii
p644
Va
VThe Passionate Pilgrim, XVI
p645
I0
g5
tp646
a(Vfair
Vair
g644
S'b'
g645
I0
g5
tp647
a(Vwind
p648
Vfind
g644
S'c'
g645
I0
g5
tp649
a(Vdeath
Vbreath
g644
S'd'
g645
I0
g5
tp650
a(Vblow
Vso
g644
S'e'
g645
I0
g5
tp651
a(Vsworn
p652
Vthorn
g644
S'f'
g645
I0
g5
tp653
a(Vunmeet
Vsweet
g644
S'g'
g645
I0
g5
tp654
a(Vswear
p655
Vwere
g644
S'h'
g645
I0
g5
tp656
a(VJove
Vlove
g644
S'i'
g645
I0
g5
tp657
a(Vdame
Vblame
Vababcc
p658
Va
VThe Passionate Pilgrim, XVII
p659
I0
g5
tp660
a(Vstrike
Vmight
g658
Vb
g659
I0
g5
tp661
a(Vhead
Vunwed
g658
Vc
g659
I0
g5
tp662
a(Vstrength
Vlength
Vababcc
p663
Va
g659
I1
g5
tp664
a(Vnay
Vsay
g663
Vb
g659
I1
g5
tp665
a(Vmen
Vthen
g663
Vc
g659
I1
g5
tp666
a(Vways
Vpraise
Vababcc
p667
Va
g659
I2
g5
tp668
a(Vthere
p669
Vear
g667
Vb
g659
I2
g5
tp670
a(Vtown
Vdown
g667
Vc
g659
I2
g5
tp671
a(Vtrust
Vunjust
Vababcc
p672
Va
g659
I3
g5
tp673
a(Vtrue
Vanew
g672
Vb
g659
I3
g5
tp674
a(Vslack
p675
Vback
g672
Vc
g659
I3
g5
tp676
a(Vwork
Vlurk
Vababcc
p677
Va
g659
I4
g5
tp678
a(Vshow
Vknow
g677
Vb
g659
I4
g5
tp679
a(Voft
Vnought
g677
Vc
g659
I4
g5
tp680
a(Vmen
Vthen
Vababcc
p681
Va
g659
I5
g5
tp682
a(Vsaint
Vattaint
g681
Vb
g659
I5
g5
tp683
a(Vbed
Vwed
g681
Vc
g659
I5
g5
tp684
a(Vfear
p685
Vear
Vababcc
p686
Va
g659
I6
g5
tp687
a(Vsong
Vlong
g686
Vb
g659
I6
g5
tp688
a(Vsaid
Vbewray'd
g686
Vc
g659
I6
g5
tp689
a(Vlove
Vprove
p690
Vaabb
p691
Va
VThe Passionate Pilgrim, XVIII
p692
I0
g5
tp693
a(Vfields
Vyields
g691
Vb
g692
I0
g5
tp694
a(Vrocks
Vflocks
Vaabb
p695
Va
g692
I1
g5
tp696
a(Vfalls
p697
Vmadrigals
g695
Vb
g692
I1
g5
tp698
a(Vroses
Vposies
Vaabb
p699
Va
g692
I2
g5
tp700
a(Vkirtle
p701
Vmyrtle
g699
Vb
g692
I2
g5
tp702
a(Vbuds
Vstuds
Vaabb
p703
Va
g692
I3
g5
tp704
a(Vmove
Vlove
g703
Vb
g692
I3
g5
tp705
a(Vyoung
Vtongue
Vaabb
p706
Va
g692
I4
g5
tp707
a(Vmove
p708
Vlove
g706
Vb
g692
I4
g5
tp709
a(Vday
p710
VMay
Vaabbccddeeffgghhiijjkkllmmnnooppqqrrssttuuvvwwxxyyzz{{||}}
p711
Va
VThe Passionate Pilgrim, XIX
p712
I0
g5
tp713
a(Vshade
p714
Vmade
g711
S'b'
g712
I0
g5
tp715
a(Vsing
Vspring
g711
S'c'
g712
I0
g5
tp716
a(Vmoan
Valone
g711
S'd'
g712
I0
g5
tp717
a(Vforlorn
Vthorn
p718
g711
S'e'
g712
I0
g5
tp719
a(Vditty
Vpity
g711
S'f'
g712
I0
g5
tp720
a(Vcry
Vby
g711
S'g'
g712
I0
g5
tp721
a(Vcomplain
Vrefrain
g711
S'h'
g712
I0
g5
tp722
a(Vshown
Vown
g711
S'i'
g712
I0
g5
tp723
a(Vvain
Vpain
g711
S'j'
g712
I0
g5
tp724
a(Vthee
Vthee
g711
S'k'
g712
I0
g5
tp725
a(Vdead
Vlead
g711
S'l'
g712
I0
g5
tp726
a(Vsing
Vsorrowing
g711
S'm'
g712
I0
g5
tp727
a(Vthee
Vme
g711
S'n'
g712
I0
g5
tp728
a(Vsmiled
Vbeguiled
g711
S'o'
g712
I0
g5
tp729
a(Vthee
p730
Vmisery
g711
S'p'
g712
I0
g5
tp731
a(Vwind
Vfind
g711
S'q'
g712
I0
g5
tp732
a(Vfriend
p733
Vspend
g711
S'r'
g712
I0
g5
tp734
a(Vscant
Vwant
g711
S's'
g712
I0
g5
tp735
a(Vprodigal
Vcall
g711
S't'
g712
I0
g5
tp736
a(Vflattering
Vking
g711
S'u'
g712
I0
g5
tp737
a(Vvice
Ventice
g711
S'v'
g712
I0
g5
tp738
a(Vbent
Vcommandement
g711
S'w'
g712
I0
g5
tp739
a(Vfrown
Vrenown
p740
g711
S'x'
g712
I0
g5
tp741
a(Vbefore
p742
Vmore
g711
S'y'
g712
I0
g5
tp743
a(Vindeed
Vneed
g711
S'z'
g712
I0
g5
tp744
a(Vweep
Vsleep
g711
S'{'
g712
I0
g5
tp745
a(Vheart
p746
Vpart
g711
S'|'
g712
I0
g5
tp747
a(Vknow
p748
Vfoe
g711
S'}'
g712
I0
g5
tp749
a(Vlay
Vobey
Vabba
p750
Va
VThe Phoenix and the Turtle
p751
I0
g5
tp752
a(Vtree
Vbe
g750
Vb
g751
I0
g5
tp753
a(Vharbinger
Vnear
Vabba
p754
Va
g751
I1
g5
tp755
a(Vfiend
Vend
g754
Vb
g751
I1
g5
tp756
a(Vinterdict
p757
Vstrict
Vabba
p758
Va
g751
I2
g5
tp759
a(Vwing
Vking
g758
Vb
g751
I2
g5
tp760
a(Vwhite
Vright
Vabba
p761
Va
g751
I3
g5
tp762
a(Vcan
Vswan
g761
Vb
g751
I3
g5
tp763
a(Vcrow
Vgo
Vabba
p764
Va
g751
I4
g5
tp765
a(Vmakest
p766
Vtakest
g764
Vb
g751
I4
g5
tp767
a(Vcommence
Vhence
Vabba
p768
Va
g751
I5
g5
tp769
a(Vdead
Vfled
p770
g768
Vb
g751
I5
g5
tp771
a(Vtwain
p772
Vslain
Vabba
p773
Va
g751
I6
g5
tp774
a(Vone
Vnone
g773
Vb
g751
I6
g5
tp775
a(Vasunder
Vwonder
Vabba
p776
Va
g751
I7
g5
tp777
a(Vseen
p778
Vqueen
g776
Vb
g751
I7
g5
tp779
a(Vshine
Vmine
Vabba
p780
Va
g751
I8
g5
tp781
a(Vright
p782
Vsight
g780
Vb
g751
I8
g5
tp783
a(Vappalled
Vcalled
Vabba
p784
Va
g751
I9
g5
tp785
a(Vsame
Vname
p786
g784
Vb
g751
I9
g5
tp787
a(Vconfounded
Vcompounded
Vabba
p788
Va
g751
I10
g5
tp789
a(Vtogether
Vneither
g788
Vb
g751
I10
g5
tp790
a(Vtwain
p791
Vremain
Vabba
p792
Va
g751
I11
g5
tp793
a(Vone
Vnone
g792
Vb
g751
I11
g5
tp794
a(Vthrene
p795
Vscene
Vabba
p796
Va
g751
I12
g5
tp797
a(Vdove
Vlove
g796
Vb
g751
I12
g5
tp798
a(Vrarity
p799
Vsimplicity
p800
Vaaa
p801
Va
g751
I13
g5
tp802
a(g799
Vlie
p803
g801
Va
g751
I13
g5
tp804
a(g800
g803
g801
Va
g751
I13
g5
tp805
a(Vnest
p806
Vbreast
p807
Vaaa
p808
Va
g751
I14
g5
tp809
a(g806
Vrest
p810
g808
Va
g751
I14
g5
tp811
a(g807
g810
g808
Va
g751
I14
g5
tp812
a(Vposterity
p813
Vinfirmity
p814
Vaaa
p815
Va
g751
I15
g5
tp816
a(g813
Vchastity
p817
g815
Va
g751
I15
g5
tp818
a(g814
g817
g815
Va
g751
I15
g5
tp819
a(Vbe
p820
Vshe
p821
Vaaa
p822
Va
g751
I16
g5
tp823
a(g820
Vbe
p824
g822
Va
g751
I16
g5
tp825
a(g821
g824
g822
Va
g751
I16
g5
tp826
a(Vrepair
p827
Vfair
p828
Vaaa
p829
Va
g751
I17
g5
tp830
a(g827
Vprayer
p831
g829
Va
g751
I17
g5
tp832
a(g828
g831
g829
Va
g751
I17
g5
tp833
a(Vpost
Vhost
Vababbcc
p834
Va
VThe Rape of Lucrece
p835
I0
g5
tp836
a(Vdesire
p837
Vfire
p838
g834
Vb
g835
I0
g5
tp839
a(g837
Vaspire
p840
g834
Vb
g835
I0
g5
tp841
a(g838
g840
g834
Vb
g835
I0
g5
tp842
a(Vwaist
p843
Vchaste
g834
Vc
g835
I0
g5
tp844
a(Vset
p845
Vlet
p846
Vababbcc
p847
Va
g835
I1
g5
tp848
a(Vappetite
p849
Vwhite
p850
g847
Vb
g835
I1
g5
tp851
a(g849
Vdelight
p852
g847
Vb
g835
I1
g5
tp853
a(g850
g852
g847
Vb
g835
I1
g5
tp854
a(Vbeauties
Vduties
g847
Vc
g835
I1
g5
tp855
a(Vtent
Vlent
p856
Vababbcc
p857
Va
g835
I2
g5
tp858
a(Vstate
p859
Vmate
p860
g857
Vb
g835
I2
g5
tp861
a(g859
Vrate
p862
g857
Vb
g835
I2
g5
tp863
a(g860
g862
g857
Vb
g835
I2
g5
tp864
a(Vfame
Vdame
g857
Vc
g835
I2
g5
tp865
a(Vfew
Vdew
p866
Vababbcc
p867
Va
g835
I3
g5
tp868
a(Vdone
p869
Vsun
p870
g867
Vb
g835
I3
g5
tp871
a(g869
Vbegun
p872
g867
Vb
g835
I3
g5
tp873
a(g870
g872
g867
Vb
g835
I3
g5
tp874
a(Varms
Vharms
g867
Vc
g835
I3
g5
tp875
a(Vpersuade
p876
Vmade
Vababbcc
p877
Va
g835
I4
g5
tp878
a(Vorator
p879
Vsingular
p880
g877
Vb
g835
I4
g5
tp881
a(g879
Vpublisher
p882
g877
Vb
g835
I4
g5
tp883
a(g880
g882
g877
Vb
g835
I4
g5
tp884
a(Vunknown
p885
Vown
g877
Vc
g835
I4
g5
tp886
a(Vsovereignty
p887
Vbe
Vababbcc
p888
Va
g835
I5
g5
tp889
a(Vking
p890
Vthing
p891
g888
Vb
g835
I5
g5
tp892
a(g890
Vsting
p893
g888
Vb
g835
I5
g5
tp894
a(g891
g893
g888
Vb
g835
I5
g5
tp895
a(Vvaunt
p896
Vwant
g888
Vc
g835
I5
g5
tp897
a(Vinstigate
p898
Vstate
Vababbcc
p899
Va
g835
I6
g5
tp900
a(Vthose
p901
Vgoes
p902
g899
Vb
g835
I6
g5
tp903
a(g901
Vglows
p904
g899
Vb
g835
I6
g5
tp905
a(g902
g904
g899
Vb
g835
I6
g5
tp906
a(Vcold
Vold
g899
Vc
g835
I6
g5
tp907
a(Varrived
Vstrived
p908
Vababbcc
p909
Va
g835
I7
g5
tp910
a(Vdame
p911
Vfame
p912
g909
Vb
g835
I7
g5
tp913
a(g911
Vshame
p914
g909
Vb
g835
I7
g5
tp915
a(g912
g914
g909
Vb
g835
I7
g5
tp916
a(Vdespite
p917
Vwhite
g909
Vc
g835
I7
g5
tp918
a(Vintituled
Vred
Vababbcc
p919
Va
g835
I8
g5
tp920
a(Vfield
p921
Vgild
p922
g919
Vb
g835
I8
g5
tp923
a(g921
Vshield
p924
g919
Vb
g835
I8
g5
tp925
a(g922
g924
g919
Vb
g835
I8
g5
tp926
a(Vfight
Vwhite
g919
Vc
g835
I8
g5
tp927
a(Vseen
Vqueen
Vababbcc
p928
Va
g835
I9
g5
tp929
a(Vwhite
p930
Vright
p931
g928
Vb
g835
I9
g5
tp932
a(g930
Vfight
p933
g928
Vb
g835
I9
g5
tp934
a(g931
g933
g928
Vb
g835
I9
g5
tp935
a(Vgreat
Vseat
g928
Vc
g835
I9
g5
tp936
a(Vroses
Vencloses
Vababbcc
p937
Va
g835
I10
g5
tp938
a(Vfield
p939
Vkill'd
p940
g937
Vb
g835
I10
g5
tp941
a(g939
Vyield
p942
g937
Vb
g835
I10
g5
tp943
a(g940
g942
g937
Vb
g835
I10
g5
tp944
a(Vgo
Vfoe
g937
Vc
g835
I10
g5
tp945
a(Vtongue
Vwrong
Vababbcc
p946
Va
g835
I11
g5
tp947
a(Vso
p948
Vshow
p949
g946
Vb
g835
I11
g5
tp950
a(g948
Vowe
p951
g946
Vb
g835
I11
g5
tp952
a(g949
g951
g946
Vb
g835
I11
g5
tp953
a(Vsurmise
Veyes
g946
Vc
g835
I11
g5
tp954
a(Vdevil
Vevil
Vababbcc
p955
Va
g835
I12
g5
tp956
a(Vworshipper
p957
Vfear
p958
g955
Vb
g835
I12
g5
tp959
a(g957
Vcheer
p960
g955
Vb
g835
I12
g5
tp961
a(g958
g960
g955
Vb
g835
I12
g5
tp962
a(Vguest
Vexpress'd
g955
Vc
g835
I12
g5
tp963
a(Vestate
Vinordinate
Vababbcc
p964
Va
g835
I13
g5
tp965
a(Vmajesty
p966
Veye
p967
g964
Vb
g835
I13
g5
tp968
a(g966
Vsatisfy
p969
g964
Vb
g835
I13
g5
tp970
a(g967
g969
g964
Vb
g835
I13
g5
tp971
a(Vstore
Vmore
g964
Vc
g835
I13
g5
tp972
a(Veyes
Vsecrecies
p973
Vababbcc
p974
Va
g835
I14
g5
tp975
a(Vlooks
p976
Vbooks
p977
g974
Vb
g835
I14
g5
tp978
a(g976
Vhooks
p979
g974
Vb
g835
I14
g5
tp980
a(g977
g979
g974
Vb
g835
I14
g5
tp981
a(Vsight
Vlight
g974
Vc
g835
I14
g5
tp982
a(Vfame
Vname
Vababbcc
p983
Va
g835
I15
g5
tp984
a(VItaly
p985
Vchivalry
p986
g983
Vb
g835
I15
g5
tp987
a(g985
Vvictory
p988
g983
Vb
g835
I15
g5
tp989
a(g986
g988
g983
Vb
g835
I15
g5
tp990
a(Vexpress
Vsuccess
g983
Vc
g835
I15
g5
tp991
a(Vhither
Vweather
p992
Vababbcc
p993
Va
g835
I16
g5
tp994
a(Vthere
p995
Vappear
p996
g993
Vb
g835
I16
g5
tp997
a(g995
VFear
p998
g993
Vb
g835
I16
g5
tp999
a(g996
g998
g993
Vb
g835
I16
g5
tp1000
a(Vdisplay
VDay
g993
Vc
g835
I16
g5
tp1001
a(Vbed
Vquestioned
p1002
Vababbcc
p1003
Va
g835
I17
g5
tp1004
a(Vspright
p1005
Vnight
p1006
g1003
Vb
g835
I17
g5
tp1007
a(g1005
Vfight
p1008
g1003
Vb
g835
I17
g5
tp1009
a(g1006
g1008
g1003
Vb
g835
I17
g5
tp1010
a(Vbetake
Vwake
g1003
Vc
g835
I17
g5
tp1011
a(Vrevolving
p1012
Vresolving
Vababbcc
p1013
Va
g835
I18
g5
tp1014
a(Vobtaining
p1015
Vabstaining
p1016
g1013
Vb
g835
I18
g5
tp1017
a(g1015
Vgaining
p1018
g1013
Vb
g835
I18
g5
tp1019
a(g1016
g1018
g1013
Vb
g835
I18
g5
tp1020
a(Vproposed
Vsupposed
g1013
Vc
g835
I18
g5
tp1021
a(Vfond
Vbond
Vababbcc
p1022
Va
g835
I19
g5
tp1023
a(Vpossess
p1024
Vless
p1025
g1022
Vb
g835
I19
g5
tp1026
a(g1024
Vexcess
p1027
g1022
Vb
g835
I19
g5
tp1028
a(g1025
g1027
g1022
Vb
g835
I19
g5
tp1029
a(Vsustain
Vgain
g1022
Vc
g835
I19
g5
tp1030
a(Vlife
p1031
Vstrife
Vababbcc
p1032
Va
g835
I20
g5
tp1033
a(Vage
p1034
Vgage
p1035
g1032
Vb
g835
I20
g5
tp1036
a(g1034
Vrage
p1037
g1032
Vb
g835
I20
g5
tp1038
a(g1035
g1037
g1032
Vb
g835
I20
g5
tp1039
a(Vcost
p1040
Vlost
g1032
Vc
g835
I20
g5
tp1041
a(Vbe
p1042
Vinfirmity
Vababbcc
p1043
Va
g835
I21
g5
tp1044
a(Vexpect
p1045
Vdefect
p1046
g1043
Vb
g835
I21
g5
tp1047
a(g1045
Vneglect
p1048
g1043
Vb
g835
I21
g5
tp1049
a(g1046
g1048
g1043
Vb
g835
I21
g5
tp1050
a(Vwit
Vit
g1043
Vc
g835
I21
g5
tp1051
a(Vmake
Vforsake
Vababbcc
p1052
Va
g835
I22
g5
tp1053
a(Vlust
p1054
Vself-trust
p1055
g1052
Vb
g835
I22
g5
tp1056
a(g1054
Vjust
p1057
g1052
Vb
g835
I22
g5
tp1058
a(g1055
g1057
g1052
Vb
g835
I22
g5
tp1059
a(Vbetrays
p1060
Vdays
g1052
Vc
g835
I22
g5
tp1061
a(Vnight
Vlight
Vababbcc
p1062
Va
g835
I23
g5
tp1063
a(Veyes
p1064
Vcries
p1065
g1062
Vb
g835
I23
g5
tp1066
a(g1064
Vsurprise
p1067
g1062
Vb
g835
I23
g5
tp1068
a(g1065
g1067
g1062
Vb
g835
I23
g5
tp1069
a(Vstill
Vkill
g1062
Vc
g835
I23
g5
tp1070
a(Vbed
Vdread
Vababbcc
p1071
Va
g835
I24
g5
tp1072
a(Varm
p1073
Vharm
p1074
g1071
Vb
g835
I24
g5
tp1075
a(g1073
Vcharm
p1076
g1071
Vb
g835
I24
g5
tp1077
a(g1074
g1076
g1071
Vb
g835
I24
g5
tp1078
a(Vretire
Vdesire
g1071
Vc
g835
I24
g5
tp1079
a(Vsmiteth
Vlighteth
Vababbcc
p1080
Va
g835
I25
g5
tp1081
a(Vfly
p1082
Veye
p1083
g1080
Vb
g835
I25
g5
tp1084
a(g1082
Vadvisedly
p1085
g1080
Vb
g835
I25
g5
tp1086
a(g1083
g1085
g1080
Vb
g835
I25
g5
tp1087
a(Vfire
Vdesire
g1080
Vc
g835
I25
g5
tp1088
a(Vpremeditate
p1089
Vdebate
p1090
Vababbcc
p1091
Va
g835
I26
g5
tp1092
a(Venterprise
p1093
Varise
p1094
g1091
Vb
g835
I26
g5
tp1095
a(g1093
Vdespise
p1096
g1091
Vb
g835
I26
g5
tp1097
a(g1094
g1096
g1091
Vb
g835
I26
g5
tp1098
a(Vlust
Vunjust
g1091
Vc
g835
I26
g5
tp1099
a(Vnot
p1100
Vblot
p1101
Vababbcc
p1102
Va
g835
I27
g5
tp1103
a(Vthine
p1104
Vdivine
p1105
g1102
Vb
g835
I27
g5
tp1106
a(g1104
Vshrine
p1107
g1102
Vb
g835
I27
g5
tp1108
a(g1105
g1107
g1102
Vb
g835
I27
g5
tp1109
a(Vdeed
p1110
Vweed
g1102
Vc
g835
I27
g5
tp1111
a(Varms
Vharms
Vababbcc
p1112
Va
g835
I28
g5
tp1113
a(Vgrave
p1114
Vslave
p1115
g1112
Vb
g835
I28
g5
tp1116
a(g1114
Vhave
p1117
g1112
Vb
g835
I28
g5
tp1118
a(g1115
g1117
g1112
Vb
g835
I28
g5
tp1119
a(Vbase
Vface
g1112
Vc
g835
I28
g5
tp1120
a(Vsurvive
Vcontrive
Vababbcc
p1121
Va
g835
I29
g5
tp1122
a(Vcoat
p1123
Vdote
p1124
g1121
Vb
g835
I29
g5
tp1125
a(g1123
Vnote
p1126
g1121
Vb
g835
I29
g5
tp1127
a(g1124
g1126
g1121
Vb
g835
I29
g5
tp1128
a(Vsin
p1129
Vbin
g1121
Vc
g835
I29
g5
tp1130
a(Vseek
Vweek
Vababbcc
p1131
Va
g835
I30
g5
tp1132
a(Vjoy
p1133
Vtoy
p1134
g1131
Vb
g835
I30
g5
tp1135
a(g1133
Vdestroy
p1136
g1131
Vb
g835
I30
g5
tp1137
a(g1134
g1136
g1131
Vb
g835
I30
g5
tp1138
a(Vcrown
Vdown
g1131
Vc
g835
I30
g5
tp1139
a(Vintent
Vprevent
Vababbcc
p1140
Va
g835
I31
g5
tp1141
a(Vrage
p1142
Vmarriage
p1143
g1140
Vb
g835
I31
g5
tp1144
a(g1142
Vsage
p1145
g1140
Vb
g835
I31
g5
tp1146
a(g1143
g1145
g1140
Vb
g835
I31
g5
tp1147
a(Vshame
Vblame
g1140
Vc
g835
I31
g5
tp1148
a(Vmake
Vshake
Vababbcc
p1149
Va
g835
I32
g5
tp1150
a(Vdeed
p1151
Vbleed
p1152
g1149
Vb
g835
I32
g5
tp1153
a(g1151
Vexceed
p1154
g1149
Vb
g835
I32
g5
tp1155
a(g1152
g1154
g1149
Vb
g835
I32
g5
tp1156
a(Vfly
Vdie
g1149
Vc
g835
I32
g5
tp1157
a(Vsire
Vdesire
p1158
Vababbcc
p1159
Va
g835
I33
g5
tp1160
a(Vlife
p1161
Vwife
p1162
g1159
Vb
g835
I33
g5
tp1163
a(g1161
Vstrife
p1164
g1159
Vb
g835
I33
g5
tp1165
a(g1162
g1164
g1159
Vb
g835
I33
g5
tp1166
a(Vfriend
Vend
g1159
Vc
g835
I33
g5
tp1167
a(Vknown
Vown
Vababbcc
p1168
Va
g835
I34
g5
tp1169
a(Vloving
p1170
Vreproving
p1171
g1168
Vb
g835
I34
g5
tp1172
a(g1170
Vremoving
p1173
g1168
Vb
g835
I34
g5
tp1174
a(g1171
g1173
g1168
Vb
g835
I34
g5
tp1175
a(Vsaw
p1176
Vawe
g1168
Vc
g835
I34
g5
tp1177
a(Vdisputation
p1178
Vdispensation
Vababbcc
p1179
Va
g835
I35
g5
tp1180
a(Vwill
p1181
Vstill
p1182
g1179
Vb
g835
I35
g5
tp1183
a(g1181
Vkill
p1184
g1179
Vb
g835
I35
g5
tp1185
a(g1182
g1184
g1179
Vb
g835
I35
g5
tp1186
a(Vproceed
Vdeed
g1179
Vc
g835
I35
g5
tp1187
a(Vhand
Vband
Vababbcc
p1188
Va
g835
I36
g5
tp1189
a(Veyes
p1190
Vlies
p1191
g1188
Vb
g835
I36
g5
tp1192
a(g1190
Vrise
p1193
g1188
Vb
g835
I36
g5
tp1194
a(g1191
g1193
g1188
Vb
g835
I36
g5
tp1195
a(Vlay
Vaway
g1188
Vc
g835
I36
g5
tp1196
a(Vlock'd
p1197
Vrock'd
Vababbcc
p1198
Va
g835
I37
g5
tp1199
a(Vfear
p1200
Vhear
p1201
g1198
Vb
g835
I37
g5
tp1202
a(g1200
Vcheer
p1203
g1198
Vb
g835
I37
g5
tp1204
a(g1201
g1203
g1198
Vb
g835
I37
g5
tp1205
a(Vstood
Vflood
g1198
Vc
g835
I37
g5
tp1206
a(Vexcuses
Vabuses
Vababbcc
p1207
Va
g835
I38
g5
tp1208
a(Vpleadeth
p1209
Vdreadeth
p1210
g1207
Vb
g835
I38
g5
tp1211
a(g1209
Vleadeth
p1212
g1207
Vb
g835
I38
g5
tp1213
a(g1210
g1212
g1207
Vb
g835
I38
g5
tp1214
a(Vdisplay'd
Vdismay'd
g1207
Vc
g835
I38
g5
tp1215
a(Vdie
Veye
Vababbcc
p1216
Va
g835
I39
g5
tp1217
a(Vage
p1218
Vsage
p1219
g1216
Vb
g835
I39
g5
tp1220
a(g1218
Vstage
p1221
g1216
Vb
g835
I39
g5
tp1222
a(g1219
g1221
g1216
Vb
g835
I39
g5
tp1223
a(Vprize
Vlies
g1216
Vc
g835
I39
g5
tp1224
a(Vfear
p1225
Vear
Vababbcc
p1226
Va
g835
I40
g5
tp1227
a(Vlust
p1228
Vmistrust
p1229
g1226
Vb
g835
I40
g5
tp1230
a(g1228
Vunjust
p1231
g1226
Vb
g835
I40
g5
tp1232
a(g1229
g1231
g1226
Vb
g835
I40
g5
tp1233
a(Vpersuasion
Vinvasion
g1226
Vc
g835
I40
g5
tp1234
a(Vsits
Vwits
Vababbcc
p1235
Va
g835
I41
g5
tp1236
a(VCollatine
p1237
Vdivine
p1238
g1235
Vb
g835
I41
g5
tp1239
a(g1237
Vincline
p1240
g1235
Vb
g835
I41
g5
tp1241
a(g1238
g1240
g1235
Vb
g835
I41
g5
tp1242
a(Vheart
Vpart
g1235
Vc
g835
I41
g5
tp1243
a(Vpowers
Vhours
Vababbcc
p1244
Va
g835
I42
g5
tp1245
a(Vshow
p1246
Vgrow
p1247
g1244
Vb
g835
I42
g5
tp1248
a(g1246
Vowe
p1249
g1244
Vb
g835
I42
g5
tp1250
a(g1247
g1249
g1244
Vb
g835
I42
g5
tp1251
a(Vled
Vbed
g1244
Vc
g835
I42
g5
tp1252
a(Vwill
Vill
Vababbcc
p1253
Va
g835
I43
g5
tp1254
a(Vward
p1255
Vregard
p1256
g1253
Vb
g835
I43
g5
tp1257
a(g1255
Vheard
p1258
g1253
Vb
g835
I43
g5
tp1259
a(g1256
g1258
g1253
Vb
g835
I43
g5
tp1260
a(Vthere
Vfear
g1253
Vc
g835
I43
g5
tp1261
a(Vway
Vstay
Vababbcc
p1262
Va
g835
I44
g5
tp1263
a(Vplace
p1264
Vface
p1265
g1262
Vb
g835
I44
g5
tp1266
a(g1264
Vcase
p1267
g1262
Vb
g835
I44
g5
tp1268
a(g1265
g1267
g1262
Vb
g835
I44
g5
tp1269
a(Vscorch
Vtorch
g1262
Vc
g835
I44
g5
tp1270
a(Vspies
p1271
Vlies
Vababbcc
p1272
Va
g835
I45
g5
tp1273
a(Vsticks
p1274
Vpricks
p1275
g1272
Vb
g835
I45
g5
tp1276
a(g1274
Vtricks
p1277
g1272
Vb
g835
I45
g5
tp1278
a(g1275
g1277
g1272
Vb
g835
I45
g5
tp1279
a(Vhaste
Vchaste
g1272
Vc
g835
I45
g5
tp1280
a(Vhim
Vhim
Vababbcc
p1281
Va
g835
I46
g5
tp1282
a(Vdenial
p1283
Vtrial
p1284
g1281
Vb
g835
I46
g5
tp1285
a(g1283
Vdial
p1286
g1281
Vb
g835
I46
g5
tp1287
a(g1284
g1286
g1281
Vb
g835
I46
g5
tp1288
a(Vlet
Vdebt
g1281
Vc
g835
I46
g5
tp1289
a(Vtime
Vprime
Vababbcc
p1290
Va
g835
I47
g5
tp1291
a(Vspring
p1292
Vsing
p1293
g1290
Vb
g835
I47
g5
tp1294
a(g1292
Vthing
p1295
g1290
Vb
g835
I47
g5
tp1296
a(g1293
g1295
g1290
Vb
g835
I47
g5
tp1297
a(Vsands
Vlands
g1290
Vc
g835
I47
g5
tp1298
a(Vchamber-door
Vmore
Vababbcc
p1299
Va
g835
I48
g5
tp1300
a(Vthought
p1301
Vsought
p1302
g1299
Vb
g835
I48
g5
tp1303
a(g1301
Vwrought
p1304
g1299
Vb
g835
I48
g5
tp1305
a(g1302
g1304
g1299
Vb
g835
I48
g5
tp1306
a(Vbegin
Vsin
g1299
Vc
g835
I48
g5
tp1307
a(Vprayer
Vfair
Vababbcc
p1308
Va
g835
I49
g5
tp1309
a(Vpower
p1310
Vhour
p1311
g1308
Vb
g835
I49
g5
tp1312
a(g1310
Vdeflower
p1313
g1308
Vb
g835
I49
g5
tp1314
a(g1311
g1313
g1308
Vb
g835
I49
g5
tp1315
a(Vfact
Vact
g1308
Vc
g835
I49
g5
tp1316
a(Vguide
Vtried
Vababbcc
p1317
Va
g835
I50
g5
tp1318
a(Vresolution
p1319
Vabsolution
p1320
g1317
Vb
g835
I50
g5
tp1321
a(g1319
Vdissolution
p1322
g1317
Vb
g835
I50
g5
tp1323
a(g1320
g1322
g1317
Vb
g835
I50
g5
tp1324
a(Vnight
p1325
Vdelight
g1317
Vc
g835
I50
g5
tp1326
a(Vlatch
Vcatch
Vababbcc
p1327
Va
g835
I51
g5
tp1328
a(Vwide
p1329
Vespied
p1330
g1327
Vb
g835
I51
g5
tp1331
a(g1329
Vaside
p1332
g1327
Vb
g835
I51
g5
tp1333
a(g1330
g1332
g1327
Vb
g835
I51
g5
tp1334
a(Vthing
Vsting
g1327
Vc
g835
I51
g5
tp1335
a(Vstalks
Vwalks
Vababbcc
p1336
Va
g835
I52
g5
tp1337
a(Vbed
p1338
Vhead
p1339
g1336
Vb
g835
I52
g5
tp1340
a(g1338
Vmisled
p1341
g1336
Vb
g835
I52
g5
tp1342
a(g1339
g1341
g1336
Vb
g835
I52
g5
tp1343
a(Vsoon
p1344
Vmoon
g1336
Vc
g835
I52
g5
tp1345
a(Vsun
Vbegun
p1346
Vababbcc
p1347
Va
g835
I53
g5
tp1348
a(Vsight
p1349
Vlight
p1350
g1347
Vb
g835
I53
g5
tp1351
a(g1349
Vbright
p1352
g1347
Vb
g835
I53
g5
tp1353
a(g1350
g1352
g1347
Vb
g835
I53
g5
tp1354
a(Vsupposed
Venclosed
g1347
Vc
g835
I53
g5
tp1355
a(Vdied
Vside
Vababbcc
p1356
Va
g835
I54
g5
tp1357
a(Vill
p1358
Vstill
p1359
g1356
Vb
g835
I54
g5
tp1360
a(g1358
Vkill
p1361
g1356
Vb
g835
I54
g5
tp1362
a(g1359
g1361
g1356
Vb
g835
I54
g5
tp1363
a(Vsight
p1364
Vdelight
g1356
Vc
g835
I54
g5
tp1365
a(Vunder
Vsunder
Vababbcc
p1366
Va
g835
I55
g5
tp1367
a(Vkiss
p1368
Vbliss
p1369
g1366
Vb
g835
I55
g5
tp1370
a(g1368
Vis
p1371
g1366
Vb
g835
I55
g5
tp1372
a(g1369
g1371
g1366
Vb
g835
I55
g5
tp1373
a(Vlies
Veyes
g1366
Vc
g835
I55
g5
tp1374
a(Vwas
Vgrass
Vababbcc
p1375
Va
g835
I56
g5
tp1376
a(Vwhite
p1377
Vnight
p1378
g1375
Vb
g835
I56
g5
tp1379
a(g1377
Vlight
p1380
g1375
Vb
g835
I56
g5
tp1381
a(g1378
g1380
g1375
Vb
g835
I56
g5
tp1382
a(Vlay
Vday
g1375
Vc
g835
I56
g5
tp1383
a(Vbreath
Vdeath
Vababbcc
p1384
Va
g835
I57
g5
tp1385
a(Vmodesty
p1386
Vmortality
p1387
g1384
Vb
g835
I57
g5
tp1388
a(g1386
Vbeautify
p1389
g1384
Vb
g835
I57
g5
tp1390
a(g1387
g1389
g1384
Vb
g835
I57
g5
tp1391
a(Vstrife
Vlife
g1384
Vc
g835
I57
g5
tp1392
a(Vblue
Vknew
Vababbcc
p1393
Va
g835
I58
g5
tp1394
a(Vunconquered
p1395
Vhonoured
p1396
g1393
Vb
g835
I58
g5
tp1397
a(g1395
Vbred
p1398
g1393
Vb
g835
I58
g5
tp1399
a(g1396
g1398
g1393
Vb
g835
I58
g5
tp1400
a(Vabout
p1401
Vout
g1393
Vc
g835
I58
g5
tp1402
a(Vnoted
Vdoted
Vababbcc
p1403
Va
g835
I59
g5
tp1404
a(Vdesired
p1405
Vtired
p1406
g1403
Vb
g835
I59
g5
tp1407
a(g1405
Vadmired
p1408
g1403
Vb
g835
I59
g5
tp1409
a(g1406
g1408
g1403
Vb
g835
I59
g5
tp1410
a(Vskin
Vchin
g1403
Vc
g835
I59
g5
tp1411
a(Vprey
Vstay
Vababbcc
p1412
Va
g835
I60
g5
tp1413
a(Vsatisfied
p1414
Vqualified
p1415
g1412
Vb
g835
I60
g5
tp1416
a(g1414
Vside
p1417
g1412
Vb
g835
I60
g5
tp1418
a(g1415
g1417
g1412
Vb
g835
I60
g5
tp1419
a(Vrestrains
Vveins
g1412
Vc
g835
I60
g5
tp1420
a(Vfighting
Vdelighting
Vababbcc
p1421
Va
g835
I61
g5
tp1422
a(Veffecting
p1423
Vrespecting
p1424
g1421
Vb
g835
I61
g5
tp1425
a(g1423
Vexpecting
p1426
g1421
Vb
g835
I61
g5
tp1427
a(g1424
g1426
g1421
Vb
g835
I61
g5
tp1428
a(Vstriking
Vliking
g1421
Vc
g835
I61
g5
tp1429
a(Veye
Vdignity
Vababbcc
p1430
Va
g835
I62
g5
tp1431
a(Vhand
p1432
Vstand
p1433
g1430
Vb
g835
I62
g5
tp1434
a(g1432
Vland
p1435
g1430
Vb
g835
I62
g5
tp1436
a(g1433
g1435
g1430
Vb
g835
I62
g5
tp1437
a(Vscale
Vpale
g1430
Vc
g835
I62
g5
tp1438
a(Vcabinet
p1439
Vbeset
Vababbcc
p1440
Va
g835
I63
g5
tp1441
a(Vlies
p1442
Vcries
p1443
g1440
Vb
g835
I63
g5
tp1444
a(g1442
Veyes
p1445
g1440
Vb
g835
I63
g5
tp1446
a(g1443
g1445
g1440
Vb
g835
I63
g5
tp1447
a(Vbehold
Vcontroll'd
g1440
Vc
g835
I63
g5
tp1448
a(Vnight
p1449
Vsprite
Vababbcc
p1450
Va
g835
I64
g5
tp1451
a(Vwaking
p1452
Va-shaking
p1453
g1450
Vb
g835
I64
g5
tp1454
a(g1452
Vtaking
p1455
g1450
Vb
g835
I64
g5
tp1456
a(g1453
g1455
g1450
Vb
g835
I64
g5
tp1457
a(Vview
p1458
Vtrue
g1450
Vc
g835
I64
g5
tp1459
a(Vfears
Vappears
p1460
Vababbcc
p1461
Va
g835
I65
g5
tp1462
a(Vlies
p1463
Veyes
p1464
g1461
Vb
g835
I65
g5
tp1465
a(g1463
Vforgeries
p1466
g1461
Vb
g835
I65
g5
tp1467
a(g1464
g1466
g1461
Vb
g835
I65
g5
tp1468
a(Vlights
Vsights
g1461
Vc
g835
I65
g5
tp1469
a(Vbreast
Vcitizen!--distress'd
Vababbcc
p1470
Va
g835
I66
g5
tp1471
a(Vwall
p1472
Vfall
p1473
g1470
Vb
g835
I66
g5
tp1474
a(g1472
Vwithal
p1475
g1470
Vb
g835
I66
g5
tp1476
a(g1473
g1475
g1470
Vb
g835
I66
g5
tp1477
a(Vpity
Vcity
g1470
Vc
g835
I66
g5
tp1478
a(Vbegin
p1479
Vchin
Vababbcc
p1480
Va
g835
I67
g5
tp1481
a(Vfoe
p1482
Vknow
p1483
g1480
Vb
g835
I67
g5
tp1484
a(g1482
Vshow
p1485
g1480
Vb
g835
I67
g5
tp1486
a(g1483
g1485
g1480
Vb
g835
I67
g5
tp1487
a(Vstill
p1488
Vill
g1480
Vc
g835
I67
g5
tp1489
a(Vface
Vdisgrace
Vababbcc
p1490
Va
g835
I68
g5
tp1491
a(Vpale
p1492
Vtale
p1493
g1490
Vb
g835
I68
g5
tp1494
a(g1492
Vscale
p1495
g1490
Vb
g835
I68
g5
tp1496
a(g1493
g1495
g1490
Vb
g835
I68
g5
tp1497
a(Vthine
Vmine
g1490
Vc
g835
I68
g5
tp1498
a(Vchide
Vabide
Vababbcc
p1499
Va
g835
I69
g5
tp1500
a(Vnight
p1501
Vdelight
p1502
g1499
Vb
g835
I69
g5
tp1503
a(g1501
Vmight
p1504
g1499
Vb
g835
I69
g5
tp1505
a(g1502
g1504
g1499
Vb
g835
I69
g5
tp1506
a(Vdead
Vbred
g1499
Vc
g835
I69
g5
tp1507
a(Vbring
Vsting
Vababbcc
p1508
Va
g835
I70
g5
tp1509
a(Vdefends
p1510
Vcomprehends
p1511
g1508
Vb
g835
I70
g5
tp1512
a(g1510
Vfriends
p1513
g1508
Vb
g835
I70
g5
tp1514
a(g1511
g1513
g1508
Vb
g835
I70
g5
tp1515
a(Vbeauty
Vduty
g1508
Vc
g835
I70
g5
tp1516
a(Vsoul
Vcontrol
Vababbcc
p1517
Va
g835
I71
g5
tp1518
a(Vbreed
p1519
Vspeed
p1520
g1517
Vb
g835
I71
g5
tp1521
a(g1519
Vdeed
p1522
g1517
Vb
g835
I71
g5
tp1523
a(g1520
g1522
g1517
Vb
g835
I71
g5
tp1524
a(Venmity
Vinfamy
g1517
Vc
g835
I71
g5
tp1525
a(Vblade
Vshade
Vababbcc
p1526
Va
g835
I72
g5
tp1527
a(Vskies
p1528
Vdies
p1529
g1526
Vb
g835
I72
g5
tp1530
a(g1528
Vlies
p1531
g1526
Vb
g835
I72
g5
tp1532
a(g1529
g1531
g1526
Vb
g835
I72
g5
tp1533
a(Vtells
p1534
Vbells
g1526
Vc
g835
I72
g5
tp1535
a(Vthee
Vthee
Vababbcc
p1536
Va
g835
I73
g5
tp1537
a(Vway
p1538
Vslay
p1539
g1536
Vb
g835
I73
g5
tp1540
a(g1538
Vdecay
p1541
g1536
Vb
g835
I73
g5
tp1542
a(g1539
g1541
g1536
Vb
g835
I73
g5
tp1543
a(Vhim
Vhim
g1536
Vc
g835
I73
g5
tp1544
a(Vremain
p1545
Vdisdain
Vababbcc
p1546
Va
g835
I74
g5
tp1547
a(Veye
p1548
Vbastardy
p1549
g1546
Vb
g835
I74
g5
tp1550
a(g1548
Vobloquy
p1551
g1546
Vb
g835
I74
g5
tp1552
a(g1549
g1551
g1546
Vb
g835
I74
g5
tp1553
a(Vrhymes
Vtimes
g1546
Vc
g835
I74
g5
tp1554
a(Vfriend
Vend
p1555
Vababbcc
p1556
Va
g835
I75
g5
tp1557
a(Vunacted
p1558
Venacted
p1559
g1556
Vb
g835
I75
g5
tp1560
a(g1558
Vcompacted
p1561
g1556
Vb
g835
I75
g5
tp1562
a(g1559
g1561
g1556
Vb
g835
I75
g5
tp1563
a(Vapplied
Vpurified
g1556
Vc
g835
I75
g5
tp1564
a(Vsake
Vtake
Vababbcc
p1565
Va
g835
I76
g5
tp1566
a(Vlot
p1567
Vforgot
p1568
g1565
Vb
g835
I76
g5
tp1569
a(g1567
Vblot
p1570
g1565
Vb
g835
I76
g5
tp1571
a(g1568
g1570
g1565
Vb
g835
I76
g5
tp1572
a(Vnativity
p1573
Vinfamy
g1565
Vc
g835
I76
g5
tp1574
a(Veye
p1575
Vpiety
Vababbcc
p1576
Va
g835
I77
g5
tp1577
a(Vpause
p1578
Vclaws
p1579
g1576
Vb
g835
I77
g5
tp1580
a(g1578
Vlaws
p1581
g1576
Vb
g835
I77
g5
tp1582
a(g1579
g1581
g1576
Vb
g835
I77
g5
tp1583
a(Vright
Vappetite
g1576
Vc
g835
I77
g5
tp1584
a(Vthreat
Vget
Vababbcc
p1585
Va
g835
I78
g5
tp1586
a(Vhiding
p1587
Vbidding
p1588
g1585
Vb
g835
I78
g5
tp1589
a(g1587
Vdividing
p1590
g1585
Vb
g835
I78
g5
tp1591
a(g1588
g1590
g1585
Vb
g835
I78
g5
tp1592
a(Vdelays
Vplays
g1585
Vc
g835
I78
g5
tp1593
a(Vdally
Vfolly
Vababbcc
p1594
Va
g835
I79
g5
tp1595
a(Vpanteth
p1596
Vwanteth
p1597
g1594
Vb
g835
I79
g5
tp1598
a(g1596
Vgranteth
p1599
g1594
Vb
g835
I79
g5
tp1600
a(g1597
g1599
g1594
Vb
g835
I79
g5
tp1601
a(Vplaining
Vraining
g1594
Vc
g835
I79
g5
tp1602
a(Vfix'd
p1603
Vmix'd
Vababbcc
p1604
Va
g835
I80
g5
tp1605
a(Vface
p1606
Vgrace
p1607
g1604
Vb
g835
I80
g5
tp1608
a(g1606
Vplace
p1609
g1604
Vb
g835
I80
g5
tp1610
a(g1607
g1609
g1604
Vb
g835
I80
g5
tp1611
a(Vbreaks
Vspeaks
g1604
Vc
g835
I80
g5
tp1612
a(VJove
Vlove
Vababbcc
p1613
Va
g835
I81
g5
tp1614
a(Voath
p1615
Vtroth
p1616
g1613
Vb
g835
I81
g5
tp1617
a(g1615
Vboth
p1618
g1613
Vb
g835
I81
g5
tp1619
a(g1616
g1618
g1613
Vb
g835
I81
g5
tp1620
a(Vretire
Vdesire
g1613
Vc
g835
I81
g5
tp1621
a(Vhospitality
p1622
Vthee
Vababbcc
p1623
Va
g835
I82
g5
tp1624
a(Vpretended
p1625
Vamended
p1626
g1623
Vb
g835
I82
g5
tp1627
a(g1625
Vended
p1628
g1623
Vb
g835
I82
g5
tp1629
a(g1626
g1628
g1623
Vb
g835
I82
g5
tp1630
a(Vbow
p1631
Vdoe
g1623
Vc
g835
I82
g5
tp1632
a(Vme
Vme
Vababbcc
p1633
Va
g835
I83
g5
tp1634
a(Vme
p1635
Vme
p1636
g1633
Vb
g835
I83
g5
tp1637
a(g1635
Vthee
p1638
g1633
Vb
g835
I83
g5
tp1639
a(g1636
g1638
g1633
Vb
g835
I83
g5
tp1640
a(Vmoans
Vgroans
g1633
Vc
g835
I83
g5
tp1641
a(Vocean
Vmotion
Vababbcc
p1642
Va
g835
I84
g5
tp1643
a(Vheart
p1644
Vconvert
p1645
g1642
Vb
g835
I84
g5
tp1646
a(g1644
Vart
p1647
g1642
Vb
g835
I84
g5
tp1648
a(g1645
g1647
g1642
Vb
g835
I84
g5
tp1649
a(Vcompassionate
Vgate
g1642
Vc
g835
I84
g5
tp1650
a(Vthee
Vme
Vababbcc
p1651
Va
g835
I85
g5
tp1652
a(Vshame
p1653
Vname
p1654
g1651
Vb
g835
I85
g5
tp1655
a(g1653
Vsame
p1656
g1651
Vb
g835
I85
g5
tp1657
a(g1654
g1656
g1651
Vb
g835
I85
g5
tp1658
a(Vking
Veverything
g1651
Vc
g835
I85
g5
tp1659
a(Vage
Voutrage
Vababbcc
p1660
Va
g835
I86
g5
tp1661
a(Vspring
p1662
Vking
p1663
g1660
Vb
g835
I86
g5
tp1664
a(g1662
Vthing
p1665
g1660
Vb
g835
I86
g5
tp1666
a(g1663
g1665
g1660
Vb
g835
I86
g5
tp1667
a(Vaway
Vclay
g1660
Vc
g835
I86
g5
tp1668
a(Vfear
Vbear
Vababbcc
p1669
Va
g835
I87
g5
tp1670
a(Vlove
p1671
Vprove
p1672
g1669
Vb
g835
I87
g5
tp1673
a(g1671
Vremove
p1674
g1669
Vb
g835
I87
g5
tp1675
a(g1672
g1674
g1669
Vb
g835
I87
g5
tp1676
a(Vbook
Vlook
g1669
Vc
g835
I87
g5
tp1677
a(Vlearn
Vdiscern
p1678
Vababbcc
p1679
Va
g835
I88
g5
tp1680
a(Vshame
p1681
Vblame
p1682
g1679
Vb
g835
I88
g5
tp1683
a(g1681
Vname
p1684
g1679
Vb
g835
I88
g5
tp1685
a(g1682
g1684
g1679
Vb
g835
I88
g5
tp1686
a(Vlaud
Vbawd
g1679
Vc
g835
I88
g5
tp1687
a(Vthee
Viniquity
Vababbcc
p1688
Va
g835
I89
g5
tp1689
a(Vwill
p1690
Vkill
p1691
g1688
Vb
g835
I89
g5
tp1692
a(g1690
Vfulfil
p1693
g1688
Vb
g835
I89
g5
tp1694
a(g1691
g1693
g1688
Vb
g835
I89
g5
tp1695
a(Vsay
Vway
g1688
Vc
g835
I89
g5
tp1696
a(Vwere
Vappear
Vababbcc
p1697
Va
g835
I90
g5
tp1698
a(Vanother
p1699
Vsmother
p1700
g1697
Vb
g835
I90
g5
tp1701
a(g1699
Vbrother
p1702
g1697
Vb
g835
I90
g5
tp1703
a(g1700
g1702
g1697
Vb
g835
I90
g5
tp1704
a(Vinfamies
p1705
Veyes
g1697
Vc
g835
I90
g5
tp1706
a(Vappeal
Vrepeal
Vababbcc
p1707
Va
g835
I91
g5
tp1708
a(Vrelier
p1709
Vretire
p1710
g1707
Vb
g835
I91
g5
tp1711
a(g1709
Vdesire
p1712
g1707
Vb
g835
I91
g5
tp1713
a(g1710
g1712
g1707
Vb
g835
I91
g5
tp1714
a(Veyne
Vmine
g1707
Vc
g835
I91
g5
tp1715
a(Vtide
p1716
Vabide
Vababbcc
p1717
Va
g835
I92
g5
tp1718
a(Vlet
p1719
Vfret
p1720
g1717
Vb
g835
I92
g5
tp1721
a(g1719
Vdebt
p1722
g1717
Vb
g835
I92
g5
tp1723
a(g1720
g1722
g1717
Vb
g835
I92
g5
tp1724
a(Vhaste
p1725
Vtaste
g1717
Vc
g835
I92
g5
tp1726
a(Vking
Vmisgoverning
Vababbcc
p1727
Va
g835
I93
g5
tp1728
a(Vflood
p1729
Vblood
p1730
g1727
Vb
g835
I93
g5
tp1731
a(g1729
Vgood
p1732
g1727
Vb
g835
I93
g5
tp1733
a(g1730
g1732
g1727
Vb
g835
I93
g5
tp1734
a(Vhearsed
Vdispersed
g1727
Vc
g835
I93
g5
tp1735
a(Vslave
Vgrave
Vababbcc
p1736
Va
g835
I94
g5
tp1737
a(Vdignified
p1738
Vpride
p1739
g1736
Vb
g835
I94
g5
tp1740
a(g1738
Vhide
p1741
g1736
Vb
g835
I94
g5
tp1742
a(g1739
g1741
g1736
Vb
g835
I94
g5
tp1743
a(Vfoot
Vroot
g1736
Vc
g835
I94
g5
tp1744
a(Vstate
Vhate
Vababbcc
p1745
Va
g835
I95
g5
tp1746
a(Vthee
p1747
Vthee
p1748
g1745
Vb
g835
I95
g5
tp1749
a(g1747
Vthee
p1750
g1745
Vb
g835
I95
g5
tp1751
a(g1748
g1750
g1745
Vb
g835
I95
g5
tp1752
a(Vgroom
Vdoom
g1745
Vc
g835
I95
g5
tp1753
a(Vlight
Vnight
Vababbcc
p1754
Va
g835
I96
g5
tp1755
a(Venemies
p1756
Vtyrannize
p1757
g1754
Vb
g835
I96
g5
tp1758
a(g1756
Vcries
p1759
g1754
Vb
g835
I96
g5
tp1760
a(g1757
g1759
g1754
Vb
g835
I96
g5
tp1761
a(Vcontroll'd
p1762
Vfold
g1754
Vc
g835
I96
g5
tp1763
a(Vwears
p1764
Vtears
p1765
Vababbcc
p1766
Va
g835
I97
g5
tp1767
a(Vhead
p1768
Vshed
p1769
g1766
Vb
g835
I97
g5
tp1770
a(g1768
Vbed
p1771
g1766
Vb
g835
I97
g5
tp1772
a(g1769
g1771
g1766
Vb
g835
I97
g5
tp1773
a(Vpurify
Vperpetually
g1766
Vc
g835
I97
g5
tp1774
a(Vlife
Vstrife
Vababbcc
p1775
Va
g835
I98
g5
tp1776
a(Vagain
p1777
Vpain
p1778
g1775
Vb
g835
I98
g5
tp1779
a(g1777
Vdisdain
p1780
g1775
Vb
g835
I98
g5
tp1781
a(g1778
g1780
g1775
Vb
g835
I98
g5
tp1782
a(Vstore
Vbefore
g1775
Vc
g835
I98
g5
tp1783
a(Vhawk
Vbalk
p1784
Vababbcc
p1785
Va
g835
I99
g5
tp1786
a(Vflight
p1787
Vdelight
p1788
g1785
Vb
g835
I99
g5
tp1789
a(g1787
Vnight
p1790
g1785
Vb
g835
I99
g5
tp1791
a(g1788
g1790
g1785
Vb
g835
I99
g5
tp1792
a(Vsouring
Vdevouring
g1785
Vc
g835
I99
g5
tp1793
a(Vconceit
p1794
Vreceipt
Vababbcc
p1795
Va
g835
I100
g5
tp1796
a(Vimagination
p1797
Vabomination
p1798
g1795
Vb
g835
I100
g5
tp1799
a(g1797
Vexclamation
p1800
g1795
Vb
g835
I100
g5
tp1801
a(g1798
g1800
g1795
Vb
g835
I100
g5
tp1802
a(Vdesire
Vtire
g1795
Vc
g835
I100
g5
tp1803
a(Vcheek
Vmeek
Vababbcc
p1804
Va
g835
I101
g5
tp1805
a(Vpace
p1806
Vcase
p1807
g1804
Vb
g835
I101
g5
tp1808
a(g1806
VGrace
p1809
g1804
Vb
g835
I101
g5
tp1810
a(g1807
g1809
g1804
Vb
g835
I101
g5
tp1811
a(Vdecays
Vprays
g1804
Vc
g835
I101
g5
tp1812
a(VRome
Vdoom
Vababbcc
p1813
Va
g835
I102
g5
tp1814
a(Vchased
p1815
Vdisgraced
p1816
g1813
Vb
g835
I102
g5
tp1817
a(g1815
Vdefaced
p1818
g1813
Vb
g835
I102
g5
tp1819
a(g1816
g1818
g1813
Vb
g835
I102
g5
tp1820
a(Vcares
Vfares
g1813
Vc
g835
I102
g5
tp1821
a(Vinsurrection
p1822
Vsubjection
p1823
Vababbcc
p1824
Va
g835
I103
g5
tp1825
a(Vwall
p1826
Vthrall
p1827
g1824
Vb
g835
I103
g5
tp1828
a(g1826
Vperpetual
p1829
g1824
Vb
g835
I103
g5
tp1830
a(g1827
g1829
g1824
Vb
g835
I103
g5
tp1831
a(Vstill
Vwill
g1824
Vc
g835
I103
g5
tp1832
a(Vstealeth
Vhealeth
Vababbcc
p1833
Va
g835
I104
g5
tp1834
a(Vgain
p1835
Vremain
p1836
g1833
Vb
g835
I104
g5
tp1837
a(g1835
Vpain
p1838
g1833
Vb
g835
I104
g5
tp1839
a(g1836
g1838
g1833
Vb
g835
I104
g5
tp1840
a(Vbehind
Vmind
g1833
Vc
g835
I104
g5
tp1841
a(Vthence
Voffence
Vababbcc
p1842
Va
g835
I105
g5
tp1843
a(Vthere
p1844
Vtear
p1845
g1842
Vb
g835
I105
g5
tp1846
a(g1844
Vfear
p1847
g1842
Vb
g835
I105
g5
tp1848
a(g1845
g1847
g1842
Vb
g835
I105
g5
tp1849
a(Vnight
Vdelight
g1842
Vc
g835
I105
g5
tp1850
a(Vconvertite
Vlight
Vababbcc
p1851
Va
g835
I106
g5
tp1852
a(Vcastaway
p1853
Vday
p1854
g1851
Vb
g835
I106
g5
tp1855
a(g1853
Vlay
p1856
g1851
Vb
g835
I106
g5
tp1857
a(g1854
g1856
g1851
Vb
g835
I106
g5
tp1858
a(Vhow
p1859
Vbrow
g1851
Vc
g835
I106
g5
tp1860
a(Vsee
p1861
Vbe
Vababbcc
p1862
Va
g835
I107
g5
tp1863
a(Vbehold
p1864
Vuntold
p1865
g1862
Vb
g835
I107
g5
tp1866
a(g1864
Vunfold
p1867
g1862
Vb
g835
I107
g5
tp1868
a(g1865
g1867
g1862
Vb
g835
I107
g5
tp1869
a(Vsteel
Vfeel
g1862
Vc
g835
I107
g5
tp1870
a(Vrest
Vbreast
Vababbcc
p1871
Va
g835
I108
g5
tp1872
a(Vblind
p1873
Vfind
p1874
g1871
Vb
g835
I108
g5
tp1875
a(g1873
Vmind
p1876
g1871
Vb
g835
I108
g5
tp1877
a(g1874
g1876
g1871
Vb
g835
I108
g5
tp1878
a(Vspite
p1879
Vnight
g1871
Vc
g835
I108
g5
tp1880
a(Vhell
Vfell
Vababbcc
p1881
Va
g835
I109
g5
tp1882
a(Vshame
p1883
Vblame
p1884
g1881
Vb
g835
I109
g5
tp1885
a(g1883
Vdefame
p1886
g1881
Vb
g835
I109
g5
tp1887
a(g1884
g1886
g1881
Vb
g835
I109
g5
tp1888
a(Vconspirator
p1889
Vravisher
g1881
Vc
g835
I109
g5
tp1890
a(VNight
Vlight
Vababbcc
p1891
Va
g835
I110
g5
tp1892
a(Vcrime
p1893
Vtime
p1894
g1891
Vb
g835
I110
g5
tp1895
a(g1893
Vclimb
p1896
g1891
Vb
g835
I110
g5
tp1897
a(g1894
g1896
g1891
Vb
g835
I110
g5
tp1898
a(Vbed
Vhead
g1891
Vc
g835
I110
g5
tp1899
a(Vair
Vfair
Vababbcc
p1900
Va
g835
I111
g5
tp1901
a(Vsick
p1902
Vprick
p1903
g1900
Vb
g835
I111
g5
tp1904
a(g1902
Vthick
p1905
g1900
Vb
g835
I111
g5
tp1906
a(g1903
g1905
g1900
Vb
g835
I111
g5
tp1907
a(Vlight
p1908
Vnight
g1900
Vc
g835
I111
g5
tp1909
a(Vchild
Vdefiled
Vababbcc
p1910
Va
g835
I112
g5
tp1911
a(Vdistain
p1912
Vagain
p1913
g1910
Vb
g835
I112
g5
tp1914
a(g1912
Vpain
p1915
g1910
Vb
g835
I112
g5
tp1916
a(g1913
g1915
g1910
Vb
g835
I112
g5
tp1917
a(Vassuage
Vpilgrimage
g1910
Vc
g835
I112
g5
tp1918
a(Vme
Vinfamy
Vababbcc
p1919
Va
g835
I113
g5
tp1920
a(Vmine
p1921
Vpine
p1922
g1919
Vb
g835
I113
g5
tp1923
a(g1921
Vbrine
p1924
g1919
Vb
g835
I113
g5
tp1925
a(g1922
g1924
g1919
Vb
g835
I113
g5
tp1926
a(Vgroans
Vmoans
g1919
Vc
g835
I113
g5
tp1927
a(Vsmoke
Vcloak
p1928
Vababbcc
p1929
Va
g835
I114
g5
tp1930
a(Vface
p1931
Vdisgrace
p1932
g1929
Vb
g835
I114
g5
tp1933
a(g1931
Vplace
p1934
g1929
Vb
g835
I114
g5
tp1935
a(g1932
g1934
g1929
Vb
g835
I114
g5
tp1936
a(Vmade
p1937
Vshade
g1929
Vc
g835
I114
g5
tp1938
a(VDay
Vdecay
Vababbcc
p1939
Va
g835
I115
g5
tp1940
a(Vbrow
p1941
Vvow
p1942
g1939
Vb
g835
I115
g5
tp1943
a(g1941
Vhow
p1944
g1939
Vb
g835
I115
g5
tp1945
a(g1942
g1944
g1939
Vb
g835
I115
g5
tp1946
a(Vbooks
Vlooks
g1939
Vc
g835
I115
g5
tp1947
a(Vstory
Voratory
Vababbcc
p1948
Va
g835
I116
g5
tp1949
a(Vname
p1950
Vshame
p1951
g1948
Vb
g835
I116
g5
tp1952
a(g1950
Vdefame
p1953
g1948
Vb
g835
I116
g5
tp1954
a(g1951
g1953
g1948
Vb
g835
I116
g5
tp1955
a(Vline
VCollatine
g1948
Vc
g835
I116
g5
tp1956
a(Vreputation
Vdisputation
Vababbcc
p1957
Va
g835
I117
g5
tp1958
a(Vunspotted
p1959
Vrotted
p1960
g1957
Vb
g835
I117
g5
tp1961
a(g1959
Vallotted
p1962
g1957
Vb
g835
I117
g5
tp1963
a(g1960
g1962
g1957
Vb
g835
I117
g5
tp1964
a(Vmine
p1965
VCollatine
g1957
Vc
g835
I117
g5
tp1966
a(Vdisgrace
Vface
Vababbcc
p1967
Va
g835
I118
g5
tp1968
a(Vscar
p1969
Vafar
p1970
g1967
Vb
g835
I118
g5
tp1971
a(g1969
Vwar
p1972
g1967
Vb
g835
I118
g5
tp1973
a(g1970
g1972
g1967
Vb
g835
I118
g5
tp1974
a(Vblows
Vknows
g1967
Vc
g835
I118
g5
tp1975
a(Vme
Vbee
Vababbcc
p1976
Va
g835
I119
g5
tp1977
a(Vbereft
p1978
Vleft
p1979
g1976
Vb
g835
I119
g5
tp1980
a(g1978
Vtheft
p1981
g1976
Vb
g835
I119
g5
tp1982
a(g1979
g1981
g1976
Vb
g835
I119
g5
tp1983
a(Vcrept
Vkept
g1976
Vc
g835
I119
g5
tp1984
a(Vwrack
Vback
Vababbcc
p1985
Va
g835
I120
g5
tp1986
a(Vhim
p1987
Vhim
p1988
g1985
Vb
g835
I120
g5
tp1989
a(g1987
Vhim
p1990
g1985
Vb
g835
I120
g5
tp1991
a(g1988
g1990
g1985
Vb
g835
I120
g5
tp1992
a(Vevil
Vdevil
g1985
Vc
g835
I120
g5
tp1993
a(Vbud
Vmud
Vababbcc
p1994
Va
g835
I121
g5
tp1995
a(Vnests
p1996
Vbreasts
p1997
g1994
Vb
g835
I121
g5
tp1998
a(g1996
Vbehests
p1999
g1994
Vb
g835
I121
g5
tp2000
a(g1997
g1999
g1994
Vb
g835
I121
g5
tp2001
a(Vabsolute
Vpollute
g1994
Vc
g835
I121
g5
tp2002
a(Vgold
p2003
Vbehold
Vababbcc
p2004
Va
g835
I122
g5
tp2005
a(Vfits
p2006
Vsits
p2007
g2004
Vb
g835
I122
g5
tp2008
a(g2006
Vwits
p2009
g2004
Vb
g835
I122
g5
tp2010
a(g2007
g2009
g2004
Vb
g835
I122
g5
tp2011
a(Vgain
p2012
Vpain
g2004
Vc
g835
I122
g5
tp2013
a(Vit
Vit
Vababbcc
p2014
Va
g835
I123
g5
tp2015
a(Vyoung
p2016
Vstrong
p2017
g2014
Vb
g835
I123
g5
tp2018
a(g2016
Vlong
p2019
g2014
Vb
g835
I123
g5
tp2020
a(g2017
g2019
g2014
Vb
g835
I123
g5
tp2021
a(Vsours
p2022
Vours
g2014
Vc
g835
I123
g5
tp2023
a(Vspring
Vsing
Vababbcc
p2024
Va
g835
I124
g5
tp2025
a(Vflowers
p2026
Vdevours
p2027
g2024
Vb
g835
I124
g5
tp2028
a(g2026
Vours
p2029
g2024
Vb
g835
I124
g5
tp2030
a(g2027
g2029
g2024
Vb
g835
I124
g5
tp2031
a(VOpportunity
p2032
Vquality
g2024
Vc
g835
I124
g5
tp2033
a(Vgreat
Vget
Vababbcc
p2034
Va
g835
I125
g5
tp2035
a(Vtreason
p2036
Vseason
p2037
g2034
Vb
g835
I125
g5
tp2038
a(g2036
Vreason
p2039
g2034
Vb
g835
I125
g5
tp2040
a(g2037
g2039
g2034
Vb
g835
I125
g5
tp2041
a(Vhim
Vhim
g2034
Vc
g835
I125
g5
tp2042
a(Voath
Vtroth
Vababbcc
p2043
Va
g835
I126
g5
tp2044
a(Vthaw'd
p2045
Vbawd
p2046
g2043
Vb
g835
I126
g5
tp2047
a(g2045
Vlaud
p2048
g2043
Vb
g835
I126
g5
tp2049
a(g2046
g2048
g2043
Vb
g835
I126
g5
tp2050
a(Vthief
Vgrief
g2043
Vc
g835
I126
g5
tp2051
a(Vshame
Vname
Vababbcc
p2052
Va
g835
I127
g5
tp2053
a(Vfast
p2054
Vtaste
p2055
g2052
Vb
g835
I127
g5
tp2056
a(g2054
Vlast
p2057
g2052
Vb
g835
I127
g5
tp2058
a(g2055
g2057
g2052
Vb
g835
I127
g5
tp2059
a(VOpportunity
Vthee
g2052
Vc
g835
I127
g5
tp2060
a(Vfriend
Vend
Vababbcc
p2061
Va
g835
I128
g5
tp2062
a(Vobtain'd
p2063
Vchain'd
p2064
g2061
Vb
g835
I128
g5
tp2065
a(g2063
Vpain'd
p2066
g2061
Vb
g835
I128
g5
tp2067
a(g2064
g2066
g2061
Vb
g835
I128
g5
tp2068
a(Vthee
VOpportunity
g2061
Vc
g835
I128
g5
tp2069
a(Vsleeps
Vweeps
Vababbcc
p2070
Va
g835
I129
g5
tp2071
a(Vfeeds
p2072
Vbreeds
p2073
g2070
Vb
g835
I129
g5
tp2074
a(g2072
Vdeeds
p2075
g2070
Vb
g835
I129
g5
tp2076
a(g2073
g2075
g2070
Vb
g835
I129
g5
tp2077
a(Vrages
Vpages
g2070
Vc
g835
I129
g5
tp2078
a(Vthee
Vfee
Vababbcc
p2079
Va
g835
I130
g5
tp2080
a(Vaid
p2081
Vappaid
p2082
g2079
Vb
g835
I130
g5
tp2083
a(g2081
Vsaid
p2084
g2079
Vb
g835
I130
g5
tp2085
a(g2082
g2084
g2079
Vb
g835
I130
g5
tp2086
a(Vme
p2087
Vthee
g2079
Vc
g835
I130
g5
tp2088
a(Vtheft
Vshift
Vababbcc
p2089
Va
g835
I131
g5
tp2090
a(Vsubornation
p2091
Vabomination
p2092
g2089
Vb
g835
I131
g5
tp2093
a(g2091
Vinclination
p2094
g2089
Vb
g835
I131
g5
tp2095
a(g2092
g2094
g2089
Vb
g835
I131
g5
tp2096
a(Vcome
Vdoom
g2089
Vc
g835
I131
g5
tp2097
a(VNight
Vdelight
Vababbcc
p2098
Va
g835
I132
g5
tp2099
a(Vcare
p2100
Vsnare
p2101
g2098
Vb
g835
I132
g5
tp2102
a(g2100
Vare
p2103
g2098
Vb
g835
I132
g5
tp2104
a(g2101
g2103
g2098
Vb
g835
I132
g5
tp2105
a(VTime
Vcrime
g2098
Vc
g835
I132
g5
tp2106
a(VOpportunity
Vme
p2107
Vababbcc
p2108
Va
g835
I133
g5
tp2109
a(Vrepose
p2110
Vwoes
p2111
g2108
Vb
g835
I133
g5
tp2112
a(g2110
Vfoes
p2113
g2108
Vb
g835
I133
g5
tp2114
a(g2111
g2113
g2108
Vb
g835
I133
g5
tp2115
a(Vbred
Vbed
g2108
Vc
g835
I133
g5
tp2116
a(Vkings
Vthings
Vababbcc
p2117
Va
g835
I134
g5
tp2118
a(Vlight
p2119
Vnight
p2120
g2117
Vb
g835
I134
g5
tp2121
a(g2119
Vright
p2122
g2117
Vb
g835
I134
g5
tp2123
a(g2120
g2122
g2117
Vb
g835
I134
g5
tp2124
a(Vhours
Vtowers
g2117
Vc
g835
I134
g5
tp2125
a(Vmonuments
Vcontents
Vababbcc
p2126
Va
g835
I135
g5
tp2127
a(Vthings
p2128
Vwings
p2129
g2126
Vb
g835
I135
g5
tp2130
a(g2128
Vsprings
p2131
g2126
Vb
g835
I135
g5
tp2132
a(g2129
g2131
g2126
Vb
g835
I135
g5
tp2133
a(Vsteel
Vwheel
g2126
Vc
g835
I135
g5
tp2134
a(Vdaughter
Vslaughter
Vababbcc
p2135
Va
g835
I136
g5
tp2136
a(Vchild
p2137
Vwild
p2138
g2135
Vb
g835
I136
g5
tp2139
a(g2137
Vbeguiled
p2140
g2135
Vb
g835
I136
g5
tp2141
a(g2138
g2140
g2135
Vb
g835
I136
g5
tp2142
a(Vcrops
Vdrops
g2135
Vc
g835
I136
g5
tp2143
a(Vpilgrimage
Vage
p2144
Vababbcc
p2145
Va
g835
I137
g5
tp2146
a(Vamends
p2147
Vfriends
p2148
g2145
Vb
g835
I137
g5
tp2149
a(g2147
Vlends
p2150
g2145
Vb
g835
I137
g5
tp2151
a(g2148
g2150
g2145
Vb
g835
I137
g5
tp2152
a(Vback
Vwrack
g2145
Vc
g835
I137
g5
tp2153
a(Veternity
Vextremity
Vababbcc
p2154
Va
g835
I138
g5
tp2155
a(Vflight
p2156
Vnight
p2157
g2154
Vb
g835
I138
g5
tp2158
a(g2156
Vaffright
p2159
g2154
Vb
g835
I138
g5
tp2160
a(g2157
g2159
g2154
Vb
g835
I138
g5
tp2161
a(Vevil
p2162
Vdevil
g2154
Vc
g835
I138
g5
tp2163
a(Vtrances
Vmischances
Vababbcc
p2164
Va
g835
I139
g5
tp2165
a(Vgroans
p2166
Vmoans
p2167
g2164
Vb
g835
I139
g5
tp2168
a(g2166
Vstones
p2169
g2164
Vb
g835
I139
g5
tp2170
a(g2167
g2169
g2164
Vb
g835
I139
g5
tp2171
a(Vmildness
Vwildness
g2164
Vc
g835
I139
g5
tp2172
a(Vhair
Vdespair
Vababbcc
p2173
Va
g835
I140
g5
tp2174
a(Vrave
p2175
Vslave
p2176
g2173
Vb
g835
I140
g5
tp2177
a(g2175
Vcrave
p2178
g2173
Vb
g835
I140
g5
tp2179
a(g2176
g2178
g2173
Vb
g835
I140
g5
tp2180
a(Vlive
p2181
Vgive
g2173
Vc
g835
I140
g5
tp2182
a(Vfoes
Vgoes
p2183
Vababbcc
p2184
Va
g835
I141
g5
tp2185
a(Vresort
p2186
Vshort
p2187
g2184
Vb
g835
I141
g5
tp2188
a(g2186
Vsport
p2189
g2184
Vb
g835
I141
g5
tp2190
a(g2187
g2189
g2184
Vb
g835
I141
g5
tp2191
a(Vcrime
p2192
Vtime
g2184
Vc
g835
I141
g5
tp2193
a(Vbad
Vmad
Vababbcc
p2194
Va
g835
I142
g5
tp2195
a(Vill
p2196
Vkill
p2197
g2194
Vb
g835
I142
g5
tp2198
a(g2196
Vspill
p2199
g2194
Vb
g835
I142
g5
tp2200
a(g2197
g2199
g2194
Vb
g835
I142
g5
tp2201
a(Vhave
p2202
Vslave
g2194
Vc
g835
I142
g5
tp2203
a(Vking
Vthing
p2204
Vababbcc
p2205
Va
g835
I143
g5
tp2206
a(Vdegenerate
p2207
Vhate
p2208
g2205
Vb
g835
I143
g5
tp2209
a(g2207
Vstate
p2210
g2205
Vb
g835
I143
g5
tp2211
a(g2208
g2210
g2205
Vb
g835
I143
g5
tp2212
a(Vmiss'd
Vlist
g2205
Vc
g835
I143
g5
tp2213
a(Vmire
Vdesire
Vababbcc
p2214
Va
g835
I144
g5
tp2215
a(Vaway
p2216
Vstay
p2217
g2214
Vb
g835
I144
g5
tp2218
a(g2216
Vday
p2219
g2214
Vb
g835
I144
g5
tp2220
a(g2217
g2219
g2214
Vb
g835
I144
g5
tp2221
a(Vfly
Veye
g2214
Vc
g835
I144
g5
tp2222
a(Vfools
Vschools
Vababbcc
p2223
Va
g835
I145
g5
tp2224
a(Varbitrators
p2225
Vdebaters
p2226
g2223
Vb
g835
I145
g5
tp2227
a(g2225
Vmediators
p2228
g2223
Vb
g835
I145
g5
tp2229
a(g2226
g2228
g2223
Vb
g835
I145
g5
tp2230
a(Vstraw
Vlaw
g2223
Vc
g835
I145
g5
tp2231
a(VOpportunity
Vinfamy
Vababbcc
p2232
Va
g835
I146
g5
tp2233
a(VNight
p2234
Vdespite
p2235
g2232
Vb
g835
I146
g5
tp2236
a(g2234
Vright
p2237
g2232
Vb
g835
I146
g5
tp2238
a(g2235
g2237
g2232
Vb
g835
I146
g5
tp2239
a(Vgood
p2240
Vblood
g2232
Vc
g835
I146
g5
tp2241
a(Vdecree
Vthee
Vababbcc
p2242
Va
g835
I147
g5
tp2243
a(Vshame
p2244
Vdefame
p2245
g2242
Vb
g835
I147
g5
tp2246
a(g2244
Vdame
p2247
g2242
Vb
g835
I147
g5
tp2248
a(g2245
g2247
g2242
Vb
g835
I147
g5
tp2249
a(Vfoe
Vso
g2242
Vc
g835
I147
g5
tp2250
a(Vstarteth
Vimparteth
p2251
Vababbcc
p2252
Va
g835
I148
g5
tp2253
a(Vdeath
p2254
Vbreath
p2255
g2252
Vb
g835
I148
g5
tp2256
a(g2254
Vvanisheth
p2257
g2252
Vb
g835
I148
g5
tp2258
a(g2255
g2257
g2252
Vb
g835
I148
g5
tp2259
a(Vconsumes
Vfumes
g2252
Vc
g835
I148
g5
tp2260
a(Vvain
p2261
Vslain
Vababbcc
p2262
Va
g835
I149
g5
tp2263
a(Vlife
p2264
Vknife
p2265
g2262
Vb
g835
I149
g5
tp2266
a(g2264
Vwife
p2267
g2262
Vb
g835
I149
g5
tp2268
a(g2265
g2267
g2262
Vb
g835
I149
g5
tp2269
a(Vbe
Vme
g2262
Vc
g835
I149
g5
tp2270
a(Vlive
Vgive
p2271
Vababbcc
p2272
Va
g835
I150
g5
tp2273
a(Vdie
p2274
Vlivery
p2275
g2272
Vb
g835
I150
g5
tp2276
a(g2274
Vinfamy
p2277
g2272
Vb
g835
I150
g5
tp2278
a(g2275
g2277
g2272
Vb
g835
I150
g5
tp2279
a(Vaway
Vlay
g2272
Vc
g835
I150
g5
tp2280
a(Vknow
p2281
Vso
Vababbcc
p2282
Va
g835
I151
g5
tp2283
a(Vtroth
p2284
Voath
p2285
g2282
Vb
g835
I151
g5
tp2286
a(g2284
Vgrowth
p2287
g2282
Vb
g835
I151
g5
tp2288
a(g2285
g2287
g2282
Vb
g835
I151
g5
tp2289
a(Vpollute
p2290
Vfruit
g2282
Vc
g835
I151
g5
tp2291
a(Vthought
Vbought
p2292
Vababbcc
p2293
Va
g835
I152
g5
tp2294
a(Vstate
p2295
Vgate
p2296
g2293
Vb
g835
I152
g5
tp2297
a(g2295
Vfate
p2298
g2293
Vb
g835
I152
g5
tp2299
a(g2296
g2298
g2293
Vb
g835
I152
g5
tp2300
a(Vdispense
Voffence
g2293
Vc
g835
I152
g5
tp2301
a(Vattaint
Vpaint
Vababbcc
p2302
Va
g835
I153
g5
tp2303
a(Vexcuses
p2304
Vabuses
p2305
g2302
Vb
g835
I153
g5
tp2306
a(g2304
Vsluices
p2307
g2302
Vb
g835
I153
g5
tp2308
a(g2305
g2307
g2302
Vb
g835
I153
g5
tp2309
a(Vdale
Vtale
g2302
Vc
g835
I153
g5
tp2310
a(Vended
p2311
Vdescended
p2312
Vababbcc
p2313
Va
g835
I154
g5
tp2314
a(Vsorrow
p2315
Vmorrow
p2316
g2313
Vb
g835
I154
g5
tp2317
a(g2315
Vborrow
p2318
g2313
Vb
g835
I154
g5
tp2319
a(g2316
g2318
g2313
Vb
g835
I154
g5
tp2320
a(Vsee
Vbe
g2313
Vc
g835
I154
g5
tp2321
a(Vspies
Veyes
Vababbcc
p2322
Va
g835
I155
g5
tp2323
a(Vweeping
p2324
Vpeeping
p2325
g2322
Vb
g835
I155
g5
tp2326
a(g2324
Vsleeping
p2327
g2322
Vb
g835
I155
g5
tp2328
a(g2325
g2327
g2322
Vb
g835
I155
g5
tp2329
a(Vlight
Vnight
g2322
Vc
g835
I155
g5
tp2330
a(Vsees
Vagrees
Vababbcc
p2331
Va
g835
I156
g5
tp2332
a(Vchild
p2333
Vmild
p2334
g2331
Vb
g835
I156
g5
tp2335
a(g2333
Vwild
p2336
g2331
Vb
g835
I156
g5
tp2337
a(g2334
g2336
g2331
Vb
g835
I156
g5
tp2338
a(Vstill
Vskill
g2331
Vc
g835
I156
g5
tp2339
a(Vcare
Vcompare
Vababbcc
p2340
Va
g835
I157
g5
tp2341
a(Vviews
p2342
Vrenews
p2343
g2340
Vb
g835
I157
g5
tp2344
a(g2342
Vensues
p2345
g2340
Vb
g835
I157
g5
tp2346
a(g2343
g2345
g2340
Vb
g835
I157
g5
tp2347
a(Vwords
Vaffords
g2340
Vc
g835
I157
g5
tp2348
a(Vjoy
p2349
Vannoy
Vababbcc
p2350
Va
g835
I158
g5
tp2351
a(Vmelody
p2352
Vcompany
p2353
g2350
Vb
g835
I158
g5
tp2354
a(g2352
Vsociety
p2355
g2350
Vb
g835
I158
g5
tp2356
a(g2353
g2355
g2350
Vb
g835
I158
g5
tp2357
a(Vsufficed
p2358
Vsympathized
g2350
Vc
g835
I158
g5
tp2359
a(Vshore
Vmore
Vababbcc
p2360
Va
g835
I159
g5
tp2361
a(Vfood
p2362
Vgood
p2363
g2360
Vb
g835
I159
g5
tp2364
a(g2362
Vflood
p2365
g2360
Vb
g835
I159
g5
tp2366
a(g2363
g2365
g2360
Vb
g835
I159
g5
tp2367
a(Vo'erflows
Vknows
g2360
Vc
g835
I159
g5
tp2368
a(Ventomb
p2369
Vdumb
Vababbcc
p2370
Va
g835
I160
g5
tp2371
a(Vbreasts
p2372
Vrests
p2373
g2370
Vb
g835
I160
g5
tp2374
a(g2372
Vguests
p2375
g2370
Vb
g835
I160
g5
tp2376
a(g2373
g2375
g2370
Vb
g835
I160
g5
tp2377
a(Vears
Vtears
g2370
Vc
g835
I160
g5
tp2378
a(Vravishment
Vlanguishment
Vababbcc
p2379
Va
g835
I161
g5
tp2380
a(Vhair
p2381
Vtear
p2382
g2379
Vb
g835
I161
g5
tp2383
a(g2381
Vbear
p2384
g2379
Vb
g835
I161
g5
tp2385
a(g2382
g2384
g2379
Vb
g835
I161
g5
tp2386
a(Vstill
Vskill
g2379
Vc
g835
I161
g5
tp2387
a(Vpart
Vheart
p2388
Vababbcc
p2389
Va
g835
I162
g5
tp2390
a(VI
Veye
p2391
g2389
Vb
g835
I162
g5
tp2392
a(VI
Vdie
p2393
g2389
Vb
g835
I162
g5
tp2394
a(g2391
g2393
g2389
Vb
g835
I162
g5
tp2395
a(Vinstrument
Vlanguishment
g2389
Vc
g835
I162
g5
tp2396
a(Vday
Vway
Vababbcc
p2397
Va
g835
I163
g5
tp2398
a(Vbehold
p2399
Vcold
p2400
g2397
Vb
g835
I163
g5
tp2401
a(g2399
Vunfold
p2402
g2397
Vb
g835
I163
g5
tp2403
a(g2400
g2402
g2397
Vb
g835
I163
g5
tp2404
a(Vkinds
Vminds
g2397
Vc
g835
I163
g5
tp2405
a(Vgaze
Vmaze
Vababbcc
p2406
Va
g835
I164
g5
tp2407
a(Vfly
p2408
Vreadily
p2409
g2406
Vb
g835
I164
g5
tp2410
a(g2408
Vmutiny
p2411
g2406
Vb
g835
I164
g5
tp2412
a(g2409
g2411
g2406
Vb
g835
I164
g5
tp2413
a(Vbetter
Vdebtor
g2406
Vc
g835
I164
g5
tp2414
a(Vit
Vit
p2415
Vababbcc
p2416
Va
g835
I165
g5
tp2417
a(Vpollution
p2418
Vconfusion
p2419
g2416
Vb
g835
I165
g5
tp2420
a(g2418
Vconclusion
p2421
g2416
Vb
g835
I165
g5
tp2422
a(g2419
g2421
g2416
Vb
g835
I165
g5
tp2423
a(Vone
Vnone
g2416
Vc
g835
I165
g5
tp2424
a(Vdearer
Vnearer
Vababbcc
p2425
Va
g835
I166
g5
tp2426
a(Vdivine
p2427
VCollatine
p2428
g2425
Vb
g835
I166
g5
tp2429
a(g2427
Vpine
p2430
g2425
Vb
g835
I166
g5
tp2431
a(g2428
g2430
g2425
Vb
g835
I166
g5
tp2432
a(Vdecay
Vaway
g2425
Vc
g835
I166
g5
tp2433
a(Vinterrupted
Vcorrupted
Vababbcc
p2434
Va
g835
I167
g5
tp2435
a(Venemy
p2436
Vinfamy
p2437
g2434
Vb
g835
I167
g5
tp2438
a(g2436
Vimpiety
p2439
g2434
Vb
g835
I167
g5
tp2440
a(g2437
g2439
g2434
Vb
g835
I167
g5
tp2441
a(Vhole
p2442
Vsoul
g2434
Vc
g835
I167
g5
tp2443
a(VCollatine
p2444
Vmine
Vababbcc
p2445
Va
g835
I168
g5
tp2446
a(Vdeath
p2447
Vbreath
p2448
g2445
Vb
g835
I168
g5
tp2449
a(g2447
Vbequeath
p2450
g2445
Vb
g835
I168
g5
tp2451
a(g2448
g2450
g2445
Vb
g835
I168
g5
tp2452
a(Vspent
Vtestament
g2445
Vc
g835
I168
g5
tp2453
a(Vknife
p2454
Vlife
Vababbcc
p2455
Va
g835
I169
g5
tp2456
a(Vdishonoured
p2457
Vdead
p2458
g2455
Vb
g835
I169
g5
tp2459
a(g2457
Vbred
p2460
g2455
Vb
g835
I169
g5
tp2461
a(g2458
g2460
g2455
Vb
g835
I169
g5
tp2462
a(Vscorn
Vnew-born
g2455
Vc
g835
I169
g5
tp2463
a(Vlost
Vboast
Vababbcc
p2464
Va
g835
I170
g5
tp2465
a(Vthee
p2466
Vbe
p2467
g2464
Vb
g835
I170
g5
tp2468
a(g2466
Vme
p2469
g2464
Vb
g835
I170
g5
tp2470
a(g2467
g2469
g2464
Vb
g835
I170
g5
tp2471
a(Vfoe
Vso
g2464
Vc
g835
I170
g5
tp2472
a(Vmake
Vtake
Vababbcc
p2473
Va
g835
I171
g5
tp2474
a(Vground
p2475
Vwound
p2476
g2473
Vb
g835
I171
g5
tp2477
a(g2475
Vconfound
p2478
g2473
Vb
g835
I171
g5
tp2479
a(g2476
g2478
g2473
Vb
g835
I171
g5
tp2480
a(Vbe
p2481
Vme
g2473
Vc
g835
I171
g5
tp2482
a(Vwill
Vill
Vababbcc
p2483
Va
g835
I172
g5
tp2484
a(Vit
p2485
Vit
p2486
g2483
Vb
g835
I172
g5
tp2487
a(g2485
Vit
p2488
g2483
Vb
g835
I172
g5
tp2489
a(g2486
g2488
g2483
Vb
g835
I172
g5
tp2490
a(Vthee
Vbe
g2483
Vc
g835
I172
g5
tp2491
a(Vlaid
Vmaid
Vababbcc
p2492
Va
g835
I173
g5
tp2493
a(Veyes
p2494
Vhies
p2495
g2492
Vb
g835
I173
g5
tp2496
a(g2494
Vflies
p2497
g2492
Vb
g835
I173
g5
tp2498
a(g2495
g2497
g2492
Vb
g835
I173
g5
tp2499
a(Vso
p2500
Vsnow
g2492
Vc
g835
I173
g5
tp2501
a(Vgood-morrow
Vsorrow
Vababbcc
p2502
Va
g835
I174
g5
tp2503
a(Vmodesty
p2504
Vlivery
p2505
g2502
Vb
g835
I174
g5
tp2506
a(g2504
Vaudaciously
p2507
g2502
Vb
g835
I174
g5
tp2508
a(g2505
g2507
g2502
Vb
g835
I174
g5
tp2509
a(Vso
Vwoe
g2502
Vc
g835
I174
g5
tp2510
a(Vset
Vwet
p2511
Vababbcc
p2512
Va
g835
I175
g5
tp2513
a(Veye
p2514
Vsympathy
p2515
g2512
Vb
g835
I175
g5
tp2516
a(g2514
Vsky
p2517
g2512
Vb
g835
I175
g5
tp2518
a(g2515
g2517
g2512
Vb
g835
I175
g5
tp2519
a(Vlight
Vnight
g2512
Vc
g835
I175
g5
tp2520
a(Vstand
Vhand
p2521
Vababbcc
p2522
Va
g835
I176
g5
tp2523
a(Vfilling
p2524
Vspilling
p2525
g2522
Vb
g835
I176
g5
tp2526
a(g2524
Vwilling
p2527
g2522
Vb
g835
I176
g5
tp2528
a(g2525
g2527
g2522
Vb
g835
I176
g5
tp2529
a(Vsmarts
Vhearts
g2522
Vc
g835
I176
g5
tp2530
a(Vminds
Vkinds
p2531
Vababbcc
p2532
Va
g835
I177
g5
tp2533
a(Vwill
p2534
Vskill
p2535
g2532
Vb
g835
I177
g5
tp2536
a(g2534
Vill
p2537
g2532
Vb
g835
I177
g5
tp2538
a(g2535
g2537
g2532
Vb
g835
I177
g5
tp2539
a(Vevil
p2540
Vdevil
g2532
Vc
g835
I177
g5
tp2541
a(Vplain
Vremain
p2542
Vababbcc
p2543
Va
g835
I178
g5
tp2544
a(Vcreep
p2545
Vsleep
p2546
g2543
Vb
g835
I178
g5
tp2547
a(g2545
Vpeep
p2548
g2543
Vb
g835
I178
g5
tp2549
a(g2546
g2548
g2543
Vb
g835
I178
g5
tp2550
a(Vlooks
Vbooks
g2543
Vc
g835
I178
g5
tp2551
a(Vflower
Vdevour
Vababbcc
p2552
Va
g835
I179
g5
tp2553
a(Vkill'd
p2554
Vhild
p2555
g2552
Vb
g835
I179
g5
tp2556
a(g2554
Vfulfill'd
p2557
g2552
Vb
g835
I179
g5
tp2558
a(g2555
g2557
g2552
Vb
g835
I179
g5
tp2559
a(Vblame
Vshame
g2552
Vc
g835
I179
g5
tp2560
a(Vview
Vensue
p2561
Vababbcc
p2562
Va
g835
I180
g5
tp2563
a(Vstrong
p2564
Vwrong
p2565
g2562
Vb
g835
I180
g5
tp2566
a(g2564
Vbelong
p2567
g2562
Vb
g835
I180
g5
tp2568
a(g2565
g2567
g2562
Vb
g835
I180
g5
tp2569
a(Vspread
Vdead
g2562
Vc
g835
I180
g5
tp2570
a(Vspeak
p2571
Vbreak
p2572
Vababbcc
p2573
Va
g835
I181
g5
tp2574
a(Vcomplaining
p2575
Vraining
p2576
g2573
Vb
g835
I181
g5
tp2577
a(g2575
Vsustaining
p2578
g2573
Vb
g835
I181
g5
tp2579
a(g2576
g2578
g2573
Vb
g835
I181
g5
tp2580
a(Vmood
Vgood
g2573
Vc
g835
I181
g5
tp2581
a(Vstay'd
p2582
Vmaid
Vababbcc
p2583
Va
g835
I182
g5
tp2584
a(Vhence
p2585
Vnegligence
p2586
g2583
Vb
g835
I182
g5
tp2587
a(g2585
Vdispense
p2588
g2583
Vb
g835
I182
g5
tp2589
a(g2586
g2588
g2583
Vb
g835
I182
g5
tp2590
a(Vday
Vaway
g2583
Vc
g835
I182
g5
tp2591
a(Vbold
Vtold
Vababbcc
p2592
Va
g835
I183
g5
tp2593
a(Vheaviness
p2594
Vless
p2595
g2592
Vb
g835
I183
g5
tp2596
a(g2594
Vexpress
p2597
g2592
Vb
g835
I183
g5
tp2598
a(g2595
g2597
g2592
Vb
g835
I183
g5
tp2599
a(Vhell
p2600
Vtell
g2592
Vc
g835
I183
g5
tp2601
a(Vpen
Vmen
p2602
Vababbcc
p2603
Va
g835
I184
g5
tp2604
a(Vhere
p2605
Vbear
p2606
g2603
Vb
g835
I184
g5
tp2607
a(g2605
Vdear
p2608
g2603
Vb
g835
I184
g5
tp2609
a(g2606
g2608
g2603
Vb
g835
I184
g5
tp2610
a(Vit
Vwrit
g2603
Vc
g835
I184
g5
tp2611
a(Vwrite
Vfight
Vababbcc
p2612
Va
g835
I185
g5
tp2613
a(Vquill
p2614
Vwill
p2615
g2612
Vb
g835
I185
g5
tp2616
a(g2614
Vill
p2617
g2612
Vb
g835
I185
g5
tp2618
a(g2615
g2617
g2612
Vb
g835
I185
g5
tp2619
a(Vdoor
Vbefore
g2612
Vc
g835
I185
g5
tp2620
a(Vlord
p2621
Vafford
Vababbcc
p2622
Va
g835
I186
g5
tp2623
a(Vthee
p2624
Vsee
p2625
g2622
Vb
g835
I186
g5
tp2626
a(g2624
Vme
p2627
g2622
Vb
g835
I186
g5
tp2628
a(g2625
g2627
g2622
Vb
g835
I186
g5
tp2629
a(Vgrief
Vbrief
g2622
Vc
g835
I186
g5
tp2630
a(Vwoe
Vknow
p2631
Vababbcc
p2632
Va
g835
I187
g5
tp2633
a(Vuncertainly
p2634
Vquality
p2635
g2632
Vb
g835
I187
g5
tp2636
a(g2634
Vdiscovery
p2637
g2632
Vb
g835
I187
g5
tp2638
a(g2635
g2637
g2632
Vb
g835
I187
g5
tp2639
a(Vabuse
Vexcuse
g2632
Vc
g835
I187
g5
tp2640
a(Vpassion
p2641
Vfashion
p2642
Vababbcc
p2643
Va
g835
I188
g5
tp2644
a(Vher
p2645
Vher
p2646
g2643
Vb
g835
I188
g5
tp2647
a(g2645
Vher
p2648
g2643
Vb
g835
I188
g5
tp2649
a(g2646
g2648
g2643
Vb
g835
I188
g5
tp2650
a(Vletter
p2651
Vbetter
g2643
Vc
g835
I188
g5
tp2652
a(Vtold
Vbehold
Vababbcc
p2653
Va
g835
I189
g5
tp2654
a(Vear
p2655
Vbear
p2656
g2653
Vb
g835
I189
g5
tp2657
a(g2655
Vhear
p2658
g2653
Vb
g835
I189
g5
tp2659
a(g2656
g2658
g2653
Vb
g835
I189
g5
tp2660
a(Vfords
Vwords
g2653
Vc
g835
I189
g5
tp2661
a(Vwrit
p2662
Vit
Vababbcc
p2663
Va
g835
I190
g5
tp2664
a(Vhaste
p2665
Vfast
p2666
g2663
Vb
g835
I190
g5
tp2667
a(g2665
Vblast
p2668
g2663
Vb
g835
I190
g5
tp2669
a(g2666
g2668
g2663
Vb
g835
I190
g5
tp2670
a(Vdeems
Vextremes
g2663
Vc
g835
I190
g5
tp2671
a(Vlow
Vno
Vababbcc
p2672
Va
g835
I191
g5
tp2673
a(Veye
p2674
Vhie
p2675
g2672
Vb
g835
I191
g5
tp2676
a(g2674
Vlie
p2677
g2672
Vb
g835
I191
g5
tp2678
a(g2675
g2677
g2672
Vb
g835
I191
g5
tp2679
a(Vblame
Vshame
g2672
Vc
g835
I191
g5
tp2680
a(Vdefect
p2681
Vrespect
p2682
Vababbcc
p2683
Va
g835
I192
g5
tp2684
a(Vaudacity
p2685
Vsaucily
p2686
g2683
Vb
g835
I192
g5
tp2687
a(g2685
Vleisurely
p2688
g2683
Vb
g835
I192
g5
tp2689
a(g2686
g2688
g2683
Vb
g835
I192
g5
tp2690
a(Vage
p2691
Vgage
g2683
Vc
g835
I192
g5
tp2692
a(Vmistrust
Vlust
Vababbcc
p2693
Va
g835
I193
g5
tp2694
a(Vblazed
p2695
Vgazed
p2696
g2693
Vb
g835
I193
g5
tp2697
a(g2695
Vamazed
p2698
g2693
Vb
g835
I193
g5
tp2699
a(g2696
g2698
g2693
Vb
g835
I193
g5
tp2700
a(Vreplenish
Vblemish
g2693
Vc
g835
I193
g5
tp2701
a(Vagain
Ventertain
Vababbcc
p2702
Va
g835
I194
g5
tp2703
a(Vgone
p2704
Vgroan
p2705
g2702
Vb
g835
I194
g5
tp2706
a(g2704
Vmoan
p2707
g2702
Vb
g835
I194
g5
tp2708
a(g2705
g2707
g2702
Vb
g835
I194
g5
tp2709
a(Vstay
Vway
g2702
Vc
g835
I194
g5
tp2710
a(Vpiece
p2711
VGreece
Vababbcc
p2712
Va
g835
I195
g5
tp2713
a(VTroy
p2714
Vdestroy
p2715
g2712
Vb
g835
I195
g5
tp2716
a(g2714
Vannoy
p2717
g2712
Vb
g835
I195
g5
tp2718
a(g2715
g2717
g2712
Vb
g835
I195
g5
tp2719
a(Vproud
Vbow'd
g2712
Vc
g835
I195
g5
tp2720
a(Vthere
Vtear
Vababbcc
p2721
Va
g835
I196
g5
tp2722
a(Vlife
p2723
Vwife
p2724
g2721
Vb
g835
I196
g5
tp2725
a(g2723
Vstrife
p2726
g2721
Vb
g835
I196
g5
tp2727
a(g2724
g2726
g2721
Vb
g835
I196
g5
tp2728
a(Vlights
Vnights
g2721
Vc
g835
I196
g5
tp2729
a(Vpioner
p2730
Vappear
p2731
Vababbcc
p2732
Va
g835
I197
g5
tp2733
a(Vdust
p2734
Vthrust
p2735
g2732
Vb
g835
I197
g5
tp2736
a(g2734
Vlust
p2737
g2732
Vb
g835
I197
g5
tp2738
a(g2735
g2737
g2732
Vb
g835
I197
g5
tp2739
a(Vhad
Vsad
g2732
Vc
g835
I197
g5
tp2740
a(Vmajesty
p2741
Vdexterity
Vababcc
p2742
Va
g835
I198
g5
tp2743
a(Vfaces
Vpaces
g2742
Vb
g835
I198
g5
tp2744
a(Vresemble
Vtremble
g2742
Vc
g835
I198
g5
tp2745
a(Vart
p2746
Vheart
Vababbcc
p2747
Va
g835
I199
g5
tp2748
a(Vbehold
p2749
Vtold
p2750
g2747
Vb
g835
I199
g5
tp2751
a(g2749
Vroll'd
p2752
g2747
Vb
g835
I199
g5
tp2753
a(g2750
g2752
g2747
Vb
g835
I199
g5
tp2754
a(Vlent
p2755
Vgovernment
g2747
Vc
g835
I199
g5
tp2756
a(Vstand
Vhand
Vababbcc
p2757
Va
g835
I200
g5
tp2758
a(Vfight
p2759
Vsight
p2760
g2757
Vb
g835
I200
g5
tp2761
a(g2759
Vwhite
p2762
g2757
Vb
g835
I200
g5
tp2763
a(g2760
g2762
g2757
Vb
g835
I200
g5
tp2764
a(Vfly
p2765
Vsky
g2757
Vc
g835
I200
g5
tp2766
a(Vfaces
Vgraces
Vababbcc
p2767
Va
g835
I201
g5
tp2768
a(Vadvice
p2769
Ventice
p2770
g2767
Vb
g835
I201
g5
tp2771
a(g2769
Vnice
p2772
g2767
Vb
g835
I201
g5
tp2773
a(g2770
g2772
g2767
Vb
g835
I201
g5
tp2774
a(Vbehind
Vmind
g2767
Vc
g835
I201
g5
tp2775
a(Vhead
Vred
Vababbcc
p2776
Va
g835
I202
g5
tp2777
a(Vear
p2778
Vswear
p2779
g2776
Vb
g835
I202
g5
tp2780
a(g2778
Vbear
p2781
g2776
Vb
g835
I202
g5
tp2782
a(g2779
g2781
g2776
Vb
g835
I202
g5
tp2783
a(Vwords
Vswords
g2776
Vc
g835
I202
g5
tp2784
a(Vthere
Vspear
Vababbcc
p2785
Va
g835
I203
g5
tp2786
a(Vkind
p2787
Vbehind
p2788
g2785
Vb
g835
I203
g5
tp2789
a(g2787
Vmind
p2790
g2785
Vb
g835
I203
g5
tp2791
a(g2788
g2790
g2785
Vb
g835
I203
g5
tp2792
a(Vhead
Vimagined
g2785
Vc
g835
I203
g5
tp2793
a(VTroy
p2794
Vjoy
p2795
Vababbcc
p2796
Va
g835
I204
g5
tp2797
a(Vfield
p2798
Vwield
p2799
g2796
Vb
g835
I204
g5
tp2800
a(g2798
Vyield
p2801
g2796
Vb
g835
I204
g5
tp2802
a(g2799
g2801
g2796
Vb
g835
I204
g5
tp2803
a(Vappear
Vfear
g2796
Vc
g835
I204
g5
tp2804
a(Vfought
Vsought
p2805
Vababbcc
p2806
Va
g835
I205
g5
tp2807
a(Vran
p2808
Vbegan
p2809
g2806
Vb
g835
I205
g5
tp2810
a(g2808
Vthan
p2811
g2806
Vb
g835
I205
g5
tp2812
a(g2809
g2811
g2806
Vb
g835
I205
g5
tp2813
a(Vranks
Vbanks
g2806
Vc
g835
I205
g5
tp2814
a(Vcome
Vsome
Vababbcc
p2815
Va
g835
I206
g5
tp2816
a(Vstell'd
p2817
Vdwell'd
p2818
g2815
Vb
g835
I206
g5
tp2819
a(g2817
Vbeheld
p2820
g2815
Vb
g835
I206
g5
tp2821
a(g2818
g2820
g2815
Vb
g835
I206
g5
tp2822
a(Veyes
Vlies
g2815
Vc
g835
I206
g5
tp2823
a(Vanatomized
p2824
Vdisguised
Vababbcc
p2825
Va
g835
I207
g5
tp2826
a(Vreign
p2827
Vremain
p2828
g2825
Vb
g835
I207
g5
tp2829
a(g2827
Vvein
p2830
g2825
Vb
g835
I207
g5
tp2831
a(g2828
g2830
g2825
Vb
g835
I207
g5
tp2832
a(Vfed
Vdead
g2825
Vc
g835
I207
g5
tp2833
a(Veyes
Vcries
Vababbcc
p2834
Va
g835
I208
g5
tp2835
a(Vwoes
p2836
Vfoes
p2837
g2834
Vb
g835
I208
g5
tp2838
a(g2836
Vthose
p2839
g2834
Vb
g835
I208
g5
tp2840
a(g2837
g2839
g2834
Vb
g835
I208
g5
tp2841
a(Vwrong
Vtongue
g2834
Vc
g835
I208
g5
tp2842
a(Vsound
Vwound
Vababbcc
p2843
Va
g835
I209
g5
tp2844
a(Vtongue
p2845
Vwrong
p2846
g2843
Vb
g835
I209
g5
tp2847
a(g2845
Vlong
p2848
g2843
Vb
g835
I209
g5
tp2849
a(g2846
g2848
g2843
Vb
g835
I209
g5
tp2850
a(Veyes
p2851
Venemies
g2843
Vc
g835
I209
g5
tp2852
a(Vstir
Vincur
p2853
Vababbcc
p2854
Va
g835
I210
g5
tp2855
a(Vtear
p2856
Vbear
p2857
g2854
Vb
g835
I210
g5
tp2858
a(g2856
Vhere
p2859
g2854
Vb
g835
I210
g5
tp2860
a(g2857
g2859
g2854
Vb
g835
I210
g5
tp2861
a(Veye
Vdie
g2854
Vc
g835
I210
g5
tp2862
a(Vone
p2863
Valone
p2864
Vababbcc
p2865
Va
g835
I211
g5
tp2866
a(Vmoe
p2867
Vso
p2868
g2865
Vb
g835
I211
g5
tp2869
a(g2867
Vwoe
p2870
g2865
Vb
g835
I211
g5
tp2871
a(g2868
g2870
g2865
Vb
g835
I211
g5
tp2872
a(Vfall
Vgeneral
g2865
Vc
g835
I211
g5
tp2873
a(Vdies
Vlies
Vababbcc
p2874
Va
g835
I212
g5
tp2875
a(Vswounds
p2876
Vwounds
p2877
g2874
Vb
g835
I212
g5
tp2878
a(g2876
Vconfounds
p2879
g2874
Vb
g835
I212
g5
tp2880
a(g2877
g2879
g2874
Vb
g835
I212
g5
tp2881
a(Vdesire
Vfire
g2874
Vc
g835
I212
g5
tp2882
a(Vwoes
Vgoes
Vababbcc
p2883
Va
g835
I213
g5
tp2884
a(Vbell
p2885
Vknell
p2886
g2883
Vb
g835
I213
g5
tp2887
a(g2885
Vtell
p2888
g2883
Vb
g835
I213
g5
tp2889
a(g2886
g2888
g2883
Vb
g835
I213
g5
tp2890
a(Vsorrow
Vborrow
g2883
Vc
g835
I213
g5
tp2891
a(Vround
Vbound
Vababbcc
p2892
Va
g835
I214
g5
tp2893
a(Vlament
p2894
Vlent
p2895
g2892
Vb
g835
I214
g5
tp2896
a(g2894
Vcontent
p2897
g2892
Vb
g835
I214
g5
tp2898
a(g2895
g2897
g2892
Vb
g835
I214
g5
tp2899
a(Vgoes
Vwoes
g2892
Vc
g835
I214
g5
tp2900
a(Vskill
p2901
Vstill
Vababbcc
p2902
Va
g835
I215
g5
tp2903
a(Vshow
p2904
Vwoe
p2905
g2902
Vb
g835
I215
g5
tp2906
a(g2904
Vso
p2907
g2902
Vb
g835
I215
g5
tp2908
a(g2905
g2907
g2902
Vb
g835
I215
g5
tp2909
a(Vgave
Vhave
g2902
Vc
g835
I215
g5
tp2910
a(Vdevil
Vevil
Vababbcc
p2911
Va
g835
I216
g5
tp2912
a(Vjust
p2913
Vmistrust
p2914
g2911
Vb
g835
I216
g5
tp2915
a(g2913
Vthrust
p2916
g2911
Vb
g835
I216
g5
tp2917
a(g2914
g2916
g2911
Vb
g835
I216
g5
tp2918
a(Vstorms
Vforms
g2911
Vc
g835
I216
g5
tp2919
a(Vdrew
p2920
Vslew
Vababbcc
p2921
Va
g835
I217
g5
tp2922
a(Vstory
p2923
Vglory
p2924
g2921
Vb
g835
I217
g5
tp2925
a(g2923
Vsorry
p2926
g2921
Vb
g835
I217
g5
tp2927
a(g2924
g2926
g2921
Vb
g835
I217
g5
tp2928
a(Vplaces
Vfaces
g2921
Vc
g835
I217
g5
tp2929
a(Vperused
Vabused
Vababbcc
p2930
Va
g835
I218
g5
tp2931
a(Vskill
p2932
Vill
p2933
g2930
Vb
g835
I218
g5
tp2934
a(g2932
Vstill
p2935
g2930
Vb
g835
I218
g5
tp2936
a(g2933
g2935
g2930
Vb
g835
I218
g5
tp2937
a(Vspied
Vbelied
g2930
Vc
g835
I218
g5
tp2938
a(Vguile
Vwhile
Vababbcc
p2939
Va
g835
I219
g5
tp2940
a(Vlook
p2941
Vtook
p2942
g2939
Vb
g835
I219
g5
tp2943
a(g2941
Vforsook
p2944
g2939
Vb
g835
I219
g5
tp2945
a(g2942
g2944
g2939
Vb
g835
I219
g5
tp2946
a(Vfind
Vmind
g2939
Vc
g835
I219
g5
tp2947
a(Vpainted
Vfainted
Vababbcc
p2948
Va
g835
I220
g5
tp2949
a(Vmild
p2950
Vbeguiled
p2951
g2948
Vb
g835
I220
g5
tp2952
a(g2950
Vdefiled
p2953
g2948
Vb
g835
I220
g5
tp2954
a(g2951
g2953
g2948
Vb
g835
I220
g5
tp2955
a(Vcherish
Vperish
g2948
Vc
g835
I220
g5
tp2956
a(Veyes
Vwise
Vababbcc
p2957
Va
g835
I221
g5
tp2958
a(Vsheds
p2959
Vbleeds
p2960
g2957
Vb
g835
I221
g5
tp2961
a(g2959
Vproceeds
p2962
g2957
Vb
g835
I221
g5
tp2963
a(g2960
g2962
g2957
Vb
g835
I221
g5
tp2964
a(Vpity
Vcity
g2957
Vc
g835
I221
g5
tp2965
a(Vhell
Vdwell
Vababbcc
p2966
Va
g835
I222
g5
tp2967
a(Vcold
p2968
Vhold
p2969
g2966
Vb
g835
I222
g5
tp2970
a(g2968
Vbold
p2971
g2966
Vb
g835
I222
g5
tp2972
a(g2969
g2971
g2966
Vb
g835
I222
g5
tp2973
a(Vflatter
Vwater
g2966
Vc
g835
I222
g5
tp2974
a(Vassails
Vnails
Vababbcc
p2975
Va
g835
I223
g5
tp2976
a(Vbreast
p2977
Vguest
p2978
g2975
Vb
g835
I223
g5
tp2979
a(g2977
Vdetest
p2980
g2975
Vb
g835
I223
g5
tp2981
a(g2978
g2980
g2975
Vb
g835
I223
g5
tp2982
a(Vo'er
Vsore
g2975
Vc
g835
I223
g5
tp2983
a(Vsorrow
Vmorrow
Vababbcc
p2984
Va
g835
I224
g5
tp2985
a(Vcomplaining
p2986
Vremaining
p2987
g2984
Vb
g835
I224
g5
tp2988
a(g2986
Vsustaining
p2989
g2984
Vb
g835
I224
g5
tp2990
a(g2987
g2989
g2984
Vb
g835
I224
g5
tp2991
a(Vsleeps
Vcreeps
g2984
Vc
g835
I224
g5
tp2992
a(Vthought
Vbrought
p2993
Vababbcc
p2994
Va
g835
I225
g5
tp2995
a(Vspent
p2996
Vdetriment
p2997
g2994
Vb
g835
I225
g5
tp2998
a(g2996
Vdiscontent
p2999
g2994
Vb
g835
I225
g5
tp3000
a(g2997
g2999
g2994
Vb
g835
I225
g5
tp3001
a(Vcured
Vendured
g2994
Vc
g835
I225
g5
tp3002
a(Vback
Vblack
Vababbcc
p3003
Va
g835
I226
g5
tp3004
a(Vcompany
p3005
Veye
p3006
g3003
Vb
g835
I226
g5
tp3007
a(g3005
Vsky
p3008
g3003
Vb
g835
I226
g5
tp3009
a(g3006
g3008
g3003
Vb
g835
I226
g5
tp3010
a(Velement
p3011
Vspent
g3003
Vc
g835
I226
g5
tp3012
a(Vsaw
Vraw
Vababbcc
p3013
Va
g835
I227
g5
tp3014
a(Vstares
p3015
Vcares
p3016
g3013
Vb
g835
I227
g5
tp3017
a(g3015
Vfares
p3018
g3013
Vb
g835
I227
g5
tp3019
a(g3016
g3018
g3013
Vb
g835
I227
g5
tp3020
a(Vtrance
Vchance
g3013
Vc
g835
I227
g5
tp3021
a(Vhand
Vstand
Vababbcc
p3022
Va
g835
I228
g5
tp3023
a(Vevent
p3024
Vspent
p3025
g3022
Vb
g835
I228
g5
tp3026
a(g3024
Vdiscontent
p3027
g3022
Vb
g835
I228
g5
tp3028
a(g3025
g3027
g3022
Vb
g835
I228
g5
tp3029
a(Vheaviness
Vredress
g3022
Vc
g835
I228
g5
tp3030
a(Vfire
Vdesire
Vababbcc
p3031
Va
g835
I229
g5
tp3032
a(Vwoe
p3033
Vknow
p3034
g3031
Vb
g835
I229
g5
tp3035
a(g3033
Vfoe
p3036
g3031
Vb
g835
I229
g5
tp3037
a(g3034
g3036
g3031
Vb
g835
I229
g5
tp3038
a(Vlords
p3039
Vwords
g3031
Vc
g835
I229
g5
tp3040
a(Vnest
p3041
Vbest
Vababbcc
p3042
Va
g835
I230
g5
tp3043
a(Vending
p3044
Vamending
p3045
g3042
Vb
g835
I230
g5
tp3046
a(g3044
Vdepending
p3047
g3042
Vb
g835
I230
g5
tp3048
a(g3045
g3047
g3042
Vb
g835
I230
g5
tp3049
a(Vlong
Vtongue
g3042
Vc
g835
I230
g5
tp3050
a(Vsay
p3051
Vlay
p3052
Vababbcc
p3053
Va
g835
I231
g5
tp3054
a(Vbed
p3055
Vhead
p3056
g3053
Vb
g835
I231
g5
tp3057
a(g3055
Vimagined
p3058
g3053
Vb
g835
I231
g5
tp3059
a(g3056
g3058
g3053
Vb
g835
I231
g5
tp3060
a(Vme
Vfree
g3053
Vc
g835
I231
g5
tp3061
a(Vmidnight
Vlight
Vababbcc
p3062
Va
g835
I232
g5
tp3063
a(Vcame
p3064
Vdame
p3065
g3062
Vb
g835
I232
g5
tp3066
a(g3064
Vshame
p3067
g3062
Vb
g835
I232
g5
tp3068
a(g3065
g3067
g3062
Vb
g835
I232
g5
tp3069
a(Vinflict
Vcontradict
g3062
Vc
g835
I232
g5
tp3070
a(Vhe
Vthee
p3071
Vababbcc
p3072
Va
g835
I233
g5
tp3073
a(Vwill
p3074
Vfulfil
p3075
g3072
Vb
g835
I233
g5
tp3076
a(g3074
Vkill
p3077
g3072
Vb
g835
I233
g5
tp3078
a(g3075
g3077
g3072
Vb
g835
I233
g5
tp3079
a(Vbe
p3080
Vinfamy
g3072
Vc
g835
I233
g5
tp3081
a(Vcry
Vpatiently
Vababbcc
p3082
Va
g835
I234
g5
tp3083
a(Vsword
p3084
Vword
p3085
g3082
Vb
g835
I234
g5
tp3086
a(g3084
Vrecord
p3087
g3082
Vb
g835
I234
g5
tp3088
a(g3085
g3087
g3082
Vb
g835
I234
g5
tp3089
a(VRome
p3090
Vgroom
g3082
Vc
g835
I234
g5
tp3091
a(Vweak
Vspeak
Vababbcc
p3092
Va
g835
I235
g5
tp3093
a(Vfear
p3094
Vthere
p3095
g3092
Vb
g835
I235
g5
tp3096
a(g3094
Vswear
p3097
g3092
Vb
g835
I235
g5
tp3098
a(g3095
g3097
g3092
Vb
g835
I235
g5
tp3099
a(Veyes
Vdies
g3092
Vc
g835
I235
g5
tp3100
a(Vexcuse
Vabuse
Vababbcc
p3101
Va
g835
I236
g5
tp3102
a(Vfind
p3103
Vmind
p3104
g3101
Vb
g835
I236
g5
tp3105
a(g3103
Vinclined
p3106
g3101
Vb
g835
I236
g5
tp3107
a(g3104
g3106
g3101
Vb
g835
I236
g5
tp3108
a(Vpure
p3109
Vendure
g3101
Vc
g835
I236
g5
tp3110
a(Vloss
Vacross
Vababbcc
p3111
Va
g835
I237
g5
tp3112
a(Vwoe
p3113
Vblow
p3114
g3111
Vb
g835
I237
g5
tp3115
a(g3113
Vso
p3116
g3111
Vb
g835
I237
g5
tp3117
a(g3114
g3116
g3111
Vb
g835
I237
g5
tp3118
a(Vvain
Vagain
g3111
Vc
g835
I237
g5
tp3119
a(Vtide
p3120
Vpride
p3121
Vababbcc
p3122
Va
g835
I238
g5
tp3123
a(Vhaste
p3124
Vfast
p3125
g3122
Vb
g835
I238
g5
tp3126
a(g3124
Vpast
p3127
g3122
Vb
g835
I238
g5
tp3128
a(g3125
g3127
g3122
Vb
g835
I238
g5
tp3129
a(Vsaw
Vdraw
g3122
Vc
g835
I238
g5
tp3130
a(Vattendeth
Vlendeth
p3131
Vababbcc
p3132
Va
g835
I239
g5
tp3133
a(Vawaketh
p3134
Vslaketh
p3135
g3132
Vb
g835
I239
g5
tp3136
a(g3134
Vmaketh
p3137
g3132
Vb
g835
I239
g5
tp3138
a(g3135
g3137
g3132
Vb
g835
I239
g5
tp3139
a(Vsuffice
p3140
Veyes
g3132
Vc
g835
I239
g5
tp3141
a(Vso
Vfoe
Vababbcc
p3142
Va
g835
I240
g5
tp3143
a(Vme
p3144
Vme
p3145
g3142
Vb
g835
I240
g5
tp3146
a(g3144
Vme
p3147
g3142
Vb
g835
I240
g5
tp3148
a(g3145
g3147
g3142
Vb
g835
I240
g5
tp3149
a(Vdie
Viniquity
g3142
Vc
g835
I240
g5
tp3150
a(Vshe
Vme
Vababbcc
p3151
Va
g835
I241
g5
tp3152
a(VCollatine
p3153
Vmine
p3154
g3151
Vb
g835
I241
g5
tp3155
a(g3153
Vdesign
p3156
g3151
Vb
g835
I241
g5
tp3157
a(g3154
g3156
g3151
Vb
g835
I241
g5
tp3158
a(Varms
Vharms
g3151
Vc
g835
I241
g5
tp3159
a(Vdisposition
p3160
Vimposition
Vababbcc
p3161
Va
g835
I242
g5
tp3162
a(Vaid
p3163
Vbewray'd
p3164
g3161
Vb
g835
I242
g5
tp3165
a(g3163
Vsaid
p3166
g3161
Vb
g835
I242
g5
tp3167
a(g3164
g3166
g3161
Vb
g835
I242
g5
tp3168
a(Vshe
Vme
g3161
Vc
g835
I242
g5
tp3169
a(Voffence
Vdispense
Vababbcc
p3170
Va
g835
I243
g5
tp3171
a(Vcircumstance
p3172
Vadvance
p3173
g3170
Vb
g835
I243
g5
tp3174
a(g3172
Vchance
p3175
g3170
Vb
g835
I243
g5
tp3176
a(g3173
g3175
g3170
Vb
g835
I243
g5
tp3177
a(Vagain
Vstain
g3170
Vc
g835
I243
g5
tp3178
a(Vsay
Vaway
p3179
Vababbcc
p3180
Va
g835
I244
g5
tp3181
a(Vclears
p3182
Vbears
p3183
g3180
Vb
g835
I244
g5
tp3184
a(g3182
Vtears
p3185
g3180
Vb
g835
I244
g5
tp3186
a(g3183
g3185
g3180
Vb
g835
I244
g5
tp3187
a(Vliving
Vgiving
g3180
Vc
g835
I244
g5
tp3188
a(Vbreak
Vspeak
Vababbcc
p3189
Va
g835
I245
g5
tp3190
a(Vsays
p3191
Vdelays
p3192
g3189
Vb
g835
I245
g5
tp3193
a(g3191
Vassays
p3194
g3189
Vb
g835
I245
g5
tp3195
a(g3192
g3194
g3189
Vb
g835
I245
g5
tp3196
a(Vhe
Vme
g3189
Vc
g835
I245
g5
tp3197
a(Vbreast
p3198
Vunrest
p3199
Vababbcc
p3200
Va
g835
I246
g5
tp3201
a(Vunsheathed
p3202
Vbreathed
p3203
g3200
Vb
g835
I246
g5
tp3204
a(g3202
Vbequeath'd
p3205
g3200
Vb
g835
I246
g5
tp3206
a(g3203
g3205
g3200
Vb
g835
I246
g5
tp3207
a(Vfly
p3208
Vdestiny
g3200
Vc
g835
I246
g5
tp3209
a(Vdeed
Vbleed
Vababbcc
p3210
Va
g835
I247
g5
tp3211
a(Vcrew
p3212
Vthrew
p3213
g3210
Vb
g835
I247
g5
tp3214
a(g3212
Vdrew
p3215
g3210
Vb
g835
I247
g5
tp3216
a(g3213
g3215
g3210
Vb
g835
I247
g5
tp3217
a(Vplace
Vchase
g3210
Vc
g835
I247
g5
tp3218
a(Vdivide
p3219
Vside
Vababbcc
p3220
Va
g835
I248
g5
tp3221
a(Vblood
p3222
Vstood
p3223
g3220
Vb
g835
I248
g5
tp3224
a(g3222
Vflood
p3225
g3220
Vb
g835
I248
g5
tp3226
a(g3223
g3225
g3220
Vb
g835
I248
g5
tp3227
a(Vremain'd
Vstain'd
g3220
Vc
g835
I248
g5
tp3228
a(Vface
p3229
Vplace
Vababbcc
p3230
Va
g835
I249
g5
tp3231
a(Vgoes
p3232
Vwoes
p3233
g3230
Vb
g835
I249
g5
tp3234
a(g3232
Vshows
p3235
g3230
Vb
g835
I249
g5
tp3236
a(g3233
g3235
g3230
Vb
g835
I249
g5
tp3237
a(Vabide
Vputrified
g3230
Vc
g835
I249
g5
tp3238
a(Vcries
Vlies
Vababbcc
p3239
Va
g835
I250
g5
tp3240
a(Vdeprived
p3241
Vunlived
p3242
g3239
Vb
g835
I250
g5
tp3243
a(g3241
Vderived
p3244
g3239
Vb
g835
I250
g5
tp3245
a(g3242
g3244
g3239
Vb
g835
I250
g5
tp3246
a(Vprogenitors
Vours
g3239
Vc
g835
I250
g5
tp3247
a(Vbehold
p3248
Vold
Vababbcc
p3249
Va
g835
I251
g5
tp3250
a(Vborn
p3251
Vout-worn
p3252
g3249
Vb
g835
I251
g5
tp3253
a(g3251
Vtorn
p3254
g3249
Vb
g835
I251
g5
tp3255
a(g3252
g3254
g3249
Vb
g835
I251
g5
tp3256
a(Vglass
Vwas
g3249
Vc
g835
I251
g5
tp3257
a(Vlonger
Vstronger
p3258
Vababbcc
p3259
Va
g835
I252
g5
tp3260
a(Vsurvive
p3261
Valive
p3262
g3259
Vb
g835
I252
g5
tp3263
a(g3261
Vhive
p3264
g3259
Vb
g835
I252
g5
tp3265
a(g3262
g3264
g3259
Vb
g835
I252
g5
tp3266
a(Vsee
p3267
Vthee
g3259
Vc
g835
I252
g5
tp3268
a(Vdream
Vstream
p3269
Vababbcc
p3270
Va
g835
I253
g5
tp3271
a(Vplace
p3272
Vface
p3273
g3270
Vb
g835
I253
g5
tp3274
a(g3272
Vspace
p3275
g3270
Vb
g835
I253
g5
tp3276
a(g3273
g3275
g3270
Vb
g835
I253
g5
tp3277
a(Vbreath
p3278
Vdeath
g3270
Vc
g835
I253
g5
tp3279
a(Vsoul
p3280
Vcontrol
Vababbcc
p3281
Va
g835
I254
g5
tp3282
a(Vtongue
p3283
Vlong
p3284
g3281
Vb
g835
I254
g5
tp3285
a(g3283
Vthrong
p3286
g3281
Vb
g835
I254
g5
tp3287
a(g3284
g3286
g3281
Vb
g835
I254
g5
tp3288
a(Vaid
Vsaid
g3281
Vc
g835
I254
g5
tp3289
a(Vplain
Vrain
Vababbcc
p3290
Va
g835
I255
g5
tp3291
a(Vtore
p3292
Vmore
p3293
g3290
Vb
g835
I255
g5
tp3294
a(g3292
Vo'er
p3295
g3290
Vb
g835
I255
g5
tp3296
a(g3293
g3295
g3290
Vb
g835
I255
g5
tp3297
a(Vstrife
p3298
Vwife
g3290
Vc
g835
I255
g5
tp3299
a(Vhis
Vis
Vababbcc
p3300
Va
g835
I256
g5
tp3301
a(Vlay
p3302
Vaway
p3303
g3300
Vb
g835
I256
g5
tp3304
a(g3302
Vsay
p3305
g3300
Vb
g835
I256
g5
tp3306
a(g3303
g3305
g3300
Vb
g835
I256
g5
tp3307
a(Vmine
VCollatine
g3300
Vc
g835
I256
g5
tp3308
a(Vlife
p3309
Vwife
Vababbcc
p3310
Va
g835
I257
g5
tp3311
a(Vspill'd
p3312
Vkill'd
p3313
g3310
Vb
g835
I257
g5
tp3314
a(g3312
Vfill'd
p3315
g3310
Vb
g835
I257
g5
tp3316
a(g3313
g3315
g3310
Vb
g835
I257
g5
tp3317
a(Vlife
Vwife
g3310
Vc
g835
I257
g5
tp3318
a(Vside
Vpride
Vababbcc
p3319
Va
g835
I258
g5
tp3320
a(Vwoe
p3321
Vshow
p3322
g3319
Vb
g835
I258
g5
tp3323
a(g3321
Vso
p3324
g3319
Vb
g835
I258
g5
tp3325
a(g3322
g3324
g3319
Vb
g835
I258
g5
tp3326
a(Vkings
Vthings
g3319
Vc
g835
I258
g5
tp3327
a(Vby
Vadvisedly
Vababbcc
p3328
Va
g835
I259
g5
tp3329
a(Vdisguise
p3330
Veyes
p3331
g3328
Vb
g835
I259
g5
tp3332
a(g3330
V'arise
p3333
g3328
Vb
g835
I259
g5
tp3334
a(g3331
g3333
g3328
Vb
g835
I259
g5
tp3335
a(Vfool
Vschool
g3328
Vc
g835
I259
g5
tp3336
a(Vwoe
Vblow
p3337
Vababbcc
p3338
Va
g835
I260
g5
tp3339
a(Vdeeds
p3340
Vbleeds
p3341
g3338
Vb
g835
I260
g5
tp3342
a(g3340
Vproceeds
p3343
g3338
Vb
g835
I260
g5
tp3344
a(g3341
g3343
g3338
Vb
g835
I260
g5
tp3345
a(Vso
Vfoe
g3338
Vc
g835
I260
g5
tp3346
a(Vheart
p3347
Vpart
Vababbcc
p3348
Va
g835
I261
g5
tp3349
a(Vlamentations
p3350
Vinvocations
p3351
g3348
Vb
g835
I261
g5
tp3352
a(g3350
Vabominations
p3353
g3348
Vb
g835
I261
g5
tp3354
a(g3351
g3353
g3348
Vb
g835
I261
g5
tp3355
a(Vdisgraced
Vchased
g3348
Vc
g835
I261
g5
tp3356
a(Vadore
Vstore
Vababbcc
p3357
Va
g835
I262
g5
tp3358
a(Vstain'd
p3359
Vmaintain'd
p3360
g3357
Vb
g835
I262
g5
tp3361
a(g3359
Vcomplain'd
p3362
g3357
Vb
g835
I262
g5
tp3363
a(g3360
g3362
g3357
Vb
g835
I262
g5
tp3364
a(Vknife
Vwife
g3357
Vc
g835
I262
g5
tp3365
a(Vbreast
Vrest
Vababbcc
p3366
Va
g835
I263
g5
tp3367
a(Vvow
p3368
Vallow
p3369
g3366
Vb
g835
I263
g5
tp3370
a(g3368
Vbow
p3371
g3366
Vb
g835
I263
g5
tp3372
a(g3369
g3371
g3366
Vb
g835
I263
g5
tp3373
a(Vbefore
Vswore
g3366
Vc
g835
I263
g5
tp3374
a(Vdoom
VRome
Vababbcc
p3375
Va
g835
I264
g5
tp3376
a(Vthence
p3377
Voffence
p3378
g3375
Vb
g835
I264
g5
tp3379
a(g3377
Vdiligence
p3380
g3375
Vb
g835
I264
g5
tp3381
a(g3378
g3380
g3375
Vb
g835
I264
g5
tp3382
a(Vconsent
p3383
Vbanishment
g3375
Vc
g835
I264
g5
tp3384
a(Vface
p3385
Vchase
Vababcc
p3386
Va
VVenus and Adonis
p3387
I0
g5
tp3388
a(Vmorn
Vscorn
g3386
Vb
g3387
I0
g5
tp3389
a(Vhim
Vhim
g3386
Vc
g3387
I0
g5
tp3390
a(Vbegan
Vman
Vababcc
p3391
Va
g3387
I1
g5
tp3392
a(Vcompare
Vare
g3391
Vb
g3387
I1
g5
tp3393
a(Vstrife
Vlife
g3391
Vc
g3387
I1
g5
tp3394
a(Vsteed
Vmeed
p3395
Vababcc
p3396
Va
g3387
I2
g5
tp3397
a(Vsaddle-bow
Vknow
g3396
Vb
g3387
I2
g5
tp3398
a(Vhisses
Vkisses
g3396
Vc
g3387
I2
g5
tp3399
a(Vsatiety
Vvariety
Vababcc
p3400
Va
g3387
I3
g5
tp3401
a(Vplenty
Vtwenty
g3400
Vb
g3387
I3
g5
tp3402
a(Vshort
Vsport
g3400
Vc
g3387
I3
g5
tp3403
a(Vpalm
Vbalm
Vababcc
p3404
Va
g3387
I4
g5
tp3405
a(Vlivelihood
Vgood
g3404
Vb
g3387
I4
g5
tp3406
a(Vforce
p3407
Vhorse
g3404
Vc
g3387
I4
g5
tp3408
a(Vrein
Vdisdain
Vababcc
p3409
Va
g3387
I5
g5
tp3410
a(Vboy
Vtoy
g3409
Vb
g3387
I5
g5
tp3411
a(Vfire
Vdesire
g3409
Vc
g3387
I5
g5
tp3412
a(Vbough
p3413
Vnow
p3414
Vababcc
p3415
Va
g3387
I6
g5
tp3416
a(Vlove
Vprove
g3415
Vb
g3387
I6
g5
tp3417
a(Vthrust
Vlust
g3415
Vc
g3387
I6
g5
tp3418
a(Vdown
Vfrown
Vababcc
p3419
Va
g3387
I7
g5
tp3420
a(Vhips
Vlips
g3419
Vb
g3387
I7
g5
tp3421
a(Vbroken
Vopen
g3419
Vc
g3387
I7
g5
tp3422
a(Vtears
p3423
Vhairs
p3424
Vababcc
p3425
Va
g3387
I8
g5
tp3426
a(Vcheeks
Vseeks
g3425
Vb
g3387
I8
g5
tp3427
a(V'miss
Vkiss
g3425
Vc
g3387
I8
g5
tp3428
a(Vfast
Vhaste
Vababcc
p3429
Va
g3387
I9
g5
tp3430
a(Vbone
Vgone
g3429
Vb
g3387
I9
g5
tp3431
a(Vchin
Vbegin
g3429
Vc
g3387
I9
g5
tp3432
a(Vobey
Vprey
Vababcc
p3433
Va
g3387
I10
g5
tp3434
a(Vface
Vgrace
g3433
Vb
g3387
I10
g5
tp3435
a(Vflowers
Vshowers
g3433
Vc
g3387
I10
g5
tp3436
a(Vnet
Vfret
Vababcc
p3437
Va
g3387
I11
g5
tp3438
a(Vlies
Veyes
g3437
Vb
g3387
I11
g5
tp3439
a(Vrank
p3440
Vbank
g3437
Vc
g3387
I11
g5
tp3441
a(Ventreats
Vfrets
Vababcc
p3442
Va
g3387
I12
g5
tp3443
a(Vtale
Vashy-pale
g3442
Vb
g3387
I12
g5
tp3444
a(Vwhite
Vdelight
g3442
Vc
g3387
I12
g5
tp3445
a(Vlove
Vremove
Vababcc
p3446
Va
g3387
I13
g5
tp3447
a(Vswears
Vtears
g3446
Vb
g3387
I13
g5
tp3448
a(Vwet
Vdebt
g3446
Vc
g3387
I13
g5
tp3449
a(Vchin
Vin
Vababcc
p3450
Va
g3387
I14
g5
tp3451
a(Vwave
Vcrave
g3450
Vb
g3387
I14
g5
tp3452
a(Vpay
Vway
g3450
Vc
g3387
I14
g5
tp3453
a(Vheat
p3454
Vget
Vababcc
p3455
Va
g3387
I15
g5
tp3456
a(Vturn
Vburn
g3455
Vb
g3387
I15
g5
tp3457
a(Vboy
Vcoy
g3455
Vc
g3387
I15
g5
tp3458
a(Vnow
Vbow
Vababcc
p3459
Va
g3387
I16
g5
tp3460
a(Vwar
Vjar
g3459
Vb
g3387
I16
g5
tp3461
a(Vslave
Vhave
g3459
Vc
g3387
I16
g5
tp3462
a(Vlance
Vdance
Vababcc
p3463
Va
g3387
I17
g5
tp3464
a(Vcrest
Vjest
g3463
Vb
g3387
I17
g5
tp3465
a(Vred
Vbed
g3463
Vc
g3387
I17
g5
tp3466
a(Voversway'd
Vobey'd
Vababcc
p3467
Va
g3387
I18
g5
tp3468
a(Vchain
Vdisdain
g3467
Vb
g3387
I18
g5
tp3469
a(Vmight
Vfight
g3467
Vc
g3387
I18
g5
tp3470
a(Vthine
Vmine
Vababcc
p3471
Va
g3387
I19
g5
tp3472
a(Vred
Vhead
g3471
Vb
g3387
I19
g5
tp3473
a(Vlies
Veyes
g3471
Vc
g3387
I19
g5
tp3474
a(Vagain
Vtwain
Vababcc
p3475
Va
g3387
I20
g5
tp3476
a(Vnight
Vsight
g3475
Vb
g3387
I20
g5
tp3477
a(Vlean
p3478
Vmean
g3475
Vc
g3387
I20
g5
tp3479
a(Vlip
p3480
Vslip
Vababcc
p3481
Va
g3387
I21
g5
tp3482
a(Vtasted
Vwasted
g3481
Vb
g3387
I21
g5
tp3483
a(Vprime
p3484
Vtime
g3481
Vc
g3387
I21
g5
tp3485
a(Vwrinkled-old
Vcold
Vababcc
p3486
Va
g3387
I22
g5
tp3487
a(Vvoice
Vjuice
g3486
Vb
g3387
I22
g5
tp3488
a(Vthee
p3489
Vme
g3486
Vc
g3387
I22
g5
tp3490
a(Vbrow
Vgrow
Vababcc
p3491
Va
g3387
I23
g5
tp3492
a(Vturning
Vburning
g3491
Vb
g3387
I23
g5
tp3493
a(Vfelt
Vmelt
g3491
Vc
g3387
I23
g5
tp3494
a(Vear
Vhair
Vababcc
p3495
Va
g3387
I24
g5
tp3496
a(Vgreen
Vseen
g3495
Vb
g3387
I24
g5
tp3497
a(Vfire
Vaspire
g3495
Vc
g3387
I24
g5
tp3498
a(Vlie
Vsky
Vababcc
p3499
Va
g3387
I25
g5
tp3500
a(Vme
Vme
g3499
Vb
g3387
I25
g5
tp3501
a(Vbe
p3502
Vthee
g3499
Vc
g3387
I25
g5
tp3503
a(Vaffected
Vrejected
Vababcc
p3504
Va
g3387
I26
g5
tp3505
a(Vleft
Vtheft
g3504
Vb
g3387
I26
g5
tp3506
a(Vforsook
Vbrook
g3504
Vc
g3387
I26
g5
tp3507
a(Vwear
Vbear
Vababcc
p3508
Va
g3387
I27
g5
tp3509
a(Vuse
Vabuse
g3508
Vb
g3387
I27
g5
tp3510
a(Vbeauty
Vduty
g3508
Vc
g3387
I27
g5
tp3511
a(Vfeed
Vbreed
Vababcc
p3512
Va
g3387
I28
g5
tp3513
a(Vfed
Vdead
g3512
Vb
g3387
I28
g5
tp3514
a(Vsurvive
Valive
g3512
Vc
g3387
I28
g5
tp3515
a(Vsweat
Vheat
Vababcc
p3516
Va
g3387
I29
g5
tp3517
a(Vthem
Vthem
g3516
Vb
g3387
I29
g5
tp3518
a(Vguide
Vside
g3516
Vc
g3387
I29
g5
tp3519
a(Vspright
Vsight
Vababcc
p3520
Va
g3387
I30
g5
tp3521
a(Veye
Vsky
g3520
Vb
g3387
I30
g5
tp3522
a(Vlove
Vremove
g3520
Vc
g3387
I30
g5
tp3523
a(Vunkind
Vwind
p3524
Vababcc
p3525
Va
g3387
I31
g5
tp3526
a(Vgone
Vsun
g3525
Vb
g3387
I31
g5
tp3527
a(Vhairs
Vtears
g3525
Vc
g3387
I31
g5
tp3528
a(Vwarm
Vharm
Vababcc
p3529
Va
g3387
I32
g5
tp3530
a(Vthee
Vme
g3529
Vb
g3387
I32
g5
tp3531
a(Vdone
p3532
Vsun
g3529
Vc
g3387
I32
g5
tp3533
a(Vsteel
Vfeel
p3534
Vababcc
p3535
Va
g3387
I33
g5
tp3536
a(Vrelenteth
Vtormenteth
g3535
Vb
g3387
I33
g5
tp3537
a(Vmind
Vunkind
g3535
Vc
g3387
I33
g5
tp3538
a(Vthis
Vkiss
Vababcc
p3539
Va
g3387
I34
g5
tp3540
a(Vsuit
Vmute
g3539
Vb
g3387
I34
g5
tp3541
a(Vagain
Vtwain
g3539
Vc
g3387
I34
g5
tp3542
a(Vstone
Valone
Vababcc
p3543
Va
g3387
I35
g5
tp3544
a(Vdead
Vbred
g3543
Vb
g3387
I35
g5
tp3545
a(Vcomplexion
Vdirection
g3543
Vc
g3387
I35
g5
tp3546
a(Vtongue
Vwrong
Vababcc
p3547
Va
g3387
I36
g5
tp3548
a(Vpause
Vcause
g3547
Vb
g3387
I36
g5
tp3549
a(Vspeak
Vbreak
g3547
Vc
g3387
I36
g5
tp3550
a(Vhand
Vband
Vababcc
p3551
Va
g3387
I37
g5
tp3552
a(Vground
Vbound
g3551
Vb
g3387
I37
g5
tp3553
a(Vgone
Vone
g3551
Vc
g3387
I37
g5
tp3554
a(Vhere
p3555
Vdeer
Vababcc
p3556
Va
g3387
I38
g5
tp3557
a(Vpale
Vdale
g3556
Vb
g3387
I38
g5
tp3558
a(Vdry
Vlie
g3556
Vc
g3387
I38
g5
tp3559
a(Venough
Vrough
Vababcc
p3560
Va
g3387
I39
g5
tp3561
a(Vplain
Vrain
p3562
g3560
Vb
g3387
I39
g5
tp3563
a(Vpark
Vbark
g3560
Vc
g3387
I39
g5
tp3564
a(Vdisdain
Vslain
Vababcc
p3565
Va
g3387
I40
g5
tp3566
a(Vdimple
Vsimple
g3565
Vb
g3387
I40
g5
tp3567
a(Vlie
Vdie
g3565
Vc
g3387
I40
g5
tp3568
a(Vpits
Vwits
Vababcc
p3569
Va
g3387
I41
g5
tp3570
a(Vliking
Vstriking
g3569
Vb
g3387
I41
g5
tp3571
a(Vforlorn
Vscorn
g3569
Vc
g3387
I41
g5
tp3572
a(Vsay
Vaway
Vababcc
p3573
Va
g3387
I42
g5
tp3574
a(Vincreasing
Vreleasing
g3573
Vb
g3387
I42
g5
tp3575
a(Vremorse
Vhorse
g3573
Vc
g3387
I42
g5
tp3576
a(Vby
Vespy
Vababcc
p3577
Va
g3387
I43
g5
tp3578
a(Vproud
Valoud
g3577
Vb
g3387
I43
g5
tp3579
a(Vtree
Vhe
g3577
Vc
g3387
I43
g5
tp3580
a(Vbounds
Vwounds
Vababcc
p3581
Va
g3387
I44
g5
tp3582
a(Vasunder
Vthunder
g3581
Vb
g3387
I44
g5
tp3583
a(Vteeth
Vwith
g3581
Vc
g3387
I44
g5
tp3584
a(Vmane
p3585
Vagain
Vababcc
p3586
Va
g3387
I45
g5
tp3587
a(Vend
Vsend
g3586
Vb
g3387
I45
g5
tp3588
a(Vfire
Vdesire
g3586
Vc
g3387
I45
g5
tp3589
a(Vsteps
Vleaps
Vababcc
p3590
Va
g3387
I46
g5
tp3591
a(Vpride
Vtried
g3590
Vb
g3387
I46
g5
tp3592
a(Veye
p3593
Vby
g3590
Vc
g3387
I46
g5
tp3594
a(Vstir
Vspur
Vababcc
p3595
Va
g3387
I47
g5
tp3596
a(Vsay
Vgay
g3595
Vb
g3387
I47
g5
tp3597
a(Vsees
Vagrees
g3595
Vc
g3387
I47
g5
tp3598
a(Vlife
Vstrife
Vababcc
p3599
Va
g3387
I48
g5
tp3600
a(Vsteed
Vexceed
g3599
Vb
g3387
I48
g5
tp3601
a(Vone
p3602
Vbone
g3599
Vc
g3387
I48
g5
tp3603
a(Vlong
Vstrong
Vababcc
p3604
Va
g3387
I49
g5
tp3605
a(Vwide
Vhide
g3604
Vb
g3387
I49
g5
tp3606
a(Vlack
Vback
g3604
Vc
g3387
I49
g5
tp3607
a(Vstares
Vprepares
Vababcc
p3608
Va
g3387
I50
g5
tp3609
a(Vfeather
Vwhether
g3608
Vb
g3387
I50
g5
tp3610
a(Vsings
Vwings
g3608
Vc
g3387
I50
g5
tp3611
a(Vher
Vher
Vababcc
p3612
Va
g3387
I51
g5
tp3613
a(Vmind
Vunkind
g3612
Vb
g3387
I51
g5
tp3614
a(Vfeels
Vheels
g3612
Vc
g3387
I51
g5
tp3615
a(Vmalcontent
Vlent
Vababcc
p3616
Va
g3387
I52
g5
tp3617
a(Vplume
Vfume
g3616
Vb
g3387
I52
g5
tp3618
a(Venraged
Vassuaged
g3616
Vc
g3387
I52
g5
tp3619
a(Vhim
Vhim
Vababcc
p3620
Va
g3387
I53
g5
tp3621
a(Vfear
Vthere
g3620
Vb
g3387
I53
g5
tp3622
a(Vthem
Vthem
g3620
Vc
g3387
I53
g5
tp3623
a(Vsits
Vfits
Vababcc
p3624
Va
g3387
I54
g5
tp3625
a(Vbeast
Vblest
g3624
Vb
g3387
I54
g5
tp3626
a(Vwrong
p3627
Vtongue
g3624
Vc
g3387
I54
g5
tp3628
a(Vstay'd
Vsaid
Vababcc
p3629
Va
g3387
I55
g5
tp3630
a(Vrage
Vassuage
g3629
Vb
g3387
I55
g5
tp3631
a(Vmute
Vsuit
g3629
Vc
g3387
I55
g5
tp3632
a(Vglow
Vbrow
Vababcc
p3633
Va
g3387
I56
g5
tp3634
a(Vwind
Vmind
g3633
Vb
g3387
I56
g5
tp3635
a(Vnigh
Veye
g3633
Vc
g3387
I56
g5
tp3636
a(Vview
p3637
Vhue
Vababcc
p3638
Va
g3387
I57
g5
tp3639
a(Vboy
Vdestroy
g3638
Vb
g3387
I57
g5
tp3640
a(Vby
p3641
Vsky
g3638
Vc
g3387
I57
g5
tp3642
a(Vsat
Vhat
Vababcc
p3643
Va
g3387
I58
g5
tp3644
a(Vkneels
Vfeels
g3643
Vb
g3387
I58
g5
tp3645
a(Vprint
Vdint
g3643
Vc
g3387
I58
g5
tp3646
a(Vthem
Vthem
Vababcc
p3647
Va
g3387
I59
g5
tp3648
a(Vsuing
Vwooing
g3647
Vb
g3387
I59
g5
tp3649
a(Vplain
p3650
Vrain
g3647
Vc
g3387
I59
g5
tp3651
a(Vhand
Vband
Vababcc
p3652
Va
g3387
I60
g5
tp3653
a(Vsnow
Vfoe
g3652
Vb
g3387
I60
g5
tp3654
a(Vunwilling
Va-billing
g3652
Vc
g3387
I60
g5
tp3655
a(Vbegan
Vman
Vababcc
p3656
Va
g3387
I61
g5
tp3657
a(Vround
Vwound
g3656
Vb
g3387
I61
g5
tp3658
a(Vthee
Vthee
g3656
Vc
g3387
I61
g5
tp3659
a(Vit
Vit
Vababcc
p3660
Va
g3387
I62
g5
tp3661
a(Vit
Vit
g3660
Vb
g3387
I62
g5
tp3662
a(Vregard
Vhard
g3660
Vc
g3387
I62
g5
tp3663
a(Vgo
Vso
Vababcc
p3664
Va
g3387
I63
g5
tp3665
a(Vgone
Valone
g3664
Vb
g3387
I63
g5
tp3666
a(Vcare
Vmare
g3664
Vc
g3387
I63
g5
tp3667
a(Vshould
Vcool'd
Vababcc
p3668
Va
g3387
I64
g5
tp3669
a(Vdesire
Vfire
g3668
Vb
g3387
I64
g5
tp3670
a(Vnone
Vgone
g3668
Vc
g3387
I64
g5
tp3671
a(Vtree
Vfee
Vababcc
p3672
Va
g3387
I65
g5
tp3673
a(Vrein
Vdisdain
g3672
Vb
g3387
I65
g5
tp3674
a(Vcrest
Vbreast
g3672
Vc
g3387
I65
g5
tp3675
a(Vbed
Vfed
Vababcc
p3676
Va
g3387
I66
g5
tp3677
a(Vwhite
Vdelight
g3676
Vb
g3387
I66
g5
tp3678
a(Vbold
p3679
Vcold
g3676
Vc
g3387
I66
g5
tp3680
a(Vboy
Vjoy
Vababcc
p3681
Va
g3387
I67
g5
tp3682
a(Vthee
Vthee
g3681
Vb
g3387
I67
g5
tp3683
a(Vplain
Vagain
g3681
Vc
g3387
I67
g5
tp3684
a(Vit
Vit
Vababcc
p3685
Va
g3387
I68
g5
tp3686
a(Vit
Vit
g3685
Vb
g3387
I68
g5
tp3687
a(Vdeath
Vbreath
g3685
Vc
g3387
I68
g5
tp3688
a(Vunfinish'd
Vdiminish'd
Vababcc
p3689
Va
g3387
I69
g5
tp3690
a(Vforth
Vworth
g3689
Vb
g3387
I69
g5
tp3691
a(Vyoung
p3692
Vstrong
g3689
Vc
g3387
I69
g5
tp3693
a(Vpart
Vheart
Vababcc
p3694
Va
g3387
I70
g5
tp3695
a(Vchat
Vgate
g3694
Vb
g3387
I70
g5
tp3696
a(Vflattery
Vbattery
g3694
Vc
g3387
I70
g5
tp3697
a(Vtongue
Vwrong
Vababcc
p3698
Va
g3387
I71
g5
tp3699
a(Vhearing
Vbearing
g3698
Vb
g3387
I71
g5
tp3700
a(Vharshsounding
Vwounding
g3698
Vc
g3387
I71
g5
tp3701
a(Vlove
p3702
Vmove
p3703
Vababcc
p3704
Va
g3387
I72
g5
tp3705
a(Vinvisible
Vsensible
g3704
Vb
g3387
I72
g5
tp3706
a(Vsee
Vthee
g3704
Vc
g3387
I72
g5
tp3707
a(Vme
Vme
Vababcc
p3708
Va
g3387
I73
g5
tp3709
a(Vtouch
Vmuch
g3708
Vb
g3387
I73
g5
tp3710
a(Vexcelling
p3711
Vsmelling
g3708
Vc
g3387
I73
g5
tp3712
a(Vtaste
Vlast
Vababcc
p3713
Va
g3387
I74
g5
tp3714
a(Vfour
Vdoor
g3713
Vb
g3387
I74
g5
tp3715
a(Vguest
Vfeast
g3713
Vc
g3387
I74
g5
tp3716
a(Vopen'd
Vbetoken'd
p3717
Vababcc
p3718
Va
g3387
I75
g5
tp3719
a(Vyield
Vfield
g3718
Vb
g3387
I75
g5
tp3720
a(Vbirds
Vherds
g3718
Vc
g3387
I75
g5
tp3721
a(Vmarketh
Vbarketh
Vababcc
p3722
Va
g3387
I76
g5
tp3723
a(Vraineth
Vstaineth
g3722
Vb
g3387
I76
g5
tp3724
a(Vgun
Vbegun
g3722
Vc
g3387
I76
g5
tp3725
a(Vdown
Vfrown
Vababcc
p3726
Va
g3387
I77
g5
tp3727
a(Vreviveth
Vthriveth
g3726
Vb
g3387
I77
g5
tp3728
a(Vdead
Vred
g3726
Vc
g3387
I77
g5
tp3729
a(Vintent
Vprevent
Vababcc
p3730
Va
g3387
I78
g5
tp3731
a(Vher
Vher
g3730
Vb
g3387
I78
g5
tp3732
a(Vslain
Vagain
g3730
Vc
g3387
I78
g5
tp3733
a(Vcheeks
Vseeks
p3734
Vababcc
p3735
Va
g3387
I79
g5
tp3736
a(Vhard
Vmarr'd
g3735
Vb
g3387
I79
g5
tp3737
a(Vwill
Vstill
g3735
Vc
g3387
I79
g5
tp3738
a(Vday
Varray
p3739
Vababcc
p3740
Va
g3387
I80
g5
tp3741
a(Vup-heaveth
Vrelieveth
g3740
Vb
g3387
I80
g5
tp3742
a(Vsky
Veye
g3740
Vc
g3387
I80
g5
tp3743
a(Vfix'd
Vmix'd
Vababcc
p3744
Va
g3387
I81
g5
tp3745
a(Vshine
Vrepine
g3744
Vb
g3387
I81
g5
tp3746
a(Vlight
Vnight
g3744
Vc
g3387
I81
g5
tp3747
a(Vheaven
Veven
Vababcc
p3748
Va
g3387
I82
g5
tp3749
a(Vfire
Vdesire
g3748
Vb
g3387
I82
g5
tp3750
a(Vannoy
Vjoy
g3748
Vc
g3387
I82
g5
tp3751
a(Vagain
Vdisdain
p3752
Vababcc
p3753
Va
g3387
I83
g5
tp3754
a(Vthine
Vmine
g3753
Vb
g3387
I83
g5
tp3755
a(Vqueen
Vseen
g3753
Vc
g3387
I83
g5
tp3756
a(Vcure
Vendure
Vababcc
p3757
Va
g3387
I84
g5
tp3758
a(Vwear
Vyear
g3757
Vb
g3387
I84
g5
tp3759
a(Vdeath
Vbreath
g3757
Vc
g3387
I84
g5
tp3760
a(Vimprinted
Vcontented
Vababcc
p3761
Va
g3387
I85
g5
tp3762
a(Vsealing
Vdealing
g3761
Vb
g3387
I85
g5
tp3763
a(Vslips
p3764
Vlips
g3761
Vc
g3387
I85
g5
tp3765
a(Vme
Vthee
Vababcc
p3766
Va
g3387
I86
g5
tp3767
a(Vone
Vgone
g3766
Vb
g3387
I86
g5
tp3768
a(Vdouble
Vtrouble
g3766
Vc
g3387
I86
g5
tp3769
a(Vme
Vme
Vababcc
p3770
Va
g3387
I87
g5
tp3771
a(Vyears
Vforbears
g3770
Vb
g3387
I87
g5
tp3772
a(Vfast
Vtaste
g3770
Vc
g3387
I87
g5
tp3773
a(Vgait
Vlate
Vababcc
p3774
Va
g3387
I88
g5
tp3775
a(Vwest
Vnest
g3774
Vb
g3387
I88
g5
tp3776
a(Vlight
p3777
Vnight
g3774
Vc
g3387
I88
g5
tp3778
a(Vyou
V'Adieu
Vababcc
p3779
Va
g3387
I89
g5
tp3780
a(Vkiss
Vis
g3779
Vb
g3387
I89
g5
tp3781
a(Vembrace
Vface
g3779
Vc
g3387
I89
g5
tp3782
a(Vdrew
p3783
Vknew
Vababcc
p3784
Va
g3387
I90
g5
tp3785
a(Vmouth
Vdrouth
g3784
Vb
g3387
I90
g5
tp3786
a(Vdearth
p3787
Vearth
g3784
Vc
g3387
I90
g5
tp3788
a(Vprey
Vobey
Vababcc
p3789
Va
g3387
I91
g5
tp3790
a(Vfilleth
Vwilleth
g3789
Vb
g3387
I91
g5
tp3791
a(Vhigh
Vdry
g3789
Vc
g3387
I91
g5
tp3792
a(Vspoil
Vboil
Vababcc
p3793
Va
g3387
I92
g5
tp3794
a(Vforage
Vcourage
g3793
Vb
g3387
I92
g5
tp3795
a(Vback
Vwrack
g3793
Vc
g3387
I92
g5
tp3796
a(Vembracing
Vchasing
Vababcc
p3797
Va
g3387
I93
g5
tp3798
a(Vhandling
Vdandling
g3797
Vb
g3387
I93
g5
tp3799
a(Vresisteth
Vlisteth
g3797
Vc
g3387
I93
g5
tp3800
a(Vtempering
Vventuring
Vababcc
p3801
Va
g3387
I94
g5
tp3802
a(Vimpression
Vcommission
g3801
Vb
g3387
I94
g5
tp3803
a(Vcoward
Vfroward
g3801
Vc
g3387
I94
g5
tp3804
a(Vover
Vlover
Vababcc
p3805
Va
g3387
I95
g5
tp3806
a(Vsuck'd
Vpluck'd
g3805
Vb
g3387
I95
g5
tp3807
a(Vfast
Vlast
g3805
Vc
g3387
I95
g5
tp3808
a(Vhim
Vhim
Vababcc
p3809
Va
g3387
I96
g5
tp3810
a(Vdepart
Vheart
g3809
Vb
g3387
I96
g5
tp3811
a(Vprotest
Vbreast
g3809
Vc
g3387
I96
g5
tp3812
a(Vsorrow
Vto-morrow
Vababcc
p3813
Va
g3387
I97
g5
tp3814
a(Vwatch
Vmatch
g3813
Vb
g3387
I97
g5
tp3815
a(Vintends
p3816
Vfriends
g3813
Vc
g3387
I97
g5
tp3817
a(Vpale
Vtale
Vababcc
p3818
Va
g3387
I98
g5
tp3819
a(Vrose
Vthrows
g3818
Vb
g3387
I98
g5
tp3820
a(Vneck
Vback
g3818
Vc
g3387
I98
g5
tp3821
a(Vlove
Vprove
Vababcc
p3822
Va
g3387
I99
g5
tp3823
a(Vencounter
Vher
g3822
Vb
g3387
I99
g5
tp3824
a(Vannoy
Vjoy
g3822
Vc
g3387
I99
g5
tp3825
a(Vgrapes
Vmishaps
Vababcc
p3826
Va
g3387
I100
g5
tp3827
a(Vmaw
Vsaw
g3826
Vb
g3387
I100
g5
tp3828
a(Vmissing
p3829
Vkissing
g3826
Vc
g3387
I100
g5
tp3830
a(Vbe
Vfee
Vababcc
p3831
Va
g3387
I101
g5
tp3832
a(Vproved
Vloved
g3831
Vb
g3387
I101
g5
tp3833
a(Vgo
Vso
g3831
Vc
g3387
I101
g5
tp3834
a(Vthis
Vis
p3835
Vababcc
p3836
Va
g3387
I102
g5
tp3837
a(Vboar
Vgore
g3836
Vb
g3387
I102
g5
tp3838
a(Vstill
Vkill
g3836
Vc
g3387
I102
g5
tp3839
a(Vset
p3840
Vfret
Vababcc
p3841
Va
g3387
I103
g5
tp3842
a(Vfoes
Vgoes
g3841
Vb
g3387
I103
g5
tp3843
a(Vway
Vslay
g3841
Vc
g3387
I103
g5
tp3844
a(Varm'd
Vharm'd
Vababcc
p3845
Va
g3387
I104
g5
tp3846
a(Venter
Vventure
g3845
Vb
g3387
I104
g5
tp3847
a(Vbushes
Vrushes
g3845
Vc
g3387
I104
g5
tp3848
a(Vthine
Veyne
Vababcc
p3849
Va
g3387
I105
g5
tp3850
a(Vgazes
Vamazes
g3849
Vb
g3387
I105
g5
tp3851
a(Vdread
Vmead
g3849
Vc
g3387
I105
g5
tp3852
a(Vstill
Vwill
Vababcc
p3853
Va
g3387
I106
g5
tp3854
a(Vfiends
Vfriends
g3853
Vb
g3387
I106
g5
tp3855
a(Vdissemble
Vtremble
g3853
Vc
g3387
I106
g5
tp3856
a(Vwhite
Vdownright
Vababcc
p3857
Va
g3387
I107
g5
tp3858
a(Veye
Vlie
g3857
Vb
g3387
I107
g5
tp3859
a(Vrest
Vbreast
g3857
Vc
g3387
I107
g5
tp3860
a(VJealousy
p3861
Vmutiny
Vababcc
p3862
Va
g3387
I108
g5
tp3863
a(Vsentinel
Vkill
g3862
Vb
g3387
I108
g5
tp3864
a(Vdesire
Vfire
g3862
Vc
g3387
I108
g5
tp3865
a(Vspy
VJealousy
Vababcc
p3866
Va
g3387
I109
g5
tp3867
a(Vspring
Vbring
g3866
Vb
g3387
I109
g5
tp3868
a(Vear
p3869
Vfear
g3866
Vc
g3387
I109
g5
tp3870
a(Veye
p3871
Vlie
p3872
Vababcc
p3873
Va
g3387
I110
g5
tp3874
a(Vboar
Vgore
g3873
Vb
g3387
I110
g5
tp3875
a(Vshed
p3876
Vhead
g3873
Vc
g3387
I110
g5
tp3877
a(Vindeed
Vbleed
Vababcc
p3878
Va
g3387
I111
g5
tp3879
a(Vimagination
Vdivination
g3878
Vb
g3387
I111
g5
tp3880
a(Vsorrow
Vto-morrow
g3878
Vc
g3387
I111
g5
tp3881
a(Vme
Vsubtlety
Vababcc
p3882
Va
g3387
I112
g5
tp3883
a(Vhare
Vdare
g3882
Vb
g3387
I112
g5
tp3884
a(Vdowns
Vhounds
g3882
Vc
g3387
I112
g5
tp3885
a(Vhare
Vcare
p3886
Vababcc
p3887
Va
g3387
I113
g5
tp3888
a(Vtroubles
p3889
Vdoubles
g3887
Vb
g3387
I113
g5
tp3890
a(Vgoes
p3891
Vfoes
g3887
Vc
g3387
I113
g5
tp3892
a(Vsheep
Vkeep
Vababcc
p3893
Va
g3387
I114
g5
tp3894
a(Vsmell
Vyell
g3893
Vb
g3387
I114
g5
tp3895
a(Vdeer
Vfear
g3893
Vc
g3387
I114
g5
tp3896
a(Vmingled
Vsingled
p3897
Vababcc
p3898
Va
g3387
I115
g5
tp3899
a(Vdoubt
Vout
g3898
Vb
g3387
I115
g5
tp3900
a(Vreplies
Vskies
g3898
Vc
g3387
I115
g5
tp3901
a(Vhill
Vstill
Vababcc
p3902
Va
g3387
I116
g5
tp3903
a(Vear
Vhear
g3902
Vb
g3387
I116
g5
tp3904
a(Vwell
p3905
Vpassing-bell
g3902
Vc
g3387
I116
g5
tp3906
a(Vwretch
p3907
Vscratch
Vababcc
p3908
Va
g3387
I117
g5
tp3909
a(Vway
Vstay
g3908
Vb
g3387
I117
g5
tp3910
a(Vmany
Vany
g3908
Vc
g3387
I117
g5
tp3911
a(Vmore
Vboar
Vababcc
p3912
Va
g3387
I118
g5
tp3913
a(Vrise
Vmoralize
g3912
Vb
g3387
I118
g5
tp3914
a(Vso
Vwoe
g3912
Vc
g3387
I118
g5
tp3915
a(Vhe
Vshe
Vababcc
p3916
Va
g3387
I119
g5
tp3917
a(Vends
Vfriends
g3916
Vb
g3387
I119
g5
tp3918
a(Vfall
Vall
p3919
g3916
Vc
g3387
I119
g5
tp3920
a(Vthis
Vkiss
Vababcc
p3921
Va
g3387
I120
g5
tp3922
a(Vtrips
Vlips
p3923
g3921
Vb
g3387
I120
g5
tp3924
a(Vforlorn
Vforsworn
g3921
Vc
g3387
I120
g5
tp3925
a(Vreason
Vtreason
Vababcc
p3926
Va
g3387
I121
g5
tp3927
a(Vshine
Vdivine
g3926
Vb
g3387
I121
g5
tp3928
a(Vdespite
Vnight
g3926
Vc
g3387
I121
g5
tp3929
a(VDestinies
p3930
Vinfirmities
Vababcc
p3931
Va
g3387
I122
g5
tp3932
a(Vnature
Vdefeature
g3931
Vb
g3387
I122
g5
tp3933
a(Vtyranny
p3934
Vmisery
g3931
Vc
g3387
I122
g5
tp3935
a(Vfaint
Vattaint
p3936
Vababcc
p3937
Va
g3387
I123
g5
tp3938
a(Vwood
Vblood
g3937
Vb
g3387
I123
g5
tp3939
a(Vdespair
Vfair
g3937
Vc
g3387
I123
g5
tp3940
a(Vmaladies
p3941
Vqualities
Vababcc
p3942
Va
g3387
I124
g5
tp3943
a(Vunder
Vwonder
g3942
Vb
g3387
I124
g5
tp3944
a(Vdone
Vsun
g3942
Vc
g3387
I124
g5
tp3945
a(Vchastity
Vscarcity
p3946
Vababcc
p3947
Va
g3387
I125
g5
tp3948
a(Vnuns
Vsons
g3947
Vb
g3387
I125
g5
tp3949
a(Vnight
p3950
Vlight
g3947
Vc
g3387
I125
g5
tp3951
a(Vgrave
Vhave
Vababcc
p3952
Va
g3387
I126
g5
tp3953
a(Vposterity
p3954
Vobscurity
g3952
Vb
g3387
I126
g5
tp3955
a(Vdisdain
Vslain
g3952
Vc
g3387
I126
g5
tp3956
a(Vaway
Vslay
Vababcc
p3957
Va
g3387
I127
g5
tp3958
a(Vstrife
Vlife
g3957
Vb
g3387
I127
g5
tp3959
a(Vfrets
Vbegets
g3957
Vc
g3387
I127
g5
tp3960
a(Vagain
p3961
Vvain
Vababcc
p3962
Va
g3387
I128
g5
tp3963
a(Vtheme
Vstream
g3962
Vb
g3387
I128
g5
tp3964
a(Vnurse
Vworse
g3962
Vc
g3387
I128
g5
tp3965
a(Vtongues
Vsongs
Vababcc
p3966
Va
g3387
I129
g5
tp3967
a(Vown
Vblown
p3968
g3966
Vb
g3387
I129
g5
tp3969
a(Vear
Vthere
g3966
Vc
g3387
I129
g5
tp3970
a(Vrun
p3971
Vundone
Vababcc
p3972
Va
g3387
I130
g5
tp3973
a(Vbreast
Vrest
g3972
Vb
g3387
I130
g5
tp3974
a(Vgroan
Valone
g3972
Vc
g3387
I130
g5
tp3975
a(Vreprove
Vlove
Vababcc
p3976
Va
g3387
I131
g5
tp3977
a(Vdanger
Vstranger
g3976
Vb
g3387
I131
g5
tp3978
a(Vexcuse
Vabuse
g3976
Vc
g3387
I131
g5
tp3979
a(Vfled
Vfed
p3980
Vababcc
p3981
Va
g3387
I132
g5
tp3982
a(Vname
Vblame
g3981
Vb
g3387
I132
g5
tp3983
a(Vbereaves
Vleaves
g3981
Vc
g3387
I132
g5
tp3984
a(Vrain
Vremain
Vababcc
p3985
Va
g3387
I133
g5
tp3986
a(Vsun
Vdone
g3985
Vb
g3387
I133
g5
tp3987
a(Vdies
Vlies
g3985
Vc
g3387
I133
g5
tp3988
a(Vsay
Vaway
Vababcc
p3989
Va
g3387
I134
g5
tp3990
a(Vgreen
Vteen
g3989
Vb
g3387
I134
g5
tp3991
a(Vattended
Voffended
g3989
Vc
g3387
I134
g5
tp3992
a(Vembrace
Vapace
Vababcc
p3993
Va
g3387
I135
g5
tp3994
a(Vbreast
Vdistress'd
g3993
Vb
g3387
I135
g5
tp3995
a(Vsky
Veye
g3993
Vc
g3387
I135
g5
tp3996
a(Vshore
p3997
Vmore
Vababcc
p3998
Va
g3387
I136
g5
tp3999
a(Vfriend
Vcontend
g3998
Vb
g3387
I136
g5
tp4000
a(Vnight
p4001
Vsight
g3998
Vc
g3387
I136
g5
tp4002
a(Vunaware
p4003
Vare
Vababcc
p4004
Va
g3387
I137
g5
tp4005
a(Vflood
Vwood
g4004
Vb
g3387
I137
g5
tp4006
a(Vlay
Vway
g4004
Vc
g3387
I137
g5
tp4007
a(Vgroans
Vmoans
Vababcc
p4008
Va
g3387
I138
g5
tp4009
a(Vtroubled
Vredoubled
g4008
Vb
g3387
I138
g5
tp4010
a(Vwoe
Vso
g4008
Vc
g3387
I138
g5
tp4011
a(Vnote
p4012
Vdote
Vababcc
p4013
Va
g3387
I139
g5
tp4014
a(Vditty
Vfoolish-witty
g4013
Vb
g3387
I139
g5
tp4015
a(Vwoe
Vso
g4013
Vc
g3387
I139
g5
tp4016
a(Vnight
Vdelight
p4017
Vababcc
p4018
Va
g3387
I140
g5
tp4019
a(Vshort
Vsport
g4018
Vb
g3387
I140
g5
tp4020
a(Vbegun
p4021
Vdone
g4018
Vc
g3387
I140
g5
tp4022
a(Vwithal
p4023
Vcall
Vababcc
p4024
Va
g3387
I141
g5
tp4025
a(Vparasites
Vwits
g4024
Vb
g3387
I141
g5
tp4026
a(Vso
V'No
g4024
Vc
g3387
I141
g5
tp4027
a(Vrest
Vbreast
p4028
Vababcc
p4029
Va
g3387
I142
g5
tp4030
a(Vhigh
Vmajesty
g4029
Vb
g3387
I142
g5
tp4031
a(Vbehold
p4032
Vgold
g4029
Vc
g3387
I142
g5
tp4033
a(Vgood-morrow
Vborrow
p4034
Vababcc
p4035
Va
g3387
I143
g5
tp4036
a(Vlight
Vbright
g4035
Vb
g3387
I143
g5
tp4037
a(Vmother
Vother
g4035
Vc
g3387
I143
g5
tp4038
a(Vgrove
Vlove
Vababcc
p4039
Va
g3387
I144
g5
tp4040
a(Vo'erworn
Vhorn
g4039
Vb
g3387
I144
g5
tp4041
a(Vlustily
Vcry
g4039
Vc
g3387
I144
g5
tp4042
a(Vway
p4043
Vstay
Vababcc
p4044
Va
g3387
I145
g5
tp4045
a(Vface
Vembrace
g4044
Vb
g3387
I145
g5
tp4046
a(Vache
Vbrake
g4044
Vc
g3387
I145
g5
tp4047
a(Vbay
Vway
Vababcc
p4048
Va
g3387
I146
g5
tp4049
a(Vadder
p4050
Vshudder
g4048
Vb
g3387
I146
g5
tp4051
a(Vhounds
p4052
Vconfounds
g4048
Vc
g3387
I146
g5
tp4053
a(Vchase
Vplace
Vababcc
p4054
Va
g3387
I147
g5
tp4055
a(Vproud
Valoud
g4054
Vb
g3387
I147
g5
tp4056
a(Vcurst
Vfirst
g4054
Vc
g3387
I147
g5
tp4057
a(Vear
Vfear
Vababcc
p4058
Va
g3387
I148
g5
tp4059
a(Vheart
Vpart
g4058
Vb
g3387
I148
g5
tp4060
a(Vyield
Vfield
g4058
Vc
g3387
I148
g5
tp4061
a(Vecstasy
Vfantasy
Vababcc
p4062
Va
g3387
I149
g5
tp4063
a(Vdismay'd
Vafraid
g4062
Vb
g3387
I149
g5
tp4064
a(Vmore
Vboar
g4062
Vc
g3387
I149
g5
tp4065
a(Vred
Vspread
Vababcc
p4066
Va
g3387
I150
g5
tp4067
a(Vtogether
Vwhither
g4066
Vb
g3387
I150
g5
tp4068
a(Vfurther
Vmurther
g4066
Vc
g3387
I150
g5
tp4069
a(Vways
Vdelays
Vababcc
p4070
Va
g3387
I151
g5
tp4071
a(Vagain
Vbrain
g4070
Vb
g3387
I151
g5
tp4072
a(Vrespecting
Veffecting
g4070
Vc
g3387
I151
g5
tp4073
a(Vhound
Vwound
Vababcc
p4074
Va
g3387
I152
g5
tp4075
a(Vmaster
Vplaster
g4074
Vb
g3387
I152
g5
tp4076
a(Vscowling
Vhowling
g4074
Vc
g3387
I152
g5
tp4077
a(Vnoise
Vvoice
Vababcc
p4078
Va
g3387
I153
g5
tp4079
a(Vgrim
Vhim
g4078
Vb
g3387
I153
g5
tp4080
a(Vbelow
Vgo
g4078
Vc
g3387
I153
g5
tp4081
a(Vamazed
p4082
Vgazed
Vababcc
p4083
Va
g3387
I154
g5
tp4084
a(Vprodigies
Vprophecies
g4083
Vb
g3387
I154
g5
tp4085
a(Vbreath
p4086
VDeath
g4083
Vc
g3387
I154
g5
tp4087
a(Vlean
Vmean
p4088
Vababcc
p4089
Va
g3387
I155
g5
tp4090
a(VDeath
Vbreath
g4089
Vb
g3387
I155
g5
tp4091
a(Vset
p4092
Vviolet
g4089
Vc
g3387
I155
g5
tp4093
a(Vbe
Vsee
Vababcc
p4094
Va
g3387
I156
g5
tp4095
a(Vit
Vhit
g4094
Vb
g3387
I156
g5
tp4096
a(Vdart
p4097
Vheart
g4094
Vc
g3387
I156
g5
tp4098
a(Vspoke
Vstroke
Vababcc
p4099
Va
g3387
I157
g5
tp4100
a(Vpower
Vflower
g4099
Vb
g3387
I157
g5
tp4101
a(Vfled
Vdead
g4099
Vc
g3387
I157
g5
tp4102
a(Vweeping
Vsleeping
p4103
Vababcc
p4104
Va
g3387
I158
g5
tp4105
a(Vthee
Vsee
g4104
Vb
g3387
I158
g5
tp4106
a(Vvigour
Vrigour
g4104
Vc
g3387
I158
g5
tp4107
a(Vdespair
Vfair
p4108
Vababcc
p4109
Va
g3387
I159
g5
tp4110
a(Vstopt
p4111
Vdropt
g4109
Vb
g3387
I159
g5
tp4112
a(Vrain
Vagain
g4109
Vc
g3387
I159
g5
tp4113
a(Vborrow
Vsorrow
Vababcc
p4114
Va
g3387
I160
g5
tp4115
a(Veye
Vdry
g4114
Vb
g3387
I160
g5
tp4116
a(Vrain
Vagain
g4114
Vc
g3387
I160
g5
tp4117
a(Vwoe
Vso
Vababcc
p4118
Va
g3387
I161
g5
tp4119
a(Vgrief
Vchief
g4118
Vb
g3387
I161
g5
tp4120
a(Vtogether
Vweather
g4118
Vc
g3387
I161
g5
tp4121
a(Vhollo
Vfollow
p4122
Vababcc
p4123
Va
g3387
I162
g5
tp4124
a(Vwell
Vexpel
g4123
Vb
g3387
I162
g5
tp4125
a(Vrejoice
Vvoice
g4123
Vc
g3387
I162
g5
tp4126
a(Vtide
Vbeside
Vababcc
p4127
Va
g3387
I163
g5
tp4128
a(Vglass
Vpass
g4127
Vb
g3387
I163
g5
tp4129
a(Vground
Vdrown'd
g4127
Vc
g3387
I163
g5
tp4130
a(Vseems
p4131
Vextremes
Vababcc
p4132
Va
g3387
I164
g5
tp4133
a(Vcredulous
Vridiculous
g4132
Vb
g3387
I164
g5
tp4134
a(Vunlikely
Vquickly
g4132
Vc
g3387
I164
g5
tp4135
a(Vwrought
Vnaught
Vababcc
p4136
Va
g3387
I165
g5
tp4137
a(Vblame
Vname
g4136
Vb
g3387
I165
g5
tp4138
a(Vkings
Vthings
g4136
Vc
g3387
I165
g5
tp4139
a(Vjest
Vbeast
Vababcc
p4140
Va
g3387
I166
g5
tp4141
a(Vfear
p4142
Vsevere
g4140
Vb
g3387
I166
g5
tp4143
a(Vconfess
Vdecease
g4140
Vc
g3387
I166
g5
tp4144
a(Vtongue
Vwrong
Vababcc
p4145
Va
g3387
I167
g5
tp4146
a(Vcommander
Vslander
g4145
Vb
g3387
I167
g5
tp4147
a(Vyet
p4148
Vwit
g4145
Vc
g3387
I167
g5
tp4149
a(Valive
Vthrive
Vababcc
p4150
Va
g3387
I168
g5
tp4151
a(Vextenuate
Vinsinuate
g4150
Vb
g3387
I168
g5
tp4152
a(Vstories
p4153
Vglories
g4150
Vc
g3387
I168
g5
tp4154
a(VI
Vdie
p4155
Vababcc
p4156
Va
g3387
I169
g5
tp4157
a(Vmind
p4158
Vkind
g4156
Vb
g3387
I169
g5
tp4159
a(Vslain
Vagain
g4156
Vc
g3387
I169
g5
tp4160
a(Vfear
p4161
Vear
Vababcc
p4162
Va
g3387
I170
g5
tp4163
a(Vthieves
Vgrieves
g4162
Vb
g3387
I170
g5
tp4164
a(Vhorn
Vforlorn
g4162
Vc
g3387
I170
g5
tp4165
a(Vflies
Vspies
p4166
Vababcc
p4167
Va
g3387
I171
g5
tp4168
a(Vlight
Vdelight
g4167
Vb
g3387
I171
g5
tp4169
a(Vview
Vwithdrew
g4167
Vc
g3387
I171
g5
tp4170
a(Vhit
Vsit
Vababcc
p4171
Va
g3387
I172
g5
tp4172
a(Vpain
Vagain
g4171
Vb
g3387
I172
g5
tp4173
a(Vfled
p4174
Vhead
g4171
Vc
g3387
I172
g5
tp4175
a(Vlight
p4176
Vnight
Vababcc
p4177
Va
g3387
I173
g5
tp4178
a(Vbrain
Vagain
g4177
Vb
g3387
I173
g5
tp4179
a(Vthrone
Vgroan
g4177
Vc
g3387
I173
g5
tp4180
a(Vquakes
Vshakes
Vababcc
p4181
Va
g3387
I174
g5
tp4182
a(Vground
Vconfound
g4181
Vb
g3387
I174
g5
tp4183
a(Vsurprise
p4184
Veyes
g4181
Vc
g3387
I174
g5
tp4185
a(Vlight
p4186
Vwhite
p4187
Vababcc
p4188
Va
g3387
I175
g5
tp4189
a(Vtrench'd
p4190
Vdrench'd
g4188
Vb
g3387
I175
g5
tp4191
a(Vweed
Vbleed
g4188
Vc
g3387
I175
g5
tp4192
a(Vnoteth
Vdoteth
Vababcc
p4193
Va
g3387
I176
g5
tp4194
a(Vhead
Vdead
g4193
Vb
g3387
I176
g5
tp4195
a(Vbow
Vnow
g4193
Vc
g3387
I176
g5
tp4196
a(Vsteadfastly
Veye
Vababcc
p4197
Va
g3387
I177
g5
tp4198
a(Vthree
Vbe
g4197
Vb
g3387
I177
g5
tp4199
a(Vdoubled
Vtroubled
g4197
Vc
g3387
I177
g5
tp4200
a(Vone
Vgone
Vababcc
p4201
Va
g3387
I178
g5
tp4202
a(Vdead
Vlead
g4201
Vb
g3387
I178
g5
tp4203
a(Vfire
Vdesire
g4201
Vc
g3387
I178
g5
tp4204
a(Vlost
Vboast
p4205
Vababcc
p4206
Va
g3387
I179
g5
tp4207
a(Vviewing
Vensuing
g4206
Vb
g3387
I179
g5
tp4208
a(Vtrim
Vhim
g4206
Vc
g3387
I179
g5
tp4209
a(Vwear
Vfear
Vababcc
p4210
Va
g3387
I180
g5
tp4211
a(Vyou
Vyou
g4210
Vb
g3387
I180
g5
tp4212
a(Vair
p4213
Vfair
g4210
Vc
g3387
I180
g5
tp4214
a(Von
Vgone
Vababcc
p4215
Va
g3387
I181
g5
tp4216
a(Vpeep
Vweep
g4215
Vb
g3387
I181
g5
tp4217
a(Vyears
Vtears
g4215
Vc
g3387
I181
g5
tp4218
a(Valong
p4219
Vsung
Vababcc
p4220
Va
g3387
I182
g5
tp4221
a(Vhim
Vhim
g4220
Vb
g3387
I182
g5
tp4222
a(Vprey
p4223
Vday
g4220
Vc
g3387
I182
g5
tp4224
a(Vbrook
Vtook
Vababcc
p4225
Va
g3387
I183
g5
tp4226
a(Vgills
Vbills
p4227
g4225
Vb
g3387
I183
g5
tp4228
a(Vcherries
Vberries
g4225
Vc
g3387
I183
g5
tp4229
a(Vboar
Vwore
Vababcc
p4230
Va
g3387
I184
g5
tp4231
a(Vgrave
Vgave
g4230
Vb
g3387
I184
g5
tp4232
a(Vknow
p4233
Vso
g4230
Vc
g3387
I184
g5
tp4234
a(Vslain
Vagain
Vababcc
p4235
Va
g3387
I185
g5
tp4236
a(Vspear
Vthere
g4235
Vb
g3387
I185
g5
tp4237
a(Vswine
p4238
Vgroin
g4235
Vc
g3387
I185
g5
tp4239
a(Vconfess
Vbless
p4240
Vababcc
p4241
Va
g3387
I186
g5
tp4242
a(Vfirst
Vaccurst
g4241
Vb
g3387
I186
g5
tp4243
a(Vstood
Vblood
g4241
Vc
g3387
I186
g5
tp4244
a(Vpale
Vtale
Vababcc
p4245
Va
g3387
I187
g5
tp4246
a(Vcold
Vtold
g4245
Vb
g3387
I187
g5
tp4247
a(Veyes
Vlies
g4245
Vc
g3387
I187
g5
tp4248
a(Vbeheld
p4249
Vexcell'd
Vababcc
p4250
Va
g3387
I188
g5
tp4251
a(Vreflect
Veffect
g4250
Vb
g3387
I188
g5
tp4252
a(Vspite
Vlight
g4250
Vc
g3387
I188
g5
tp4253
a(Vprophesy
Vjealousy
Vababcc
p4254
Va
g3387
I189
g5
tp4255
a(Vattend
Vend
g4254
Vb
g3387
I189
g5
tp4256
a(Vlow
Vwoe
g4254
Vc
g3387
I189
g5
tp4257
a(Vfraud
Vo'erstraw'd
p4258
Vababcc
p4259
Va
g3387
I190
g5
tp4260
a(Vbreathing-while
Vbeguile
g4259
Vb
g3387
I190
g5
tp4261
a(Vweak
Vspeak
g4259
Vc
g3387
I190
g5
tp4262
a(Vriot
Vquiet
Vababcc
p4263
Va
g3387
I191
g5
tp4264
a(Vmeasures
Vtreasures
g4263
Vb
g3387
I191
g5
tp4265
a(Vsilly-mild
Vchild
g4263
Vc
g3387
I191
g5
tp4266
a(Vfear
Vsevere
Vababcc
p4267
Va
g3387
I192
g5
tp4268
a(Vmistrust
Vjust
g4267
Vb
g3387
I192
g5
tp4269
a(Vtoward
Vcoward
g4267
Vc
g3387
I192
g5
tp4270
a(Vevents
Vdiscontents
Vababcc
p4271
Va
g3387
I193
g5
tp4272
a(Vsire
Vfire
g4271
Vb
g3387
I193
g5
tp4273
a(Vdestroy
Venjoy
g4271
Vc
g3387
I193
g5
tp4274
a(Vkill'd
p4275
Vspill'd
Vababcc
p4276
Va
g3387
I194
g5
tp4277
a(Vsight
Vwhite
g4276
Vb
g3387
I194
g5
tp4278
a(Vblood
p4279
Vstood
g4276
Vc
g3387
I194
g5
tp4280
a(Vsmell
Vdwell
Vababcc
p4281
Va
g3387
I195
g5
tp4282
a(Vbreath
Vdeath
g4281
Vb
g3387
I195
g5
tp4283
a(Vappears
p4284
Vtears
g4281
Vc
g3387
I195
g5
tp4285
a(Vguise
Veyes
Vababcc
p4286
Va
g3387
I196
g5
tp4287
a(Vsire
Vdesire
g4286
Vb
g3387
I196
g5
tp4288
a(Vgood
p4289
Vblood
g4286
Vc
g3387
I196
g5
tp4290
a(Vbreast
Vrest
Vababcc
p4291
Va
g3387
I197
g5
tp4292
a(Vright
Vnight
g4291
Vb
g3387
I197
g5
tp4293
a(Vhour
p4294
Vflower
g4291
Vc
g3387
I197
g5
tp4295
a(Vhies
Vskies
p4296
Vababcc
p4297
Va
g3387
I198
g5
tp4298
a(Vaid
p4299
Vconvey'd
g4297
Vb
g3387
I198
g5
tp4300
a(Vqueen
p4301
Vseen
g4297
Vc
g3387
I198
g5
tp4302
a(Vincrease
p4303
Vdecease
p4304
Vababcdcdefefgg
p4305
Va
VSonnets
p4306
I0
g5
tp4307
a(Vdie
p4308
Vmemory
p4309
g4305
Vb
g4306
I0
g5
tp4310
a(Veyes
p4311
Vlies
p4312
g4305
Vc
g4306
I0
g5
tp4313
a(Vfuel
p4314
Vcruel
p4315
g4305
Vd
g4306
I0
g5
tp4316
a(Vornament
p4317
Vcontent
p4318
g4305
Ve
g4306
I0
g5
tp4319
a(Vspring
p4320
Vniggarding
p4321
g4305
Vf
g4306
I0
g5
tp4322
a(Vbe
p4323
Vthee
p4324
g4305
Vg
g4306
I0
g5
tp4325
a(Vbrow
p4326
Vnow
p4327
Vababcdcdefefgg
p4328
Va
g4306
I1
g5
tp4329
a(Vfield
p4330
Vheld
p4331
g4328
Vb
g4306
I1
g5
tp4332
a(Vlies
p4333
Veyes
p4334
g4328
Vc
g4306
I1
g5
tp4335
a(Vdays
p4336
Vpraise
p4337
g4328
Vd
g4306
I1
g5
tp4338
a(Vuse
p4339
Vexcuse
p4340
g4328
Ve
g4306
I1
g5
tp4341
a(Vmine
p4342
Vthine
p4343
g4328
Vf
g4306
I1
g5
tp4344
a(Vold
p4345
Vcold
p4346
g4328
Vg
g4306
I1
g5
tp4347
a(Vviewest
p4348
Vrenewest
p4349
Vababcdcdefefgg
p4350
Va
g4306
I2
g5
tp4351
a(Vanother
p4352
Vmother
p4353
g4350
Vb
g4306
I2
g5
tp4354
a(Vwomb
p4355
Vtomb
p4356
g4350
Vc
g4306
I2
g5
tp4357
a(Vhusbandry
p4358
Vposterity
p4359
g4350
Vd
g4306
I2
g5
tp4360
a(Vthee
p4361
Vsee
p4362
g4350
Ve
g4306
I2
g5
tp4363
a(Vprime
p4364
Vtime
p4365
g4350
Vf
g4306
I2
g5
tp4366
a(Vbe
p4367
Vthee
p4368
g4350
Vg
g4306
I2
g5
tp4369
a(Vspend
p4370
Vlend
p4371
Vababcdcdefefgg
p4372
Va
g4306
I3
g5
tp4373
a(Vlegacy
p4374
Vfree
p4375
g4372
Vb
g4306
I3
g5
tp4376
a(Vabuse
p4377
Vuse
p4378
g4372
Vc
g4306
I3
g5
tp4379
a(Vgive
p4380
Vlive
p4381
g4372
Vd
g4306
I3
g5
tp4382
a(Valone
p4383
Vgone
p4384
g4372
Ve
g4306
I3
g5
tp4385
a(Vdeceive
p4386
Vleave
p4387
g4372
Vf
g4306
I3
g5
tp4388
a(Vthee
p4389
Vbe
p4390
g4372
Vg
g4306
I3
g5
tp4391
a(Vframe
p4392
Vsame
p4393
Vababcdcdefefgg
p4394
Va
g4306
I4
g5
tp4395
a(Vdwell
p4396
Vexcel
p4397
g4394
Vb
g4306
I4
g5
tp4398
a(Von
p4399
Vgone
p4400
g4394
Vc
g4306
I4
g5
tp4401
a(Vthere
p4402
Vwhere
p4403
g4394
Vd
g4306
I4
g5
tp4404
a(Vleft
p4405
Vbereft
p4406
g4394
Ve
g4306
I4
g5
tp4407
a(Vglass
p4408
Vwas
p4409
g4394
Vf
g4306
I4
g5
tp4410
a(Vmeet
p4411
Vsweet
p4412
g4394
Vg
g4306
I4
g5
tp4413
a(Vdeface
p4414
Vplace
p4415
Vababcdcdefefgg
p4416
Va
g4306
I5
g5
tp4417
a(Vdistilld
p4418
Vkilld
p4419
g4416
Vb
g4306
I5
g5
tp4420
a(Vusury
p4421
Vthee
p4422
g4416
Vc
g4306
I5
g5
tp4423
a(Vloan
p4424
Vone
p4425
g4416
Vd
g4306
I5
g5
tp4426
a(Vart
p4427
Vdepart
p4428
g4416
Ve
g4306
I5
g5
tp4429
a(Vthee
p4430
Vposterity
p4431
g4416
Vf
g4306
I5
g5
tp4432
a(Vfair
p4433
Vheir
p4434
g4416
Vg
g4306
I5
g5
tp4435
a(Vlight
p4436
Vsight
p4437
Vababcdcdefefgg
p4438
Va
g4306
I6
g5
tp4439
a(Veye
p4440
Vmajesty
p4441
g4438
Vb
g4306
I6
g5
tp4442
a(Vhill
p4443
Vstill
p4444
g4438
Vc
g4306
I6
g5
tp4445
a(Vage
p4446
Vpilgrimage
p4447
g4438
Vd
g4306
I6
g5
tp4448
a(Vcar
p4449
Vare
p4450
g4438
Ve
g4306
I6
g5
tp4451
a(Vday
p4452
Vway
p4453
g4438
Vf
g4306
I6
g5
tp4454
a(Vnoon
p4455
Vson
p4456
g4438
Vg
g4306
I6
g5
tp4457
a(Vsadly
p4458
Vgladly
p4459
Vababcdcdefefgg
p4460
Va
g4306
I7
g5
tp4461
a(Vjoy
p4462
Vannoy
p4463
g4460
Vb
g4306
I7
g5
tp4464
a(Vsounds
p4465
Vconfounds
p4466
g4460
Vc
g4306
I7
g5
tp4467
a(Vear
p4468
Vbear
p4469
g4460
Vd
g4306
I7
g5
tp4470
a(Vanother
p4471
Vmother
p4472
g4460
Ve
g4306
I7
g5
tp4473
a(Vordering
p4474
Vsing
p4475
g4460
Vf
g4306
I7
g5
tp4476
a(Vone
p4477
Vnone
p4478
g4460
Vg
g4306
I7
g5
tp4479
a(Veye
p4480
Vdie
p4481
Vababcdcdefefgg
p4482
Va
g4306
I8
g5
tp4483
a(Vlife
p4484
Vwife
p4485
g4482
Vb
g4306
I8
g5
tp4486
a(Vweep
p4487
Vkeep
p4488
g4482
Vc
g4306
I8
g5
tp4489
a(Vbehind
p4490
Vmind
p4491
g4482
Vd
g4306
I8
g5
tp4492
a(Vspend
p4493
Vend
p4494
g4482
Ve
g4306
I8
g5
tp4495
a(Vit
p4496
Vit
p4497
g4482
Vf
g4306
I8
g5
tp4498
a(Vsits
p4499
Vcommits
p4500
g4482
Vg
g4306
I8
g5
tp4501
a(Vany
p4502
Vmany
p4503
Vababcdcdefefgg
p4504
Va
g4306
I9
g5
tp4505
a(Vunprovident
p4506
Vevident
p4507
g4504
Vb
g4306
I9
g5
tp4508
a(Vhate
p4509
Vruinate
p4510
g4504
Vc
g4306
I9
g5
tp4511
a(Vconspire
p4512
Vdesire
p4513
g4504
Vd
g4306
I9
g5
tp4514
a(Vmind
p4515
Vkind
p4516
g4504
Ve
g4306
I9
g5
tp4517
a(Vlove
p4518
Vprove
p4519
g4504
Vf
g4306
I9
g5
tp4520
a(Vme
p4521
Vthee
p4522
g4504
Vg
g4306
I9
g5
tp4523
a(Vgrowest
p4524
Vbestowest
p4525
Vababcdcdefefgg
p4526
Va
g4306
I10
g5
tp4527
a(Vdepartest
p4528
Vconvertest
p4529
g4526
Vb
g4306
I10
g5
tp4530
a(Vincrease
p4531
Vcease
p4532
g4526
Vc
g4306
I10
g5
tp4533
a(Vdecay
p4534
Vaway
p4535
g4526
Vd
g4306
I10
g5
tp4536
a(Vstore
p4537
Vmore
p4538
g4526
Ve
g4306
I10
g5
tp4539
a(Vperish
p4540
Vcherish
p4541
g4526
Vf
g4306
I10
g5
tp4542
a(Vthereby
p4543
Vdie
p4544
g4526
Vg
g4306
I10
g5
tp4545
a(Vtime
p4546
Vprime
p4547
Vababcdcdefefgg
p4548
Va
g4306
I11
g5
tp4549
a(Vnight
p4550
Vwhite
p4551
g4548
Vb
g4306
I11
g5
tp4552
a(Vleaves
p4553
Vsheaves
p4554
g4548
Vc
g4306
I11
g5
tp4555
a(Vherd
p4556
Vbeard
p4557
g4548
Vd
g4306
I11
g5
tp4558
a(Vmake
p4559
Vforsake
p4560
g4548
Ve
g4306
I11
g5
tp4561
a(Vgo
p4562
Vgrow
p4563
g4548
Vf
g4306
I11
g5
tp4564
a(Vdefence
p4565
Vhence
p4566
g4548
Vg
g4306
I11
g5
tp4567
a(Vare
p4568
Vprepare
p4569
Vababcdcdefefgg
p4570
Va
g4306
I12
g5
tp4571
a(Vlive
p4572
Vgive
p4573
g4570
Vb
g4306
I12
g5
tp4574
a(Vlease
p4575
Vdecease
p4576
g4570
Vc
g4306
I12
g5
tp4577
a(Vwere
p4578
Vbear
p4579
g4570
Vd
g4306
I12
g5
tp4580
a(Vdecay
p4581
Vday
p4582
g4570
Ve
g4306
I12
g5
tp4583
a(Vuphold
p4584
Vcold
p4585
g4570
Vf
g4306
I12
g5
tp4586
a(Vknow
p4587
Vso
p4588
g4570
Vg
g4306
I12
g5
tp4589
a(Vpluck
p4590
Vluck
p4591
Vababcdcdefefgg
p4592
Va
g4306
I13
g5
tp4593
a(Vastronomy
p4594
Vquality
p4595
g4592
Vb
g4306
I13
g5
tp4596
a(Vtell
p4597
Vwell
p4598
g4592
Vc
g4306
I13
g5
tp4599
a(Vwind
p4600
Vfind
p4601
g4592
Vd
g4306
I13
g5
tp4602
a(Vderive
p4603
Vthrive
p4604
g4592
Ve
g4306
I13
g5
tp4605
a(Vart
p4606
Vconvert
p4607
g4592
Vf
g4306
I13
g5
tp4608
a(Vprognosticate
p4609
Vdate
p4610
g4592
Vg
g4306
I13
g5
tp4611
a(Vgrows
p4612
Vshows
p4613
Vababcdcdefefgg
p4614
Va
g4306
I14
g5
tp4615
a(Vmoment
p4616
Vcomment
p4617
g4614
Vb
g4306
I14
g5
tp4618
a(Vincrease
p4619
Vdecrease
p4620
g4614
Vc
g4306
I14
g5
tp4621
a(Vsky
p4622
Vmemory
p4623
g4614
Vd
g4306
I14
g5
tp4624
a(Vstay
p4625
Vdecay
p4626
g4614
Ve
g4306
I14
g5
tp4627
a(Vsight
p4628
Vnight
p4629
g4614
Vf
g4306
I14
g5
tp4630
a(Vyou
p4631
Vnew
p4632
g4614
Vg
g4306
I14
g5
tp4633
a(Vway
p4634
Vdecay
p4635
Vababcdcdefefgg
p4636
Va
g4306
I15
g5
tp4637
a(Vtime
p4638
Vrhyme
p4639
g4636
Vb
g4306
I15
g5
tp4640
a(Vhours
p4641
Vflowers
p4642
g4636
Vc
g4306
I15
g5
tp4643
a(Vunset
p4644
Vcounterfeit
p4645
g4636
Vd
g4306
I15
g5
tp4646
a(Vrepair
p4647
Vfair
p4648
g4636
Ve
g4306
I15
g5
tp4649
a(Vpen
p4650
Vmen
p4651
g4636
Vf
g4306
I15
g5
tp4652
a(Vstill
p4653
Vskill
p4654
g4636
Vg
g4306
I15
g5
tp4655
a(Vcome
p4656
Vtomb
p4657
Vababcdcdefefgg
p4658
Va
g4306
I16
g5
tp4659
a(Vdeserts
p4660
Vparts
p4661
g4658
Vb
g4306
I16
g5
tp4662
a(Veyes
p4663
Vlies
p4664
g4658
Vc
g4306
I16
g5
tp4665
a(Vgraces
p4666
Vfaces
p4667
g4658
Vd
g4306
I16
g5
tp4668
a(Vage
p4669
Vrage
p4670
g4658
Ve
g4306
I16
g5
tp4671
a(Vtongue
p4672
Vsong
p4673
g4658
Vf
g4306
I16
g5
tp4674
a(Vtime
p4675
Vrhyme
p4676
g4658
Vg
g4306
I16
g5
tp4677
a(Vday
p4678
Vmay
p4679
Vababcdcdefefgg
p4680
Va
g4306
I17
g5
tp4681
a(Vtemperate
p4682
Vdate
p4683
g4680
Vb
g4306
I17
g5
tp4684
a(Vshines
p4685
Vdeclines
p4686
g4680
Vc
g4306
I17
g5
tp4687
a(Vdimmd
p4688
Vuntrimmd
p4689
g4680
Vd
g4306
I17
g5
tp4690
a(Vfade
p4691
Vshade
p4692
g4680
Ve
g4306
I17
g5
tp4693
a(Vowest
p4694
Vgrowest
p4695
g4680
Vf
g4306
I17
g5
tp4696
a(Vsee
p4697
Vthee
p4698
g4680
Vg
g4306
I17
g5
tp4699
a(Vpaws
p4700
Vjaws
p4701
Vababcdcdefefgg
p4702
Va
g4306
I18
g5
tp4703
a(Vbrood
p4704
Vblood
p4705
g4702
Vb
g4306
I18
g5
tp4706
a(Vfleets
p4707
Vsweets
p4708
g4702
Vc
g4306
I18
g5
tp4709
a(Vtime
p4710
Vcrime
p4711
g4702
Vd
g4306
I18
g5
tp4712
a(Vbrow
p4713
Vallow
p4714
g4702
Ve
g4306
I18
g5
tp4715
a(Vpen
p4716
Vmen
p4717
g4702
Vf
g4306
I18
g5
tp4718
a(Vwrong
p4719
Vyoung
p4720
g4702
Vg
g4306
I18
g5
tp4721
a(Vpainted
p4722
Vacquainted
p4723
Vababcdcdefefgg
p4724
Va
g4306
I19
g5
tp4725
a(Vpassion
p4726
Vfashion
p4727
g4724
Vb
g4306
I19
g5
tp4728
a(Vrolling
p4729
Vcontrolling
p4730
g4724
Vc
g4306
I19
g5
tp4731
a(Vgazeth
p4732
Vamazeth
p4733
g4724
Vd
g4306
I19
g5
tp4734
a(Vcreated
p4735
Vdefeated
p4736
g4724
Ve
g4306
I19
g5
tp4737
a(Vdoting
p4738
Vnothing
p4739
g4724
Vf
g4306
I19
g5
tp4740
a(Vpleasure
p4741
Vtreasure
p4742
g4724
Vg
g4306
I19
g5
tp4743
a(Vmuse
p4744
Vuse
p4745
Vababcdcdefefgg
p4746
Va
g4306
I20
g5
tp4747
a(Vverse
p4748
Vrehearse
p4749
g4746
Vb
g4306
I20
g5
tp4750
a(Vcompare
p4751
Vrare
p4752
g4746
Vc
g4306
I20
g5
tp4753
a(Vgems
p4754
Vhems
p4755
g4746
Vd
g4306
I20
g5
tp4756
a(Vwrite
p4757
Vbright
p4758
g4746
Ve
g4306
I20
g5
tp4759
a(Vfair
p4760
Vair
p4761
g4746
Vf
g4306
I20
g5
tp4762
a(Vwell
p4763
Vsell
p4764
g4746
Vg
g4306
I20
g5
tp4765
a(Vold
p4766
Vbehold
p4767
Vababcdcdefefgg
p4768
Va
g4306
I21
g5
tp4769
a(Vdate
p4770
Vexpiate
p4771
g4768
Vb
g4306
I21
g5
tp4772
a(Vthee
p4773
Vme
p4774
g4768
Vc
g4306
I21
g5
tp4775
a(Vheart
p4776
Vart
p4777
g4768
Vd
g4306
I21
g5
tp4778
a(Vwary
p4779
Vchary
p4780
g4768
Ve
g4306
I21
g5
tp4781
a(Vwill
p4782
Vill
p4783
g4768
Vf
g4306
I21
g5
tp4784
a(Vslain
p4785
Vagain
p4786
g4768
Vg
g4306
I21
g5
tp4787
a(Vstage
p4788
Vrage
p4789
Vababcdcdefefgg
p4790
Va
g4306
I22
g5
tp4791
a(Vpart
p4792
Vheart
p4793
g4790
Vb
g4306
I22
g5
tp4794
a(Vsay
p4795
Vdecay
p4796
g4790
Vc
g4306
I22
g5
tp4797
a(Vrite
p4798
Vmight
p4799
g4790
Vd
g4306
I22
g5
tp4800
a(Veloquence
p4801
Vrecompense
p4802
g4790
Ve
g4306
I22
g5
tp4803
a(Vbreast
p4804
Vexpressd
p4805
g4790
Vf
g4306
I22
g5
tp4806
a(Vwrit
p4807
Vwit
p4808
g4790
Vg
g4306
I22
g5
tp4809
a(Vstelld
p4810
Vheld
p4811
Vababcdcdefefgg
p4812
Va
g4306
I23
g5
tp4813
a(Vheart
p4814
Vart
p4815
g4812
Vb
g4306
I23
g5
tp4816
a(Vskill
p4817
Vstill
p4818
g4812
Vc
g4306
I23
g5
tp4819
a(Vlies
p4820
Veyes
p4821
g4812
Vd
g4306
I23
g5
tp4822
a(Vdone
p4823
Vsun
p4824
g4812
Ve
g4306
I23
g5
tp4825
a(Vme
p4826
Vthee
p4827
g4812
Vf
g4306
I23
g5
tp4828
a(Vart
p4829
Vheart
p4830
g4812
Vg
g4306
I23
g5
tp4831
a(Vstars
p4832
Vbars
p4833
Vababcdcdefefgg
p4834
Va
g4306
I24
g5
tp4835
a(Vboast
p4836
Vmost
p4837
g4834
Vb
g4306
I24
g5
tp4838
a(Vspread
p4839
Vburied
p4840
g4834
Vc
g4306
I24
g5
tp4841
a(Veye
p4842
Vdie
p4843
g4834
Vd
g4306
I24
g5
tp4844
a(Vfight
p4845
Vquite
p4846
g4834
Ve
g4306
I24
g5
tp4847
a(Vfoild
p4848
Vtoild
p4849
g4834
Vf
g4306
I24
g5
tp4850
a(Vbeloved
p4851
Vremoved
p4852
g4834
Vg
g4306
I24
g5
tp4853
a(Vvassalage
p4854
Vembassage
p4855
Vababcdcdefefgg
p4856
Va
g4306
I25
g5
tp4857
a(Vknit
p4858
Vwit
p4859
g4856
Vb
g4306
I25
g5
tp4860
a(Vmine
p4861
Vthine
p4862
g4856
Vc
g4306
I25
g5
tp4863
a(Vit
p4864
Vit
p4865
g4856
Vd
g4306
I25
g5
tp4866
a(Vmoving
p4867
Vloving
p4868
g4856
Ve
g4306
I25
g5
tp4869
a(Vaspect
p4870
Vrespect
p4871
g4856
Vf
g4306
I25
g5
tp4872
a(Vthee
p4873
Vme
p4874
g4856
Vg
g4306
I25
g5
tp4875
a(Vbed
p4876
Vhead
p4877
Vababcdcdefefgg
p4878
Va
g4306
I26
g5
tp4879
a(Vtired
p4880
Vexpired
p4881
g4878
Vb
g4306
I26
g5
tp4882
a(Vabide
p4883
Vwide
p4884
g4878
Vc
g4306
I26
g5
tp4885
a(Vthee
p4886
Vsee
p4887
g4878
Vd
g4306
I26
g5
tp4888
a(Vsight
p4889
Vnight
p4890
g4878
Ve
g4306
I26
g5
tp4891
a(Vview
p4892
Vnew
p4893
g4878
Vf
g4306
I26
g5
tp4894
a(Vmind
p4895
Vfind
p4896
g4878
Vg
g4306
I26
g5
tp4897
a(Vplight
p4898
Vnight
p4899
Vababcdcdefefgg
p4900
Va
g4306
I27
g5
tp4901
a(Vrest
p4902
Voppressd
p4903
g4900
Vb
g4306
I27
g5
tp4904
a(Vreign
p4905
Vcomplain
p4906
g4900
Vc
g4306
I27
g5
tp4907
a(Vme
p4908
Vthee
p4909
g4900
Vd
g4306
I27
g5
tp4910
a(Vbright
p4911
Vnight
p4912
g4900
Ve
g4306
I27
g5
tp4913
a(Vheaven
p4914
Veven
p4915
g4900
Vf
g4306
I27
g5
tp4916
a(Vlonger
p4917
Vstronger
p4918
g4900
Vg
g4306
I27
g5
tp4919
a(Veyes
p4920
Vcries
p4921
Vababcdcdefefgg
p4922
Va
g4306
I28
g5
tp4923
a(Vstate
p4924
Vfate
p4925
g4922
Vb
g4306
I28
g5
tp4926
a(Vhope
p4927
Vscope
p4928
g4922
Vc
g4306
I28
g5
tp4929
a(Vpossessd
p4930
Vleast
p4931
g4922
Vd
g4306
I28
g5
tp4932
a(Vdespising
p4933
Varising
p4934
g4922
Ve
g4306
I28
g5
tp4935
a(Vstate
p4936
Vgate
p4937
g4922
Vf
g4306
I28
g5
tp4938
a(Vbrings
p4939
Vkings
p4940
g4922
Vg
g4306
I28
g5
tp4941
a(Vthought
p4942
Vsought
p4943
Vababcdcdefefgg
p4944
Va
g4306
I29
g5
tp4945
a(Vpast
p4946
Vwaste
p4947
g4944
Vb
g4306
I29
g5
tp4948
a(Vflow
p4949
Vwoe
p4950
g4944
Vc
g4306
I29
g5
tp4951
a(Vnight
p4952
Vsight
p4953
g4944
Vd
g4306
I29
g5
tp4954
a(Vforegone
p4955
Vmoan
p4956
g4944
Ve
g4306
I29
g5
tp4957
a(Voer
p4958
Vbefore
p4959
g4944
Vf
g4306
I29
g5
tp4960
a(Vfriend
p4961
Vend
p4962
g4944
Vg
g4306
I29
g5
tp4963
a(Vhearts
p4964
Vparts
p4965
Vababcdcdefefgg
p4966
Va
g4306
I30
g5
tp4967
a(Vdead
p4968
Vburied
p4969
g4966
Vb
g4306
I30
g5
tp4970
a(Vtear
p4971
Vappear
p4972
g4966
Vc
g4306
I30
g5
tp4973
a(Veye
p4974
Vlie
p4975
g4966
Vd
g4306
I30
g5
tp4976
a(Vlive
p4977
Vgive
p4978
g4966
Ve
g4306
I30
g5
tp4979
a(Vgone
p4980
Valone
p4981
g4966
Vf
g4306
I30
g5
tp4982
a(Vthee
p4983
Vme
p4984
g4966
Vg
g4306
I30
g5
tp4985
a(Vday
p4986
Vsurvey
p4987
Vababcdcdefefgg
p4988
Va
g4306
I31
g5
tp4989
a(Vcover
p4990
Vlover
p4991
g4988
Vb
g4306
I31
g5
tp4992
a(Vtime
p4993
Vrhyme
p4994
g4988
Vc
g4306
I31
g5
tp4995
a(Vpen
p4996
Vmen
p4997
g4988
Vd
g4306
I31
g5
tp4998
a(Vthought
p4999
Vbrought
p5000
g4988
Ve
g4306
I31
g5
tp5001
a(Vage
p5002
Vequipage
p5003
g4988
Vf
g4306
I31
g5
tp5004
a(Vprove
p5005
Vlove
p5006
g4988
Vg
g4306
I31
g5
tp5007
a(Vseen
p5008
Vgreen
p5009
Vababcdcdefefgg
p5010
Va
g4306
I32
g5
tp5011
a(Veye
p5012
Valchemy
p5013
g5010
Vb
g4306
I32
g5
tp5014
a(Vride
p5015
Vhide
p5016
g5010
Vc
g4306
I32
g5
tp5017
a(Vface
p5018
Vdisgrace
p5019
g5010
Vd
g4306
I32
g5
tp5020
a(Vshine
p5021
Vmine
p5022
g5010
Ve
g4306
I32
g5
tp5023
a(Vbrow
p5024
Vnow
p5025
g5010
Vf
g4306
I32
g5
tp5026
a(Vdisdaineth
p5027
Vstaineth
p5028
g5010
Vg
g4306
I32
g5
tp5029
a(Vday
p5030
Vway
p5031
Vababcdcdefefgg
p5032
Va
g4306
I33
g5
tp5033
a(Vcloak
p5034
Vsmoke
p5035
g5032
Vb
g4306
I33
g5
tp5036
a(Vbreak
p5037
Vspeak
p5038
g5032
Vc
g4306
I33
g5
tp5039
a(Vface
p5040
Vdisgrace
p5041
g5032
Vd
g4306
I33
g5
tp5042
a(Vgrief
p5043
Vrelief
p5044
g5032
Ve
g4306
I33
g5
tp5045
a(Vloss
p5046
Vcross
p5047
g5032
Vf
g4306
I33
g5
tp5048
a(Vsheds
p5049
Vdeeds
p5050
g5032
Vg
g4306
I33
g5
tp5051
a(Vdone
p5052
Vsun
p5053
Vababcdcdefefgg
p5054
Va
g4306
I34
g5
tp5055
a(Vmud
p5056
Vbud
p5057
g5054
Vb
g4306
I34
g5
tp5058
a(Vthis
p5059
Vamiss
p5060
g5054
Vc
g4306
I34
g5
tp5061
a(Vcompare
p5062
Vare
p5063
g5054
Vd
g4306
I34
g5
tp5064
a(Vsense
p5065
Vcommence
p5066
g5054
Ve
g4306
I34
g5
tp5067
a(Vadvocate
p5068
Vhate
p5069
g5054
Vf
g4306
I34
g5
tp5070
a(Vbe
p5071
Vme
p5072
g5054
Vg
g4306
I34
g5
tp5073
a(Vtwain
p5074
Vremain
p5075
Vababcdcdefefgg
p5076
Va
g4306
I35
g5
tp5077
a(Vone
p5078
Valone
p5079
g5076
Vb
g4306
I35
g5
tp5080
a(Vrespect
p5081
Veffect
p5082
g5076
Vc
g4306
I35
g5
tp5083
a(Vspite
p5084
Vdelight
p5085
g5076
Vd
g4306
I35
g5
tp5086
a(Vthee
p5087
Vme
p5088
g5076
Ve
g4306
I35
g5
tp5089
a(Vshame
p5090
Vname
p5091
g5076
Vf
g4306
I35
g5
tp5092
a(Vsort
p5093
Vreport
p5094
g5076
Vg
g4306
I35
g5
tp5095
a(Vdelight
p5096
Vspite
p5097
Vababcdcdefefgg
p5098
Va
g4306
I36
g5
tp5099
a(Vyouth
p5100
Vtruth
p5101
g5098
Vb
g4306
I36
g5
tp5102
a(Vwit
p5103
Vsit
p5104
g5098
Vc
g4306
I36
g5
tp5105
a(Vmore
p5106
Vstore
p5107
g5098
Vd
g4306
I36
g5
tp5108
a(Vdespised
p5109
Vsufficed
p5110
g5098
Ve
g4306
I36
g5
tp5111
a(Vgive
p5112
Vlive
p5113
g5098
Vf
g4306
I36
g5
tp5114
a(Vthee
p5115
Vme
p5116
g5098
Vg
g4306
I36
g5
tp5117
a(Vinvent
p5118
Vexcellent
p5119
Vababcdcdefefgg
p5120
Va
g4306
I37
g5
tp5121
a(Vverse
p5122
Vrehearse
p5123
g5120
Vb
g4306
I37
g5
tp5124
a(Vme
p5125
Vthee
p5126
g5120
Vc
g4306
I37
g5
tp5127
a(Vsight
p5128
Vlight
p5129
g5120
Vd
g4306
I37
g5
tp5130
a(Vworth
p5131
Vforth
p5132
g5120
Ve
g4306
I37
g5
tp5133
a(Vinvocate
p5134
Vdate
p5135
g5120
Vf
g4306
I37
g5
tp5136
a(Vdays
p5137
Vpraise
p5138
g5120
Vg
g4306
I37
g5
tp5139
a(Vsing
p5140
Vbring
p5141
Vababcdcdefefgg
p5142
Va
g4306
I38
g5
tp5143
a(Vme
p5144
Vthee
p5145
g5142
Vb
g4306
I38
g5
tp5146
a(Vlive
p5147
Vgive
p5148
g5142
Vc
g4306
I38
g5
tp5149
a(Vone
p5150
Valone
p5151
g5142
Vd
g4306
I38
g5
tp5152
a(Vprove
p5153
Vlove
p5154
g5142
Ve
g4306
I38
g5
tp5155
a(Vleave
p5156
Vdeceive
p5157
g5142
Vf
g4306
I38
g5
tp5158
a(Vtwain
p5159
Vremain
p5160
g5142
Vg
g4306
I38
g5
tp5161
a(Vall
p5162
Vcall
p5163
Vababcdcdefefgg
p5164
Va
g4306
I39
g5
tp5165
a(Vbefore
p5166
Vmore
p5167
g5164
Vb
g4306
I39
g5
tp5168
a(Vreceivest
p5169
Vdeceivest
p5170
g5164
Vc
g4306
I39
g5
tp5171
a(Vusest
p5172
Vrefusest
p5173
g5164
Vd
g4306
I39
g5
tp5174
a(Vthief
p5175
Vgrief
p5176
g5164
Ve
g4306
I39
g5
tp5177
a(Vpoverty
p5178
Vinjury
p5179
g5164
Vf
g4306
I39
g5
tp5180
a(Vshows
p5181
Vfoes
p5182
g5164
Vg
g4306
I39
g5
tp5183
a(Vcommits
p5184
Vbefits
p5185
Vababcdcdefefgg
p5186
Va
g4306
I40
g5
tp5187
a(Vheart
p5188
Vart
p5189
g5186
Vb
g4306
I40
g5
tp5190
a(Vwon
p5191
Vson
p5192
g5186
Vc
g4306
I40
g5
tp5193
a(Vassailed
p5194
Vprevailed
p5195
g5186
Vd
g4306
I40
g5
tp5196
a(Vforbear
p5197
Vthere
p5198
g5186
Ve
g4306
I40
g5
tp5199
a(Vyouth
p5200
Vtruth
p5201
g5186
Vf
g4306
I40
g5
tp5202
a(Vthee
p5203
Vme
p5204
g5186
Vg
g4306
I40
g5
tp5205
a(Vgrief
p5206
Vchief
p5207
Vababcdcdefefgg
p5208
Va
g4306
I41
g5
tp5209
a(Vdearly
p5210
Vnearly
p5211
g5208
Vb
g4306
I41
g5
tp5212
a(Vye
p5213
Vme
p5214
g5208
Vc
g4306
I41
g5
tp5215
a(Vher
p5216
Vher
p5217
g5208
Vd
g4306
I41
g5
tp5218
a(Vgain
p5219
Vtwain
p5220
g5208
Ve
g4306
I41
g5
tp5221
a(Vloss
p5222
Vcross
p5223
g5208
Vf
g4306
I41
g5
tp5224
a(Vone
p5225
Valone
p5226
g5208
Vg
g4306
I41
g5
tp5227
a(Vsee
p5228
Vthee
p5229
Vababcdcdefefgg
p5230
Va
g4306
I42
g5
tp5231
a(Vunrespected
p5232
Vdirected
p5233
g5230
Vb
g4306
I42
g5
tp5234
a(Vbright
p5235
Vlight
p5236
g5230
Vc
g4306
I42
g5
tp5237
a(Vshow
p5238
Vso
p5239
g5230
Vd
g4306
I42
g5
tp5240
a(Vmade
p5241
Vshade
p5242
g5230
Ve
g4306
I42
g5
tp5243
a(Vday
p5244
Vstay
p5245
g5230
Vf
g4306
I42
g5
tp5246
a(Vthee
p5247
Vme
p5248
g5230
Vg
g4306
I42
g5
tp5249
a(Vthought
p5250
Vbrought
p5251
Vababcdcdefefgg
p5252
Va
g4306
I43
g5
tp5253
a(Vway
p5254
Vstay
p5255
g5252
Vb
g4306
I43
g5
tp5256
a(Vstand
p5257
Vland
p5258
g5252
Vc
g4306
I43
g5
tp5259
a(Vthee
p5260
Vbe
p5261
g5252
Vd
g4306
I43
g5
tp5262
a(Vthought
p5263
Vwrought
p5264
g5252
Ve
g4306
I43
g5
tp5265
a(Vgone
p5266
Vmoan
p5267
g5252
Vf
g4306
I43
g5
tp5268
a(Vslow
p5269
Vwoe
p5270
g5252
Vg
g4306
I43
g5
tp5271
a(Vfire
p5272
Vdesire
p5273
Vababcdcdefefgg
p5274
Va
g4306
I44
g5
tp5275
a(Vabide
p5276
Vslide
p5277
g5274
Vb
g4306
I44
g5
tp5278
a(Vgone
p5279
Valone
p5280
g5274
Vc
g4306
I44
g5
tp5281
a(Vthee
p5282
Vmelancholy
p5283
g5274
Vd
g4306
I44
g5
tp5284
a(Vrecured
p5285
Vassured
p5286
g5274
Ve
g4306
I44
g5
tp5287
a(Vthee
p5288
Vme
p5289
g5274
Vf
g4306
I44
g5
tp5290
a(Vglad
p5291
Vsad
p5292
g5274
Vg
g4306
I44
g5
tp5293
a(Vwar
p5294
Vbar
p5295
Vababcdcdefefgg
p5296
Va
g4306
I45
g5
tp5297
a(Vsight
p5298
Vright
p5299
g5296
Vb
g4306
I45
g5
tp5300
a(Vlie
p5301
Vdeny
p5302
g5296
Vc
g4306
I45
g5
tp5303
a(Veyes
p5304
Vlies
p5305
g5296
Vd
g4306
I45
g5
tp5306
a(Vimpanneled
p5307
Vdetermined
p5308
g5296
Ve
g4306
I45
g5
tp5309
a(Vheart
p5310
Vpart
p5311
g5296
Vf
g4306
I45
g5
tp5312
a(Vpart
p5313
Vheart
p5314
g5296
Vg
g4306
I45
g5
tp5315
a(Vtook
p5316
Vlook
p5317
Vababcdcdefefgg
p5318
Va
g4306
I46
g5
tp5319
a(Vother
p5320
Vsmother
p5321
g5318
Vb
g4306
I46
g5
tp5322
a(Vfeast
p5323
Vguest
p5324
g5318
Vc
g4306
I46
g5
tp5325
a(Vheart
p5326
Vpart
p5327
g5318
Vd
g4306
I46
g5
tp5328
a(Vlove
p5329
Vmove
p5330
g5318
Ve
g4306
I46
g5
tp5331
a(Vme
p5332
Vthee
p5333
g5318
Vf
g4306
I46
g5
tp5334
a(Vsight
p5335
Vdelight
p5336
g5318
Vg
g4306
I46
g5
tp5337
a(Vway
p5338
Vstay
p5339
Vababcdcdefefgg
p5340
Va
g4306
I47
g5
tp5341
a(Vthrust
p5342
Vtrust
p5343
g5340
Vb
g4306
I47
g5
tp5344
a(Vare
p5345
Vcare
p5346
g5340
Vc
g4306
I47
g5
tp5347
a(Vgrief
p5348
Vthief
p5349
g5340
Vd
g4306
I47
g5
tp5350
a(Vchest
p5351
Vbreast
p5352
g5340
Ve
g4306
I47
g5
tp5353
a(Vart
p5354
Vpart
p5355
g5340
Vf
g4306
I47
g5
tp5356
a(Vfear
p5357
Vdear
p5358
g5340
Vg
g4306
I47
g5
tp5359
a(Vcome
p5360
Vsum
p5361
Vababcdcdefefgg
p5362
Va
g4306
I48
g5
tp5363
a(Vdefects
p5364
Vrespects
p5365
g5362
Vb
g4306
I48
g5
tp5366
a(Vpass
p5367
Vwas
p5368
g5362
Vc
g4306
I48
g5
tp5369
a(Veye
p5370
Vgravity
p5371
g5362
Vd
g4306
I48
g5
tp5372
a(Vhere
p5373
Vuprear
p5374
g5362
Ve
g4306
I48
g5
tp5375
a(Vdesert
p5376
Vpart
p5377
g5362
Vf
g4306
I48
g5
tp5378
a(Vlaws
p5379
Vcause
p5380
g5362
Vg
g4306
I48
g5
tp5381
a(Vway
p5382
Vsay
p5383
Vababcdcdefefgg
p5384
Va
g4306
I49
g5
tp5385
a(Vend
p5386
Vfriend
p5387
g5384
Vb
g4306
I49
g5
tp5388
a(Vwoe
p5389
Vknow
p5390
g5384
Vc
g4306
I49
g5
tp5391
a(Vme
p5392
Vthee
p5393
g5384
Vd
g4306
I49
g5
tp5394
a(Von
p5395
Vgroan
p5396
g5384
Ve
g4306
I49
g5
tp5397
a(Vhide
p5398
Vside
p5399
g5384
Vf
g4306
I49
g5
tp5400
a(Vmind
p5401
Vbehind
p5402
g5384
Vg
g4306
I49
g5
tp5403
a(Voffence
p5404
Vthence
p5405
Vababcdcdefefgg
p5406
Va
g4306
I50
g5
tp5407
a(Vspeed
p5408
Vneed
p5409
g5406
Vb
g4306
I50
g5
tp5410
a(Vfind
p5411
Vwind
p5412
g5406
Vc
g4306
I50
g5
tp5413
a(Vslow
p5414
Vknow
p5415
g5406
Vd
g4306
I50
g5
tp5416
a(Vpace
p5417
Vrace
p5418
g5406
Ve
g4306
I50
g5
tp5419
a(Vmade
p5420
Vjade
p5421
g5406
Vf
g4306
I50
g5
tp5422
a(Vslow
p5423
Vgo
p5424
g5406
Vg
g4306
I50
g5
tp5425
a(Vkey
p5426
Vsurvey
p5427
Vababcdcdefefgg
p5428
Va
g4306
I51
g5
tp5429
a(Vtreasure
p5430
Vpleasure
p5431
g5428
Vb
g4306
I51
g5
tp5432
a(Vrare
p5433
Vare
p5434
g5428
Vc
g4306
I51
g5
tp5435
a(Vset
p5436
Vcarcanet
p5437
g5428
Vd
g4306
I51
g5
tp5438
a(Vchest
p5439
Vblest
p5440
g5428
Ve
g4306
I51
g5
tp5441
a(Vhide
p5442
Vpride
p5443
g5428
Vf
g4306
I51
g5
tp5444
a(Vscope
p5445
Vhope
p5446
g5428
Vg
g4306
I51
g5
tp5447
a(Vmade
p5448
Vshade
p5449
Vababcdcdefefgg
p5450
Va
g4306
I52
g5
tp5451
a(Vtend
p5452
Vlend
p5453
g5450
Vb
g4306
I52
g5
tp5454
a(Vcounterfeit
p5455
Vset
p5456
g5450
Vc
g4306
I52
g5
tp5457
a(Vyou
p5458
Vnew
p5459
g5450
Vd
g4306
I52
g5
tp5460
a(Vyear
p5461
Vappear
p5462
g5450
Ve
g4306
I52
g5
tp5463
a(Vshow
p5464
Vknow
p5465
g5450
Vf
g4306
I52
g5
tp5466
a(Vpart
p5467
Vheart
p5468
g5450
Vg
g4306
I52
g5
tp5469
a(Vseem
p5470
Vdeem
p5471
Vababcdcdefefgg
p5472
Va
g4306
I53
g5
tp5473
a(Vgive
p5474
Vlive
p5475
g5472
Vb
g4306
I53
g5
tp5476
a(Vdye
p5477
Vwantonly
p5478
g5472
Vc
g4306
I53
g5
tp5479
a(Vroses
p5480
Vdiscloses
p5481
g5472
Vd
g4306
I53
g5
tp5482
a(Vshow
p5483
Vso
p5484
g5472
Ve
g4306
I53
g5
tp5485
a(Vfade
p5486
Vmade
p5487
g5472
Vf
g4306
I53
g5
tp5488
a(Vyouth
p5489
Vtruth
p5490
g5472
Vg
g4306
I53
g5
tp5491
a(Vmonuments
p5492
Vcontents
p5493
Vababcdcdefefgg
p5494
Va
g4306
I54
g5
tp5495
a(Vrhyme
p5496
Vtime
p5497
g5494
Vb
g4306
I54
g5
tp5498
a(Voverturn
p5499
Vburn
p5500
g5494
Vc
g4306
I54
g5
tp5501
a(Vmasonry
p5502
Vmemory
p5503
g5494
Vd
g4306
I54
g5
tp5504
a(Venmity
p5505
Vposterity
p5506
g5494
Ve
g4306
I54
g5
tp5507
a(Vroom
p5508
Vdoom
p5509
g5494
Vf
g4306
I54
g5
tp5510
a(Varise
p5511
Veyes
p5512
g5494
Vg
g4306
I54
g5
tp5513
a(Vsaid
p5514
Vallayd
p5515
Vababcdcdefefgg
p5516
Va
g4306
I55
g5
tp5517
a(Vappetite
p5518
Vmight
p5519
g5516
Vb
g4306
I55
g5
tp5520
a(Vfill
p5521
Vkill
p5522
g5516
Vc
g4306
I55
g5
tp5523
a(Vfullness
p5524
Vdullness
p5525
g5516
Vd
g4306
I55
g5
tp5526
a(Vbe
p5527
Vsee
p5528
g5516
Ve
g4306
I55
g5
tp5529
a(Vnew
p5530
Vview
p5531
g5516
Vf
g4306
I55
g5
tp5532
a(Vcare
p5533
Vrare
p5534
g5516
Vg
g4306
I55
g5
tp5535
a(Vtend
p5536
Vspend
p5537
Vababcdcdefefgg
p5538
Va
g4306
I56
g5
tp5539
a(Vdesire
p5540
Vrequire
p5541
g5538
Vb
g4306
I56
g5
tp5542
a(Vhour
p5543
Vsour
p5544
g5538
Vc
g4306
I56
g5
tp5545
a(Vyou
p5546
Vadieu
p5547
g5538
Vd
g4306
I56
g5
tp5548
a(Vthought
p5549
Vnought
p5550
g5538
Ve
g4306
I56
g5
tp5551
a(Vsuppose
p5552
Vthose
p5553
g5538
Vf
g4306
I56
g5
tp5554
a(Vwill
p5555
Vill
p5556
g5538
Vg
g4306
I56
g5
tp5557
a(Vslave
p5558
Vcrave
p5559
Vababcdcdefefgg
p5560
Va
g4306
I57
g5
tp5561
a(Vpleasure
p5562
Vleisure
p5563
g5560
Vb
g4306
I57
g5
tp5564
a(Vbeck
p5565
Vcheque
p5566
g5560
Vc
g4306
I57
g5
tp5567
a(Vliberty
p5568
Vinjury
p5569
g5560
Vd
g4306
I57
g5
tp5570
a(Vstrong
p5571
Vbelong
p5572
g5560
Ve
g4306
I57
g5
tp5573
a(Vtime
p5574
Vcrime
p5575
g5560
Vf
g4306
I57
g5
tp5576
a(Vhell
p5577
Vwell
p5578
g5560
Vg
g4306
I57
g5
tp5579
a(Vis
p5580
Vamiss
p5581
Vababcdcdefefgg
p5582
Va
g4306
I58
g5
tp5583
a(Vbeguiled
p5584
Vchild
p5585
g5582
Vb
g4306
I58
g5
tp5586
a(Vlook
p5587
Vbook
p5588
g5582
Vc
g4306
I58
g5
tp5589
a(Vsun
p5590
Vdone
p5591
g5582
Vd
g4306
I58
g5
tp5592
a(Vsay
p5593
Vthey
p5594
g5582
Ve
g4306
I58
g5
tp5595
a(Vframe
p5596
Vsame
p5597
g5582
Vf
g4306
I58
g5
tp5598
a(Vdays
p5599
Vpraise
p5600
g5582
Vg
g4306
I58
g5
tp5601
a(Vshore
p5602
Vbefore
p5603
Vababcdcdefefgg
p5604
Va
g4306
I59
g5
tp5605
a(Vend
p5606
Vcontend
p5607
g5604
Vb
g4306
I59
g5
tp5608
a(Vlight
p5609
Vfight
p5610
g5604
Vc
g4306
I59
g5
tp5611
a(Vcrownd
p5612
Vconfound
p5613
g5604
Vd
g4306
I59
g5
tp5614
a(Vyouth
p5615
Vtruth
p5616
g5604
Ve
g4306
I59
g5
tp5617
a(Vbrow
p5618
Vmow
p5619
g5604
Vf
g4306
I59
g5
tp5620
a(Vstand
p5621
Vhand
p5622
g5604
Vg
g4306
I59
g5
tp5623
a(Vopen
p5624
Vbroken
p5625
Vababcdcdefefgg
p5626
Va
g4306
I60
g5
tp5627
a(Vnight
p5628
Vsight
p5629
g5626
Vb
g4306
I60
g5
tp5630
a(Vthee
p5631
Vme
p5632
g5626
Vc
g4306
I60
g5
tp5633
a(Vpry
p5634
Vjealousy
p5635
g5626
Vd
g4306
I60
g5
tp5636
a(Vgreat
p5637
Vdefeat
p5638
g5626
Ve
g4306
I60
g5
tp5639
a(Vawake
p5640
Vsake
p5641
g5626
Vf
g4306
I60
g5
tp5642
a(Velsewhere
p5643
Vnear
p5644
g5626
Vg
g4306
I60
g5
tp5645
a(Veye
p5646
Vremedy
p5647
Vababcdcdefefgg
p5648
Va
g4306
I61
g5
tp5649
a(Vpart
p5650
Vheart
p5651
g5648
Vb
g4306
I61
g5
tp5652
a(Vmine
p5653
Vdefine
p5654
g5648
Vc
g4306
I61
g5
tp5655
a(Vaccount
p5656
Vsurmount
p5657
g5648
Vd
g4306
I61
g5
tp5658
a(Vindeed
p5659
Vread
p5660
g5648
Ve
g4306
I61
g5
tp5661
a(Vantiquity
p5662
Viniquity
p5663
g5648
Vf
g4306
I61
g5
tp5664
a(Vpraise
p5665
Vdays
p5666
g5648
Vg
g4306
I61
g5
tp5667
a(Vnow
p5668
Vbrow
p5669
Vababcdcdefefgg
p5670
Va
g4306
I62
g5
tp5671
a(Vworn
p5672
Vmorn
p5673
g5670
Vb
g4306
I62
g5
tp5674
a(Vnight
p5675
Vsight
p5676
g5670
Vc
g4306
I62
g5
tp5677
a(Vking
p5678
Vspring
p5679
g5670
Vd
g4306
I62
g5
tp5680
a(Vfortify
p5681
Vmemory
p5682
g5670
Ve
g4306
I62
g5
tp5683
a(Vknife
p5684
Vlife
p5685
g5670
Vf
g4306
I62
g5
tp5686
a(Vseen
p5687
Vgreen
p5688
g5670
Vg
g4306
I62
g5
tp5689
a(Vdefaced
p5690
Vrazed
p5691
Vababcdcdefefgg
p5692
Va
g4306
I63
g5
tp5693
a(Vage
p5694
Vrage
p5695
g5692
Vb
g4306
I63
g5
tp5696
a(Vgain
p5697
Vmain
p5698
g5692
Vc
g4306
I63
g5
tp5699
a(Vshore
p5700
Vstore
p5701
g5692
Vd
g4306
I63
g5
tp5702
a(Vstate
p5703
Vruminate
p5704
g5692
Ve
g4306
I63
g5
tp5705
a(Vdecay
p5706
Vaway
p5707
g5692
Vf
g4306
I63
g5
tp5708
a(Vchoose
p5709
Vlose
p5710
g5692
Vg
g4306
I63
g5
tp5711
a(Vsea
p5712
Vplea
p5713
Vababcdcdefefgg
p5714
Va
g4306
I64
g5
tp5715
a(Vpower
p5716
Vflower
p5717
g5714
Vb
g4306
I64
g5
tp5718
a(Vout
p5719
Vstout
p5720
g5714
Vc
g4306
I64
g5
tp5721
a(Vdays
p5722
Vdecays
p5723
g5714
Vd
g4306
I64
g5
tp5724
a(Valack
p5725
Vback
p5726
g5714
Ve
g4306
I64
g5
tp5727
a(Vhid
p5728
Vforbid
p5729
g5714
Vf
g4306
I64
g5
tp5730
a(Vmight
p5731
Vbright
p5732
g5714
Vg
g4306
I64
g5
tp5733
a(Vcry
p5734
Vjollity
p5735
Vababcdcdefefgg
p5736
Va
g4306
I65
g5
tp5737
a(Vborn
p5738
Vforsworn
p5739
g5736
Vb
g4306
I65
g5
tp5740
a(Vmisplaced
p5741
Vdisgraced
p5742
g5736
Vc
g4306
I65
g5
tp5743
a(Vstrumpeted
p5744
Vdisabled
p5745
g5736
Vd
g4306
I65
g5
tp5746
a(Vauthority
p5747
Vsimplicity
p5748
g5736
Ve
g4306
I65
g5
tp5749
a(Vskill
p5750
Vill
p5751
g5736
Vf
g4306
I65
g5
tp5752
a(Vgone
p5753
Valone
p5754
g5736
Vg
g4306
I65
g5
tp5755
a(Vlive
p5756
Vachieve
p5757
Vababcdcdefefgg
p5758
Va
g4306
I66
g5
tp5759
a(Vimpiety
p5760
Vsociety
p5761
g5758
Vb
g4306
I66
g5
tp5762
a(Vcheek
p5763
Vseek
p5764
g5758
Vc
g4306
I66
g5
tp5765
a(Vhue
p5766
Vtrue
p5767
g5758
Vd
g4306
I66
g5
tp5768
a(Vis
p5769
Vhis
p5770
g5758
Ve
g4306
I66
g5
tp5771
a(Vveins
p5772
Vgains
p5773
g5758
Vf
g4306
I66
g5
tp5774
a(Vhad
p5775
Vbad
p5776
g5758
Vg
g4306
I66
g5
tp5777
a(Voutworn
p5778
Vborn
p5779
Vababcdcdefefgg
p5780
Va
g4306
I67
g5
tp5781
a(Vnow
p5782
Vbrow
p5783
g5780
Vb
g4306
I67
g5
tp5784
a(Vdead
p5785
Vhead
p5786
g5780
Vc
g4306
I67
g5
tp5787
a(Vaway
p5788
Vgay
p5789
g5780
Vd
g4306
I67
g5
tp5790
a(Vseen
p5791
Vgreen
p5792
g5780
Ve
g4306
I67
g5
tp5793
a(Vtrue
p5794
Vnew
p5795
g5780
Vf
g4306
I67
g5
tp5796
a(Vstore
p5797
Vyore
p5798
g5780
Vg
g4306
I67
g5
tp5799
a(Vview
p5800
Vdue
p5801
Vababcdcdefefgg
p5802
Va
g4306
I68
g5
tp5803
a(Vmend
p5804
Vcommend
p5805
g5802
Vb
g4306
I68
g5
tp5806
a(Vcrownd
p5807
Vconfound
p5808
g5802
Vc
g4306
I68
g5
tp5809
a(Vown
p5810
Vshown
p5811
g5802
Vd
g4306
I68
g5
tp5812
a(Vmind
p5813
Vkind
p5814
g5802
Ve
g4306
I68
g5
tp5815
a(Vdeeds
p5816
Vweeds
p5817
g5802
Vf
g4306
I68
g5
tp5818
a(Vshow
p5819
Vgrow
p5820
g5802
Vg
g4306
I68
g5
tp5821
a(Vdefect
p5822
Vsuspect
p5823
Vababcdcdefefgg
p5824
Va
g4306
I69
g5
tp5825
a(Vfair
p5826
Vair
p5827
g5824
Vb
g4306
I69
g5
tp5828
a(Vapprove
p5829
Vlove
p5830
g5824
Vc
g4306
I69
g5
tp5831
a(Vtime
p5832
Vprime
p5833
g5824
Vd
g4306
I69
g5
tp5834
a(Vdays
p5835
Vpraise
p5836
g5824
Ve
g4306
I69
g5
tp5837
a(Vcharged
p5838
Venlarged
p5839
g5824
Vf
g4306
I69
g5
tp5840
a(Vshow
p5841
Vowe
p5842
g5824
Vg
g4306
I69
g5
tp5843
a(Vdead
p5844
Vfled
p5845
Vababcdcdefefgg
p5846
Va
g4306
I70
g5
tp5847
a(Vbell
p5848
Vdwell
p5849
g5846
Vb
g4306
I70
g5
tp5850
a(Vnot
p5851
Vforgot
p5852
g5846
Vc
g4306
I70
g5
tp5853
a(Vso
p5854
Vwoe
p5855
g5846
Vd
g4306
I70
g5
tp5856
a(Vverse
p5857
Vrehearse
p5858
g5846
Ve
g4306
I70
g5
tp5859
a(Vclay
p5860
Vdecay
p5861
g5846
Vf
g4306
I70
g5
tp5862
a(Vmoan
p5863
Vgone
p5864
g5846
Vg
g4306
I70
g5
tp5865
a(Vrecite
p5866
Vquite
p5867
Vababcdcdefefgg
p5868
Va
g4306
I71
g5
tp5869
a(Vlove
p5870
Vprove
p5871
g5868
Vb
g4306
I71
g5
tp5872
a(Vlie
p5873
Vi
g5868
Vc
g4306
I71
g5
tp5874
a(Vdesert
p5875
Vimpart
p5876
g5868
Vd
g4306
I71
g5
tp5877
a(Vthis
p5878
Vis
p5879
g5868
Ve
g4306
I71
g5
tp5880
a(Vuntrue
p5881
Vyou
p5882
g5868
Vf
g4306
I71
g5
tp5883
a(Vforth
p5884
Vworth
p5885
g5868
Vg
g4306
I71
g5
tp5886
a(Vbehold
p5887
Vcold
p5888
Vababcdcdefefgg
p5889
Va
g4306
I72
g5
tp5890
a(Vhang
p5891
Vsang
p5892
g5889
Vb
g4306
I72
g5
tp5893
a(Vday
p5894
Vaway
p5895
g5889
Vc
g4306
I72
g5
tp5896
a(Vwest
p5897
Vrest
p5898
g5889
Vd
g4306
I72
g5
tp5899
a(Vfire
p5900
Vexpire
p5901
g5889
Ve
g4306
I72
g5
tp5902
a(Vlie
p5903
Vby
p5904
g5889
Vf
g4306
I72
g5
tp5905
a(Vstrong
p5906
Vlong
p5907
g5889
Vg
g4306
I72
g5
tp5908
a(Varrest
p5909
Vinterest
p5910
Vababcdcdefefgg
p5911
Va
g4306
I73
g5
tp5912
a(Vaway
p5913
Vstay
p5914
g5911
Vb
g4306
I73
g5
tp5915
a(Vreview
p5916
Vdue
p5917
g5911
Vc
g4306
I73
g5
tp5918
a(Vthee
p5919
Vme
p5920
g5911
Vd
g4306
I73
g5
tp5921
a(Vlife
p5922
Vknife
p5923
g5911
Ve
g4306
I73
g5
tp5924
a(Vdead
p5925
Vremembered
p5926
g5911
Vf
g4306
I73
g5
tp5927
a(Vcontains
p5928
Vremains
p5929
g5911
Vg
g4306
I73
g5
tp5930
a(Vlife
p5931
Vstrife
p5932
Vababcdcdefefgg
p5933
Va
g4306
I74
g5
tp5934
a(Vground
p5935
Vfound
p5936
g5933
Vb
g4306
I74
g5
tp5937
a(Vanon
p5938
Valone
p5939
g5933
Vc
g4306
I74
g5
tp5940
a(Vtreasure
p5941
Vpleasure
p5942
g5933
Vd
g4306
I74
g5
tp5943
a(Vsight
p5944
Vdelight
p5945
g5933
Ve
g4306
I74
g5
tp5946
a(Vlook
p5947
Vtook
p5948
g5933
Vf
g4306
I74
g5
tp5949
a(Vday
p5950
Vaway
p5951
g5933
Vg
g4306
I74
g5
tp5952
a(Vpride
p5953
Vaside
p5954
Vababcdcdefefgg
p5955
Va
g4306
I75
g5
tp5956
a(Vchange
p5957
Vstrange
p5958
g5955
Vb
g4306
I75
g5
tp5959
a(Vsame
p5960
Vname
p5961
g5955
Vc
g4306
I75
g5
tp5962
a(Vweed
p5963
Vproceed
p5964
g5955
Vd
g4306
I75
g5
tp5965
a(Vyou
p5966
Vnew
p5967
g5955
Ve
g4306
I75
g5
tp5968
a(Vargument
p5969
Vspent
p5970
g5955
Vf
g4306
I75
g5
tp5971
a(Vold
p5972
Vtold
p5973
g5955
Vg
g4306
I75
g5
tp5974
a(Vwear
p5975
Vbear
p5976
Vababcdcdefefgg
p5977
Va
g4306
I76
g5
tp5978
a(Vwaste
p5979
Vtaste
p5980
g5977
Vb
g4306
I76
g5
tp5981
a(Vshow
p5982
Vknow
p5983
g5977
Vc
g4306
I76
g5
tp5984
a(Vmemory
p5985
Veternity
p5986
g5977
Vd
g4306
I76
g5
tp5987
a(Vcontain
p5988
Vbrain
p5989
g5977
Ve
g4306
I76
g5
tp5990
a(Vfind
p5991
Vmind
p5992
g5977
Vf
g4306
I76
g5
tp5993
a(Vlook
p5994
Vbook
p5995
g5977
Vg
g4306
I76
g5
tp5996
a(Vmuse
p5997
Vuse
p5998
Vababcdcdefefgg
p5999
Va
g4306
I77
g5
tp6000
a(Vverse
p6001
Vdisperse
p6002
g5999
Vb
g4306
I77
g5
tp6003
a(Vsing
p6004
Vwing
p6005
g5999
Vc
g4306
I77
g5
tp6006
a(Vfly
p6007
Vmajesty
p6008
g5999
Vd
g4306
I77
g5
tp6009
a(Vcompile
p6010
Vstyle
p6011
g5999
Ve
g4306
I77
g5
tp6012
a(Vthee
p6013
Vbe
p6014
g5999
Vf
g4306
I77
g5
tp6015
a(Vadvance
p6016
Vignorance
p6017
g5999
Vg
g4306
I77
g5
tp6018
a(Vaid
p6019
Vdecayd
p6020
Vababcdcdefefgg
p6021
Va
g4306
I78
g5
tp6022
a(Vgrace
p6023
Vplace
p6024
g6021
Vb
g4306
I78
g5
tp6025
a(Vargument
p6026
Vinvent
p6027
g6021
Vc
g4306
I78
g5
tp6028
a(Vpen
p6029
Vagain
p6030
g6021
Vd
g4306
I78
g5
tp6031
a(Vword
p6032
Vafford
p6033
g6021
Ve
g4306
I78
g5
tp6034
a(Vgive
p6035
Vlive
p6036
g6021
Vf
g4306
I78
g5
tp6037
a(Vsay
p6038
Vpay
p6039
g6021
Vg
g4306
I78
g5
tp6040
a(Vwrite
p6041
Vmight
p6042
Vababcdcdefefgg
p6043
Va
g4306
I79
g5
tp6044
a(Vname
p6045
Vfame
p6046
g6043
Vb
g4306
I79
g5
tp6047
a(Vis
p6048
Vhis
p6049
g6043
Vc
g4306
I79
g5
tp6050
a(Vbear
p6051
Vappear
p6052
g6043
Vd
g4306
I79
g5
tp6053
a(Vafloat
p6054
Vboat
p6055
g6043
Ve
g4306
I79
g5
tp6056
a(Vride
p6057
Vpride
p6058
g6043
Vf
g4306
I79
g5
tp6059
a(Vaway
p6060
Vdecay
p6061
g6043
Vg
g4306
I79
g5
tp6062
a(Vmake
p6063
Vtake
p6064
Vababcdcdefefgg
p6065
Va
g4306
I80
g5
tp6066
a(Vrotten
p6067
Vforgotten
p6068
g6065
Vb
g4306
I80
g5
tp6069
a(Vhave
p6070
Vgrave
p6071
g6065
Vc
g4306
I80
g5
tp6072
a(Vdie
p6073
Vlie
p6074
g6065
Vd
g4306
I80
g5
tp6075
a(Vverse
p6076
Vrehearse
p6077
g6065
Ve
g4306
I80
g5
tp6078
a(Vread
p6079
Vdead
p6080
g6065
Vf
g4306
I80
g5
tp6081
a(Vpen
p6082
Vmen
p6083
g6065
Vg
g4306
I80
g5
tp6084
a(Vmuse
p6085
Vuse
p6086
Vababcdcdefefgg
p6087
Va
g4306
I81
g5
tp6088
a(Voerlook
p6089
Vbook
p6090
g6087
Vb
g4306
I81
g5
tp6091
a(Vhue
p6092
Vanew
p6093
g6087
Vc
g4306
I81
g5
tp6094
a(Vpraise
p6095
Vdays
p6096
g6087
Vd
g4306
I81
g5
tp6097
a(Vdevised
p6098
Vsympathized
p6099
g6087
Ve
g4306
I81
g5
tp6100
a(Vlend
p6101
Vfriend
p6102
g6087
Vf
g4306
I81
g5
tp6103
a(Vused
p6104
Vabused
p6105
g6087
Vg
g4306
I81
g5
tp6106
a(Vneed
p6107
Vexceed
p6108
Vababcdcdefefgg
p6109
Va
g4306
I82
g5
tp6110
a(Vset
p6111
Vdebt
p6112
g6109
Vb
g4306
I82
g5
tp6113
a(Vreport
p6114
Vshort
p6115
g6109
Vc
g4306
I82
g5
tp6116
a(Vshow
p6117
Vgrow
p6118
g6109
Vd
g4306
I82
g5
tp6119
a(Vimpute
p6120
Vmute
p6121
g6109
Ve
g4306
I82
g5
tp6122
a(Vdumb
p6123
Vtomb
p6124
g6109
Vf
g4306
I82
g5
tp6125
a(Veyes
p6126
Vdevise
p6127
g6109
Vg
g4306
I82
g5
tp6128
a(Vmore
p6129
Vstore
p6130
Vababcdcdefefgg
p6131
Va
g4306
I83
g5
tp6132
a(Vyou
p6133
Vgrew
p6134
g6131
Vb
g4306
I83
g5
tp6135
a(Vdwell
p6136
Vtell
p6137
g6131
Vc
g4306
I83
g5
tp6138
a(Vglory
p6139
Vstory
p6140
g6131
Vd
g4306
I83
g5
tp6141
a(Vwrit
p6142
Vwit
p6143
g6131
Ve
g4306
I83
g5
tp6144
a(Vclear
p6145
Vwhere
p6146
g6131
Vf
g4306
I83
g5
tp6147
a(Vcurse
p6148
Vworse
p6149
g6131
Vg
g4306
I83
g5
tp6150
a(Vstill
p6151
Vquill
p6152
Vababcdcdefefgg
p6153
Va
g4306
I84
g5
tp6154
a(Vcompiled
p6155
Vfiled
p6156
g6153
Vb
g4306
I84
g5
tp6157
a(Vwords
p6158
Vaffords
p6159
g6153
Vc
g4306
I84
g5
tp6160
a(Vamen
p6161
Vpen
p6162
g6153
Vd
g4306
I84
g5
tp6163
a(Vtrue
p6164
Vyou
p6165
g6153
Ve
g4306
I84
g5
tp6166
a(Vmore
p6167
Vbefore
p6168
g6153
Vf
g4306
I84
g5
tp6169
a(Vrespect
p6170
Veffect
p6171
g6153
Vg
g4306
I84
g5
tp6172
a(Vverse
p6173
Vinhearse
p6174
Vababcdcdefefgg
p6175
Va
g4306
I85
g5
tp6176
a(Vyou
p6177
Vgrew
p6178
g6175
Vb
g4306
I85
g5
tp6179
a(Vwrite
p6180
Vnight
p6181
g6175
Vc
g4306
I85
g5
tp6182
a(Vdead
p6183
Vastonished
p6184
g6175
Vd
g4306
I85
g5
tp6185
a(Vghost
p6186
Vboast
p6187
g6175
Ve
g4306
I85
g5
tp6188
a(Vintelligence
p6189
Vthence
p6190
g6175
Vf
g4306
I85
g5
tp6191
a(Vline
p6192
Vmine
p6193
g6175
Vg
g4306
I85
g5
tp6194
a(Vpossessing
p6195
Vreleasing
p6196
Vababcdcdefefgg
p6197
Va
g4306
I86
g5
tp6198
a(Vestimate
p6199
Vdeterminate
p6200
g6197
Vb
g4306
I86
g5
tp6201
a(Vgranting
p6202
Vwanting
p6203
g6197
Vc
g4306
I86
g5
tp6204
a(Vdeserving
p6205
Vswerving
p6206
g6197
Vd
g4306
I86
g5
tp6207
a(Vknowing
p6208
Vgrowing
p6209
g6197
Ve
g4306
I86
g5
tp6210
a(Vmistaking
p6211
Vmaking
p6212
g6197
Vf
g4306
I86
g5
tp6213
a(Vflatter
p6214
Vmatter
p6215
g6197
Vg
g4306
I86
g5
tp6216
a(Vlight
p6217
Vfight
p6218
Vababcdcdefefgg
p6219
Va
g4306
I87
g5
tp6220
a(Vscorn
p6221
Vforsworn
p6222
g6219
Vb
g4306
I87
g5
tp6223
a(Vacquainted
p6224
Vattainted
p6225
g6219
Vc
g4306
I87
g5
tp6226
a(Vstory
p6227
Vglory
p6228
g6219
Vd
g4306
I87
g5
tp6229
a(Vtoo
p6230
Vdo
p6231
g6219
Ve
g4306
I87
g5
tp6232
a(Vthee
p6233
Vme
p6234
g6219
Vf
g4306
I87
g5
tp6235
a(Vbelong
p6236
Vwrong
p6237
g6219
Vg
g4306
I87
g5
tp6238
a(Vfault
p6239
Vhalt
p6240
Vababcdcdefefgg
p6241
Va
g4306
I88
g5
tp6242
a(Voffence
p6243
Vdefence
p6244
g6241
Vb
g4306
I88
g5
tp6245
a(Vill
p6246
Vwill
p6247
g6241
Vc
g4306
I88
g5
tp6248
a(Vchange
p6249
Vstrange
p6250
g6241
Vd
g4306
I88
g5
tp6251
a(Vtongue
p6252
Vwrong
p6253
g6241
Ve
g4306
I88
g5
tp6254
a(Vdwell
p6255
Vtell
p6256
g6241
Vf
g4306
I88
g5
tp6257
a(Vdebate
p6258
Vhate
p6259
g6241
Vg
g4306
I88
g5
tp6260
a(Vnow
p6261
Vbow
p6262
Vababcdcdefefgg
p6263
Va
g4306
I89
g5
tp6264
a(Vcross
p6265
Vloss
p6266
g6263
Vb
g4306
I89
g5
tp6267
a(Vsorrow
p6268
Vmorrow
p6269
g6263
Vc
g4306
I89
g5
tp6270
a(Vwoe
p6271
Voverthrow
p6272
g6263
Vd
g4306
I89
g5
tp6273
a(Vlast
p6274
Vtaste
p6275
g6263
Ve
g4306
I89
g5
tp6276
a(Vspite
p6277
Vmight
p6278
g6263
Vf
g4306
I89
g5
tp6279
a(Vwoe
p6280
Vso
p6281
g6263
Vg
g4306
I89
g5
tp6282
a(Vskill
p6283
Vill
p6284
Vababcdcdefefgg
p6285
Va
g4306
I90
g5
tp6286
a(Vforce
p6287
Vhorse
p6288
g6285
Vb
g4306
I90
g5
tp6289
a(Vpleasure
p6290
Vmeasure
p6291
g6285
Vc
g4306
I90
g5
tp6292
a(Vrest
p6293
Vbest
p6294
g6285
Vd
g4306
I90
g5
tp6295
a(Vme
p6296
Vbe
p6297
g6285
Ve
g4306
I90
g5
tp6298
a(Vcost
p6299
Vboast
p6300
g6285
Vf
g4306
I90
g5
tp6301
a(Vtake
p6302
Vmake
p6303
g6285
Vg
g4306
I90
g5
tp6304
a(Vaway
p6305
Vstay
p6306
Vababcdcdefefgg
p6307
Va
g4306
I91
g5
tp6308
a(Vmine
p6309
Vthine
p6310
g6307
Vb
g4306
I91
g5
tp6311
a(Vwrongs
p6312
Vbelongs
p6313
g6307
Vc
g4306
I91
g5
tp6314
a(Vend
p6315
Vdepend
p6316
g6307
Vd
g4306
I91
g5
tp6317
a(Vmind
p6318
Vfind
p6319
g6307
Ve
g4306
I91
g5
tp6320
a(Vlie
p6321
Vdie
p6322
g6307
Vf
g4306
I91
g5
tp6323
a(Vblot
p6324
Vnot
p6325
g6307
Vg
g4306
I91
g5
tp6326
a(Vtrue
p6327
Vnew
p6328
Vababcdcdefefgg
p6329
Va
g4306
I92
g5
tp6330
a(Vface
p6331
Vplace
p6332
g6329
Vb
g4306
I92
g5
tp6333
a(Veye
p6334
Vhistory
p6335
g6329
Vc
g4306
I92
g5
tp6336
a(Vchange
p6337
Vstrange
p6338
g6329
Vd
g4306
I92
g5
tp6339
a(Vdecree
p6340
Vbe
p6341
g6329
Ve
g4306
I92
g5
tp6342
a(Vdwell
p6343
Vtell
p6344
g6329
Vf
g4306
I92
g5
tp6345
a(Vgrow
p6346
Vshow
p6347
g6329
Vg
g4306
I92
g5
tp6348
a(Vnone
p6349
Vstone
p6350
Vababcdcdefefgg
p6351
Va
g4306
I93
g5
tp6352
a(Vshow
p6353
Vslow
p6354
g6351
Vb
g4306
I93
g5
tp6355
a(Vgraces
p6356
Vfaces
p6357
g6351
Vc
g4306
I93
g5
tp6358
a(Vexpense
p6359
Vexcellence
p6360
g6351
Vd
g4306
I93
g5
tp6361
a(Vsweet
p6362
Vmeet
p6363
g6351
Ve
g4306
I93
g5
tp6364
a(Vdie
p6365
Vdignity
p6366
g6351
Vf
g4306
I93
g5
tp6367
a(Vdeeds
p6368
Vweeds
p6369
g6351
Vg
g4306
I93
g5
tp6370
a(Vshame
p6371
Vname
p6372
Vababcdcdefefgg
p6373
Va
g4306
I94
g5
tp6374
a(Vrose
p6375
Venclose
p6376
g6373
Vb
g4306
I94
g5
tp6377
a(Vdays
p6378
Vpraise
p6379
g6373
Vc
g4306
I94
g5
tp6380
a(Vsport
p6381
Vreport
p6382
g6373
Vd
g4306
I94
g5
tp6383
a(Vgot
p6384
Vblot
p6385
g6373
Ve
g4306
I94
g5
tp6386
a(Vthee
p6387
Vsee
p6388
g6373
Vf
g4306
I94
g5
tp6389
a(Vprivilege
p6390
Vedge
p6391
g6373
Vg
g4306
I94
g5
tp6392
a(Vwantonness
p6393
Vless
p6394
Vababcdcdefefgg
p6395
Va
g4306
I95
g5
tp6396
a(Vsport
p6397
Vresort
p6398
g6395
Vb
g4306
I95
g5
tp6399
a(Vqueen
p6400
Vseen
p6401
g6395
Vc
g4306
I95
g5
tp6402
a(Vesteemd
p6403
Vdeemd
p6404
g6395
Vd
g4306
I95
g5
tp6405
a(Vbetray
p6406
Vaway
p6407
g6395
Ve
g4306
I95
g5
tp6408
a(Vtranslate
p6409
Vstate
p6410
g6395
Vf
g4306
I95
g5
tp6411
a(Vsort
p6412
Vreport
p6413
g6395
Vg
g4306
I95
g5
tp6414
a(Vbeen
p6415
Vseen
p6416
Vababcdcdefefgg
p6417
Va
g4306
I96
g5
tp6418
a(Vyear
p6419
Vwhere
p6420
g6417
Vb
g4306
I96
g5
tp6421
a(Vtime
p6422
Vprime
p6423
g6417
Vc
g4306
I96
g5
tp6424
a(Vincrease
p6425
Vdecease
p6426
g6417
Vd
g4306
I96
g5
tp6427
a(Vme
p6428
Vthee
p6429
g6417
Ve
g4306
I96
g5
tp6430
a(Vfruit
p6431
Vmute
p6432
g6417
Vf
g4306
I96
g5
tp6433
a(Vcheer
p6434
Vnear
p6435
g6417
Vg
g4306
I96
g5
tp6436
a(Vspring
p6437
Vthing
p6438
Vababcdcdefefgg
p6439
Va
g4306
I97
g5
tp6440
a(Vtrim
p6441
Vhim
p6442
g6439
Vb
g4306
I97
g5
tp6443
a(Vsmell
p6444
Vtell
p6445
g6439
Vc
g4306
I97
g5
tp6446
a(Vhue
p6447
Vgrew
p6448
g6439
Vd
g4306
I97
g5
tp6449
a(Vwhite
p6450
Vdelight
p6451
g6439
Ve
g4306
I97
g5
tp6452
a(Vrose
p6453
Vthose
p6454
g6439
Vf
g4306
I97
g5
tp6455
a(Vaway
p6456
Vplay
p6457
g6439
Vg
g4306
I97
g5
tp6458
a(Vchide
p6459
Vpride
p6460
Vababacdcdefefgg
p6461
Va
g4306
I98
g5
tp6462
a(g6459
Vdyed
p6463
g6461
Va
g4306
I98
g5
tp6464
a(Vsmells
p6465
Vdwells
p6466
g6461
Vb
g4306
I98
g5
tp6467
a(g6460
g6463
g6461
Va
g4306
I98
g5
tp6468
a(Vhand
p6469
Vstand
p6470
g6461
Vc
g4306
I98
g5
tp6471
a(Vhair
p6472
Vdespair
p6473
g6461
Vd
g4306
I98
g5
tp6474
a(Vboth
p6475
Vgrowth
p6476
g6461
Ve
g4306
I98
g5
tp6477
a(Vbreath
p6478
Vdeath
p6479
g6461
Vf
g4306
I98
g5
tp6480
a(Vsee
p6481
Vthee
p6482
g6461
Vg
g4306
I98
g5
tp6483
a(Vlong
p6484
Vsong
p6485
Vababcdcdefefgg
p6486
Va
g4306
I99
g5
tp6487
a(Vmight
p6488
Vlight
p6489
g6486
Vb
g4306
I99
g5
tp6490
a(Vredeem
p6491
Vesteem
p6492
g6486
Vc
g4306
I99
g5
tp6493
a(Vspent
p6494
Vargument
p6495
g6486
Vd
g4306
I99
g5
tp6496
a(Vsurvey
p6497
Vdecay
p6498
g6486
Ve
g4306
I99
g5
tp6499
a(Vthere
p6500
Vwhere
p6501
g6486
Vf
g4306
I99
g5
tp6502
a(Vlife
p6503
Vknife
p6504
g6486
Vg
g4306
I99
g5
tp6505
a(Vamends
p6506
Vdepends
p6507
Vababcdcdefefgg
p6508
Va
g4306
I100
g5
tp6509
a(Vdyed
p6510
Vdignified
p6511
g6508
Vb
g4306
I100
g5
tp6512
a(Vsay
p6513
Vlay
p6514
g6508
Vc
g4306
I100
g5
tp6515
a(Vfixd
p6516
Vintermixd
p6517
g6508
Vd
g4306
I100
g5
tp6518
a(Vdumb
p6519
Vtomb
p6520
g6508
Ve
g4306
I100
g5
tp6521
a(Vthee
p6522
Vbe
p6523
g6508
Vf
g4306
I100
g5
tp6524
a(Vhow
p6525
Vnow
p6526
g6508
Vg
g4306
I100
g5
tp6527
a(Vseeming
p6528
Vesteeming
p6529
Vababcdcdefefgg
p6530
Va
g4306
I101
g5
tp6531
a(Vappear
p6532
Vwhere
p6533
g6530
Vb
g4306
I101
g5
tp6534
a(Vspring
p6535
Vsing
p6536
g6530
Vc
g4306
I101
g5
tp6537
a(Vlays
p6538
Vdays
p6539
g6530
Vd
g4306
I101
g5
tp6540
a(Vnow
p6541
Vbough
p6542
g6530
Ve
g4306
I101
g5
tp6543
a(Vnight
p6544
Vdelight
p6545
g6530
Vf
g4306
I101
g5
tp6546
a(Vtongue
p6547
Vsong
p6548
g6530
Vg
g4306
I101
g5
tp6549
a(Vforth
p6550
Vworth
p6551
Vababcdcdefefgg
p6552
Va
g4306
I102
g5
tp6553
a(Vpride
p6554
Vbeside
p6555
g6552
Vb
g4306
I102
g5
tp6556
a(Vwrite
p6557
Vquite
p6558
g6552
Vc
g4306
I102
g5
tp6559
a(Vface
p6560
Vdisgrace
p6561
g6552
Vd
g4306
I102
g5
tp6562
a(Vmend
p6563
Vtend
p6564
g6552
Ve
g4306
I102
g5
tp6565
a(Vwell
p6566
Vtell
p6567
g6552
Vf
g4306
I102
g5
tp6568
a(Vsit
p6569
Vit
p6570
g6552
Vg
g4306
I102
g5
tp6571
a(Vold
p6572
Vcold
p6573
Vababcdcdefefgg
p6574
Va
g4306
I103
g5
tp6575
a(Veyed
p6576
Vpride
p6577
g6574
Vb
g4306
I103
g5
tp6578
a(Vturnd
p6579
Vburnd
p6580
g6574
Vc
g4306
I103
g5
tp6581
a(Vseen
p6582
Vgreen
p6583
g6574
Vd
g4306
I103
g5
tp6584
a(Vhand
p6585
Vstand
p6586
g6574
Ve
g4306
I103
g5
tp6587
a(Vperceived
p6588
Vdeceived
p6589
g6574
Vf
g4306
I103
g5
tp6590
a(Vunbred
p6591
Vdead
p6592
g6574
Vg
g4306
I103
g5
tp6593
a(Vidolatry
p6594
Vbe
p6595
Vababcdcdefefgg
p6596
Va
g4306
I104
g5
tp6597
a(Vshow
p6598
Vso
p6599
g6596
Vb
g4306
I104
g5
tp6600
a(Vkind
p6601
Vconfined
p6602
g6596
Vc
g4306
I104
g5
tp6603
a(Vexcellence
p6604
Vdifference
p6605
g6596
Vd
g4306
I104
g5
tp6606
a(Vargument
p6607
Vspent
p6608
g6596
Ve
g4306
I104
g5
tp6609
a(Vwords
p6610
Vaffords
p6611
g6596
Vf
g4306
I104
g5
tp6612
a(Valone
p6613
Vone
p6614
g6596
Vg
g4306
I104
g5
tp6615
a(Vtime
p6616
Vrhyme
p6617
Vababcdcdefefgg
p6618
Va
g4306
I105
g5
tp6619
a(Vwights
p6620
Vknights
p6621
g6618
Vb
g4306
I105
g5
tp6622
a(Vbest
p6623
Vexpressd
p6624
g6618
Vc
g4306
I105
g5
tp6625
a(Vbrow
p6626
Vnow
p6627
g6618
Vd
g4306
I105
g5
tp6628
a(Vprophecies
p6629
Veyes
p6630
g6618
Ve
g4306
I105
g5
tp6631
a(Vprefiguring
p6632
Vsing
p6633
g6618
Vf
g4306
I105
g5
tp6634
a(Vdays
p6635
Vpraise
p6636
g6618
Vg
g4306
I105
g5
tp6637
a(Vsoul
p6638
Vcontrol
p6639
Vababcdcdefefgg
p6640
Va
g4306
I106
g5
tp6641
a(Vcome
p6642
Vdoom
p6643
g6640
Vb
g4306
I106
g5
tp6644
a(Vendured
p6645
Vassured
p6646
g6640
Vc
g4306
I106
g5
tp6647
a(Vpresage
p6648
Vage
p6649
g6640
Vd
g4306
I106
g5
tp6650
a(Vtime
p6651
Vrhyme
p6652
g6640
Ve
g4306
I106
g5
tp6653
a(Vsubscribes
p6654
Vtribes
p6655
g6640
Vf
g4306
I106
g5
tp6656
a(Vmonument
p6657
Vspent
p6658
g6640
Vg
g4306
I106
g5
tp6659
a(Vcharacter
p6660
Vregister
p6661
Vababcdcdefefgg
p6662
Va
g4306
I107
g5
tp6663
a(Vspirit
p6664
Vmerit
p6665
g6662
Vb
g4306
I107
g5
tp6666
a(Vdivine
p6667
Vthine
p6668
g6662
Vc
g4306
I107
g5
tp6669
a(Vsame
p6670
Vname
p6671
g6662
Vd
g4306
I107
g5
tp6672
a(Vcase
p6673
Vplace
p6674
g6662
Ve
g4306
I107
g5
tp6675
a(Vage
p6676
Vpage
p6677
g6662
Vf
g4306
I107
g5
tp6678
a(Vbred
p6679
Vdead
p6680
g6662
Vg
g4306
I107
g5
tp6681
a(Vheart
p6682
Vdepart
p6683
Vababcdcdefefgg
p6684
Va
g4306
I108
g5
tp6685
a(Vqualify
p6686
Vlie
p6687
g6684
Vb
g4306
I108
g5
tp6688
a(Vranged
p6689
Vexchanged
p6690
g6684
Vc
g4306
I108
g5
tp6691
a(Vagain
p6692
Vstain
p6693
g6684
Vd
g4306
I108
g5
tp6694
a(Vreignd
p6695
Vstaind
p6696
g6684
Ve
g4306
I108
g5
tp6697
a(Vblood
p6698
Vgood
p6699
g6684
Vf
g4306
I108
g5
tp6700
a(Vcall
p6701
Vall
p6702
g6684
Vg
g4306
I108
g5
tp6703
a(Vthere
p6704
Vdear
p6705
Vababcdcdefefgg
p6706
Va
g4306
I109
g5
tp6707
a(Vview
p6708
Vnew
p6709
g6706
Vb
g4306
I109
g5
tp6710
a(Vtruth
p6711
Vyouth
p6712
g6706
Vc
g4306
I109
g5
tp6713
a(Vabove
p6714
Vlove
p6715
g6706
Vd
g4306
I109
g5
tp6716
a(Vend
p6717
Vfriend
p6718
g6706
Ve
g4306
I109
g5
tp6719
a(Vgrind
p6720
Vconfined
p6721
g6706
Vf
g4306
I109
g5
tp6722
a(Vbest
p6723
Vbreast
p6724
g6706
Vg
g4306
I109
g5
tp6725
a(Vchide
p6726
Vprovide
p6727
Vababcdcdefefgg
p6728
Va
g4306
I110
g5
tp6729
a(Vdeeds
p6730
Vbreeds
p6731
g6728
Vb
g4306
I110
g5
tp6732
a(Vbrand
p6733
Vhand
p6734
g6728
Vc
g4306
I110
g5
tp6735
a(Vsubdued
p6736
Vrenewd
p6737
g6728
Vd
g4306
I110
g5
tp6738
a(Vdrink
p6739
Vthink
p6740
g6728
Ve
g4306
I110
g5
tp6741
a(Vinfection
p6742
Vcorrection
p6743
g6728
Vf
g4306
I110
g5
tp6744
a(Vye
p6745
Vme
p6746
g6728
Vg
g4306
I110
g5
tp6747
a(Vfill
p6748
Vill
p6749
Vababcdcdefefgg
p6750
Va
g4306
I111
g5
tp6751
a(Vbrow
p6752
Vallow
p6753
g6750
Vb
g4306
I111
g5
tp6754
a(Vstrive
p6755
Valive
p6756
g6750
Vc
g4306
I111
g5
tp6757
a(Vtongue
p6758
Vwrong
p6759
g6750
Vd
g4306
I111
g5
tp6760
a(Vcare
p6761
Vare
p6762
g6750
Ve
g4306
I111
g5
tp6763
a(Vsense
p6764
Vdispense
p6765
g6750
Vf
g4306
I111
g5
tp6766
a(Vbred
p6767
Vdead
p6768
g6750
Vg
g4306
I111
g5
tp6769
a(Vmind
p6770
Vblind
p6771
Vababcdcdefefgg
p6772
Va
g4306
I112
g5
tp6773
a(Vabout
p6774
Vout
p6775
g6772
Vb
g4306
I112
g5
tp6776
a(Vheart
p6777
Vpart
p6778
g6772
Vc
g4306
I112
g5
tp6779
a(Vlatch
p6780
Vcatch
p6781
g6772
Vd
g4306
I112
g5
tp6782
a(Vsight
p6783
Vnight
p6784
g6772
Ve
g4306
I112
g5
tp6785
a(Vcreature
p6786
Vfeature
p6787
g6772
Vf
g4306
I112
g5
tp6788
a(Vyou
p6789
Vuntrue
p6790
g6772
Vg
g4306
I112
g5
tp6791
a(Vyou
p6792
Vtrue
p6793
Vababcdcdefefgg
p6794
Va
g4306
I113
g5
tp6795
a(Vflattery
p6796
Valchemy
p6797
g6794
Vb
g4306
I113
g5
tp6798
a(Vindigest
p6799
Vbest
p6800
g6794
Vc
g4306
I113
g5
tp6801
a(Vresemble
p6802
Vassemble
p6803
g6794
Vd
g4306
I113
g5
tp6804
a(Vseeing
p6805
Vgreeing
p6806
g6794
Ve
g4306
I113
g5
tp6807
a(Vup
p6808
Vcup
p6809
g6794
Vf
g4306
I113
g5
tp6810
a(Vsin
p6811
Vbegin
p6812
g6794
Vg
g4306
I113
g5
tp6813
a(Vlie
p6814
Vwhy
p6815
Vababcdcdefefgg
p6816
Va
g4306
I114
g5
tp6817
a(Vdearer
p6818
Vclearer
p6819
g6816
Vb
g4306
I114
g5
tp6820
a(Vaccidents
p6821
Vintents
p6822
g6816
Vc
g4306
I114
g5
tp6823
a(Vkings
p6824
Vthings
p6825
g6816
Vd
g4306
I114
g5
tp6826
a(Vtyranny
p6827
Vincertainty
p6828
g6816
Ve
g4306
I114
g5
tp6829
a(Vbest
p6830
Vrest
p6831
g6816
Vf
g4306
I114
g5
tp6832
a(Vso
p6833
Vgrow
p6834
g6816
Vg
g4306
I114
g5
tp6835
a(Vminds
p6836
Vfinds
p6837
Vababcdcdefefgg
p6838
Va
g4306
I115
g5
tp6839
a(Vlove
p6840
Vremove
p6841
g6838
Vb
g4306
I115
g5
tp6842
a(Vmark
p6843
Vbark
p6844
g6838
Vc
g4306
I115
g5
tp6845
a(Vshaken
p6846
Vtaken
p6847
g6838
Vd
g4306
I115
g5
tp6848
a(Vcheeks
p6849
Vweeks
p6850
g6838
Ve
g4306
I115
g5
tp6851
a(Vcome
p6852
Vdoom
p6853
g6838
Vf
g4306
I115
g5
tp6854
a(Vproved
p6855
Vloved
p6856
g6838
Vg
g4306
I115
g5
tp6857
a(Vall
p6858
Vcall
p6859
Vababcdcdefefgg
p6860
Va
g4306
I116
g5
tp6861
a(Vrepay
p6862
Vday
p6863
g6860
Vb
g4306
I116
g5
tp6864
a(Vminds
p6865
Vwinds
p6866
g6860
Vc
g4306
I116
g5
tp6867
a(Vright
p6868
Vsight
p6869
g6860
Vd
g4306
I116
g5
tp6870
a(Vdown
p6871
Vfrown
p6872
g6860
Ve
g4306
I116
g5
tp6873
a(Vaccumulate
p6874
Vhate
p6875
g6860
Vf
g4306
I116
g5
tp6876
a(Vprove
p6877
Vlove
p6878
g6860
Vg
g4306
I116
g5
tp6879
a(Vkeen
p6880
Vunseen
p6881
Vababcdcdefefgg
p6882
Va
g4306
I117
g5
tp6883
a(Vurge
p6884
Vpurge
p6885
g6882
Vb
g4306
I117
g5
tp6886
a(Vsweetness
p6887
Vmeetness
p6888
g6882
Vc
g4306
I117
g5
tp6889
a(Vfeeding
p6890
Vneeding
p6891
g6882
Vd
g4306
I117
g5
tp6892
a(Vanticipate
p6893
Vstate
p6894
g6882
Ve
g4306
I117
g5
tp6895
a(Vassured
p6896
Vcured
p6897
g6882
Vf
g4306
I117
g5
tp6898
a(Vtrue
p6899
Vyou
p6900
g6882
Vg
g4306
I117
g5
tp6901
a(Vtears
p6902
Vfears
p6903
Vababcdcdefefgg
p6904
Va
g4306
I118
g5
tp6905
a(Vwithin
p6906
Vwin
p6907
g6904
Vb
g4306
I118
g5
tp6908
a(Vcommitted
p6909
Vfitted
p6910
g6904
Vc
g4306
I118
g5
tp6911
a(Vnever
p6912
Vfever
p6913
g6904
Vd
g4306
I118
g5
tp6914
a(Vtrue
p6915
Vanew
p6916
g6904
Ve
g4306
I118
g5
tp6917
a(Vbetter
p6918
Vgreater
p6919
g6904
Vf
g4306
I118
g5
tp6920
a(Vcontent
p6921
Vspent
p6922
g6904
Vg
g4306
I118
g5
tp6923
a(Vnow
p6924
Vbow
p6925
Vababcdcdefefgg
p6926
Va
g4306
I119
g5
tp6927
a(Vfeel
p6928
Vsteel
p6929
g6926
Vb
g4306
I119
g5
tp6930
a(Vshaken
p6931
Vtaken
p6932
g6926
Vc
g4306
I119
g5
tp6933
a(Vtime
p6934
Vcrime
p6935
g6926
Vd
g4306
I119
g5
tp6936
a(Vrememberd
p6937
Vtenderd
p6938
g6926
Ve
g4306
I119
g5
tp6939
a(Vhits
p6940
Vfits
p6941
g6926
Vf
g4306
I119
g5
tp6942
a(Vfee
p6943
Vme
p6944
g6926
Vg
g4306
I119
g5
tp6945
a(Vesteemd
p6946
Vdeemd
p6947
Vababcdcdefefgg
p6948
Va
g4306
I120
g5
tp6949
a(Vbeing
p6950
Vseeing
p6951
g6948
Vb
g4306
I120
g5
tp6952
a(Veyes
p6953
Vspies
p6954
g6948
Vc
g4306
I120
g5
tp6955
a(Vblood
p6956
Vgood
p6957
g6948
Vd
g4306
I120
g5
tp6958
a(Vlevel
p6959
Vbevel
p6960
g6948
Ve
g4306
I120
g5
tp6961
a(Vown
p6962
Vshown
p6963
g6948
Vf
g4306
I120
g5
tp6964
a(Vmaintain
p6965
Vreign
p6966
g6948
Vg
g4306
I120
g5
tp6967
a(Vbrain
p6968
Vremain
p6969
Vababcdcdefefgg
p6970
Va
g4306
I121
g5
tp6971
a(Vmemory
p6972
Veternity
p6973
g6970
Vb
g4306
I121
g5
tp6974
a(Vheart
p6975
Vpart
p6976
g6970
Vc
g4306
I121
g5
tp6977
a(Vsubsist
p6978
Vmissd
p6979
g6970
Vd
g4306
I121
g5
tp6980
a(Vhold
p6981
Vbold
p6982
g6970
Ve
g4306
I121
g5
tp6983
a(Vscore
p6984
Vmore
p6985
g6970
Vf
g4306
I121
g5
tp6986
a(Vthee
p6987
Vme
p6988
g6970
Vg
g4306
I121
g5
tp6989
a(Vchange
p6990
Vstrange
p6991
Vababcdcdefefgg
p6992
Va
g4306
I122
g5
tp6993
a(Vmight
p6994
Vsight
p6995
g6992
Vb
g4306
I122
g5
tp6996
a(Vadmire
p6997
Vdesire
p6998
g6992
Vc
g4306
I122
g5
tp6999
a(Vold
p7000
Vtold
p7001
g6992
Vd
g4306
I122
g5
tp7002
a(Vdefy
p7003
Vlie
p7004
g6992
Ve
g4306
I122
g5
tp7005
a(Vpast
p7006
Vhaste
p7007
g6992
Vf
g4306
I122
g5
tp7008
a(Vbe
p7009
Vthee
p7010
g6992
Vg
g4306
I122
g5
tp7011
a(Vstate
p7012
Vhate
p7013
Vababcdcdefefgg
p7014
Va
g4306
I123
g5
tp7015
a(Vunfatherd
p7016
Vgatherd
p7017
g7014
Vb
g4306
I123
g5
tp7018
a(Vaccident
p7019
Vdiscontent
p7020
g7014
Vc
g4306
I123
g5
tp7021
a(Vfalls
p7022
Vcalls
p7023
g7014
Vd
g4306
I123
g5
tp7024
a(Vheretic
p7025
Vpolitic
p7026
g7014
Ve
g4306
I123
g5
tp7027
a(Vhours
p7028
Vshowers
p7029
g7014
Vf
g4306
I123
g5
tp7030
a(Vtime
p7031
Vcrime
p7032
g7014
Vg
g4306
I123
g5
tp7033
a(Vcanopy
p7034
Veternity
p7035
Vababcdcdefefgg
p7036
Va
g4306
I124
g5
tp7037
a(Vhonouring
p7038
Vruining
p7039
g7036
Vb
g4306
I124
g5
tp7040
a(Vfavour
p7041
Vsavour
p7042
g7036
Vc
g4306
I124
g5
tp7043
a(Vrent
p7044
Vspent
p7045
g7036
Vd
g4306
I124
g5
tp7046
a(Vheart
p7047
Vart
p7048
g7036
Ve
g4306
I124
g5
tp7049
a(Vfree
p7050
Vthee
p7051
g7036
Vf
g4306
I124
g5
tp7052
a(Vsoul
p7053
Vcontrol
p7054
g7036
Vg
g4306
I124
g5
tp7055
a(Vpower
p7056
Vhour
p7057
Vaabbccddeeff
p7058
Va
g4306
I125
g5
tp7059
a(Vshowst
p7060
Vgrowst
p7061
g7058
S'b'
g4306
I125
g5
tp7062
a(Vwrack
p7063
Vback
p7064
g7058
S'c'
g4306
I125
g5
tp7065
a(Vskill
p7066
Vkill
p7067
g7058
S'd'
g4306
I125
g5
tp7068
a(Vpleasure
p7069
Vtreasure
p7070
g7058
S'e'
g4306
I125
g5
tp7071
a(Vbe
p7072
Vthee
p7073
g7058
S'f'
g4306
I125
g5
tp7074
a(Vfair
p7075
Vheir
p7076
Vababcdcdefefgg
p7077
Va
g4306
I126
g5
tp7078
a(Vname
p7079
Vshame
p7080
g7077
Vb
g4306
I126
g5
tp7081
a(Vpower
p7082
Vbower
p7083
g7077
Vc
g4306
I126
g5
tp7084
a(Vface
p7085
Vdisgrace
p7086
g7077
Vd
g4306
I126
g5
tp7087
a(Vblack
p7088
Vlack
p7089
g7077
Ve
g4306
I126
g5
tp7090
a(Vseem
p7091
Vesteem
p7092
g7077
Vf
g4306
I126
g5
tp7093
a(Vwoe
p7094
Vso
p7095
g7077
Vg
g4306
I126
g5
tp7096
a(Vplayst
p7097
Vswayst
p7098
Vababcdcdefefgg
p7099
Va
g4306
I127
g5
tp7100
a(Vsounds
p7101
Vconfounds
p7102
g7099
Vb
g4306
I127
g5
tp7103
a(Vleap
p7104
Vreap
p7105
g7099
Vc
g4306
I127
g5
tp7106
a(Vhand
p7107
Vstand
p7108
g7099
Vd
g4306
I127
g5
tp7109
a(Vstate
p7110
Vgait
p7111
g7099
Ve
g4306
I127
g5
tp7112
a(Vchips
p7113
Vlips
p7114
g7099
Vf
g4306
I127
g5
tp7115
a(Vthis
p7116
Vkiss
p7117
g7099
Vg
g4306
I127
g5
tp7118
a(Vshame
p7119
Vblame
p7120
Vababcdcdefefgg
p7121
Va
g4306
I128
g5
tp7122
a(Vlust
p7123
Vtrust
p7124
g7121
Vb
g4306
I128
g5
tp7125
a(Vstraight
p7126
Vbait
p7127
g7121
Vc
g4306
I128
g5
tp7128
a(Vhad
p7129
Vmad
p7130
g7121
Vd
g4306
I128
g5
tp7131
a(Vso
p7132
Vwoe
p7133
g7121
Ve
g4306
I128
g5
tp7134
a(Vextreme
p7135
Vdream
p7136
g7121
Vf
g4306
I128
g5
tp7137
a(Vwell
p7138
Vhell
p7139
g7121
Vg
g4306
I128
g5
tp7140
a(Vsun
p7141
Vdun
p7142
Vababcdcdefefgg
p7143
Va
g4306
I129
g5
tp7144
a(Vred
p7145
Vhead
p7146
g7143
Vb
g4306
I129
g5
tp7147
a(Vwhite
p7148
Vdelight
p7149
g7143
Vc
g4306
I129
g5
tp7150
a(Vcheeks
p7151
Vreeks
p7152
g7143
Vd
g4306
I129
g5
tp7153
a(Vknow
p7154
Vgo
p7155
g7143
Ve
g4306
I129
g5
tp7156
a(Vsound
p7157
Vground
p7158
g7143
Vf
g4306
I129
g5
tp7159
a(Vrare
p7160
Vcompare
p7161
g7143
Vg
g4306
I129
g5
tp7162
a(Vart
p7163
Vheart
p7164
Vababcdcdefefgg
p7165
Va
g4306
I130
g5
tp7166
a(Vcruel
p7167
Vjewel
p7168
g7165
Vb
g4306
I130
g5
tp7169
a(Vbehold
p7170
Vbold
p7171
g7165
Vc
g4306
I130
g5
tp7172
a(Vgroan
p7173
Valone
p7174
g7165
Vd
g4306
I130
g5
tp7175
a(Vswear
p7176
Vbear
p7177
g7165
Ve
g4306
I130
g5
tp7178
a(Vface
p7179
Vplace
p7180
g7165
Vf
g4306
I130
g5
tp7181
a(Vdeeds
p7182
Vproceeds
p7183
g7165
Vg
g4306
I130
g5
tp7184
a(Vme
p7185
Vbe
p7186
Vababcdcdefefgg
p7187
Va
g4306
I131
g5
tp7188
a(Vdisdain
p7189
Vpain
p7190
g7187
Vb
g4306
I131
g5
tp7191
a(Vheaven
p7192
Veven
p7193
g7187
Vc
g4306
I131
g5
tp7194
a(Veast
p7195
Vwest
p7196
g7187
Vd
g4306
I131
g5
tp7197
a(Vface
p7198
Vgrace
p7199
g7187
Ve
g4306
I131
g5
tp7200
a(Vheart
p7201
Vpart
p7202
g7187
Vf
g4306
I131
g5
tp7203
a(Vblack
p7204
Vlack
p7205
g7187
Vg
g4306
I131
g5
tp7206
a(Vgroan
p7207
Valone
p7208
Vababcdcdefefgg
p7209
Va
g4306
I132
g5
tp7210
a(Vme
p7211
Vbe
p7212
g7209
Vb
g4306
I132
g5
tp7213
a(Vtaken
p7214
Vforsaken
p7215
g7209
Vc
g4306
I132
g5
tp7216
a(Vengrossd
p7217
Vcrossd
p7218
g7209
Vd
g4306
I132
g5
tp7219
a(Vward
p7220
Vguard
p7221
g7209
Ve
g4306
I132
g5
tp7222
a(Vbail
p7223
Vgaol
p7224
g7209
Vf
g4306
I132
g5
tp7225
a(Vthee
p7226
Vme
p7227
g7209
Vg
g4306
I132
g5
tp7228
a(Vthine
p7229
Vmine
p7230
Vababcdcdefefgg
p7231
Va
g4306
I133
g5
tp7232
a(Vwill
p7233
Vstill
p7234
g7231
Vb
g4306
I133
g5
tp7235
a(Vfree
p7236
Vme
p7237
g7231
Vc
g4306
I133
g5
tp7238
a(Vkind
p7239
Vbind
p7240
g7231
Vd
g4306
I133
g5
tp7241
a(Vtake
p7242
Vsake
p7243
g7231
Ve
g4306
I133
g5
tp7244
a(Vuse
p7245
Vabuse
p7246
g7231
Vf
g4306
I133
g5
tp7247
a(Vme
p7248
Vfree
p7249
g7231
Vg
g4306
I133
g5
tp7250
a(Vwill
p7251
Vstill
p7252
Vababcdcdefefgg
p7253
Va
g4306
I134
g5
tp7254
a(Voverplus
p7255
Vthus
p7256
g7253
Vb
g4306
I134
g5
tp7257
a(Vspacious
p7258
Vgracious
p7259
g7253
Vc
g4306
I134
g5
tp7260
a(Vthine
p7261
Vshine
p7262
g7253
Vd
g4306
I134
g5
tp7263
a(Vstill
p7264
Vwill
p7265
g7253
Ve
g4306
I134
g5
tp7266
a(Vstore
p7267
Vmore
p7268
g7253
Vf
g4306
I134
g5
tp7269
a(Vkill
p7270
Vwill
p7271
g7253
Vg
g4306
I134
g5
tp7272
a(Vnear
p7273
Vthere
p7274
Vababcdcdefefgg
p7275
Va
g4306
I135
g5
tp7276
a(Vwill
p7277
Vfulfil
p7278
g7275
Vb
g4306
I135
g5
tp7279
a(Vlove
p7280
Vprove
p7281
g7275
Vc
g4306
I135
g5
tp7282
a(Vone
p7283
Vnone
p7284
g7275
Vd
g4306
I135
g5
tp7285
a(Vuntold
p7286
Vhold
p7287
g7275
Ve
g4306
I135
g5
tp7288
a(Vbe
p7289
Vthee
p7290
g7275
Vf
g4306
I135
g5
tp7291
a(Vstill
p7292
Vwill
p7293
g7275
Vg
g4306
I135
g5
tp7294
a(Veyes
p7295
Vlies
p7296
Vababcdcdefefgg
p7297
Va
g4306
I136
g5
tp7298
a(Vsee
p7299
Vbe
p7300
g7297
Vb
g4306
I136
g5
tp7301
a(Vlooks
p7302
Vhooks
p7303
g7297
Vc
g4306
I136
g5
tp7304
a(Vride
p7305
Vtied
p7306
g7297
Vd
g4306
I136
g5
tp7307
a(Vplot
p7308
Vnot
p7309
g7297
Ve
g4306
I136
g5
tp7310
a(Vplace
p7311
Vface
p7312
g7297
Vf
g4306
I136
g5
tp7313
a(Verred
p7314
Vtransferrd
p7315
g7297
Vg
g4306
I136
g5
tp7316
a(Vtruth
p7317
Vyouth
p7318
Vababcdcdefefgg
p7319
Va
g4306
I137
g5
tp7320
a(Vlies
p7321
Vsubtleties
p7322
g7319
Vb
g4306
I137
g5
tp7323
a(Vyoung
p7324
Vtongue
p7325
g7319
Vc
g4306
I137
g5
tp7326
a(Vbest
p7327
Vsuppressd
p7328
g7319
Vd
g4306
I137
g5
tp7329
a(Vunjust
p7330
Vtrust
p7331
g7319
Ve
g4306
I137
g5
tp7332
a(Vold
p7333
Vtold
p7334
g7319
Vf
g4306
I137
g5
tp7335
a(Vme
p7336
Vbe
p7337
g7319
Vg
g4306
I137
g5
tp7338
a(Vwrong
p7339
Vtongue
p7340
Vababcdcdefefgg
p7341
Va
g4306
I138
g5
tp7342
a(Vheart
p7343
Vart
p7344
g7341
Vb
g4306
I138
g5
tp7345
a(Vsight
p7346
Vmight
p7347
g7341
Vc
g4306
I138
g5
tp7348
a(Vaside
p7349
Vbide
p7350
g7341
Vd
g4306
I138
g5
tp7351
a(Vknows
p7352
Vfoes
p7353
g7341
Ve
g4306
I138
g5
tp7354
a(Venemies
p7355
Vinjuries
p7356
g7341
Vf
g4306
I138
g5
tp7357
a(Vslain
p7358
Vpain
p7359
g7341
Vg
g4306
I138
g5
tp7360
a(Vpress
p7361
Vexpress
p7362
Vababcdcdefefgg
p7363
Va
g4306
I139
g5
tp7364
a(Vdisdain
p7365
Vpain
p7366
g7363
Vb
g4306
I139
g5
tp7367
a(Vwere
p7368
Vnear
p7369
g7363
Vc
g4306
I139
g5
tp7370
a(Vso
p7371
Vknow
p7372
g7363
Vd
g4306
I139
g5
tp7373
a(Vmad
p7374
Vbad
p7375
g7363
Ve
g4306
I139
g5
tp7376
a(Vthee
p7377
Vbe
p7378
g7363
Vf
g4306
I139
g5
tp7379
a(Vbelied
p7380
Vwide
p7381
g7363
Vg
g4306
I139
g5
tp7382
a(Veyes
p7383
Vdespise
p7384
Vababcdcdefefgg
p7385
Va
g4306
I140
g5
tp7386
a(Vnote
p7387
Vdote
p7388
g7385
Vb
g4306
I140
g5
tp7389
a(Vdelighted
p7390
Vinvited
p7391
g7385
Vc
g4306
I140
g5
tp7392
a(Vprone
p7393
Valone
p7394
g7385
Vd
g4306
I140
g5
tp7395
a(Vcan
p7396
Vman
p7397
g7385
Ve
g4306
I140
g5
tp7398
a(Vthee
p7399
Vbe
p7400
g7385
Vf
g4306
I140
g5
tp7401
a(Vgain
p7402
Vpain
p7403
g7385
Vg
g4306
I140
g5
tp7404
a(Vhate
p7405
Vstate
p7406
Vababcdcdefefgg
p7407
Va
g4306
I141
g5
tp7408
a(Vloving
p7409
Vreproving
p7410
g7407
Vb
g4306
I141
g5
tp7411
a(Vthine
p7412
Vmine
p7413
g7407
Vc
g4306
I141
g5
tp7414
a(Vornaments
p7415
Vrents
p7416
g7407
Vd
g4306
I141
g5
tp7417
a(Vthose
p7418
Vgrows
p7419
g7407
Ve
g4306
I141
g5
tp7420
a(Vthee
p7421
Vbe
p7422
g7407
Vf
g4306
I141
g5
tp7423
a(Vhide
p7424
Vdenied
p7425
g7407
Vg
g4306
I141
g5
tp7426
a(Vcatch
p7427
Vdispatch
p7428
Vababcdcdefefgg
p7429
Va
g4306
I142
g5
tp7430
a(Vaway
p7431
Vstay
p7432
g7429
Vb
g4306
I142
g5
tp7433
a(Vchase
p7434
Vface
p7435
g7429
Vc
g4306
I142
g5
tp7436
a(Vbent
p7437
Vdiscontent
p7438
g7429
Vd
g4306
I142
g5
tp7439
a(Vthee
p7440
Vme
p7441
g7429
Ve
g4306
I142
g5
tp7442
a(Vbehind
p7443
Vkind
p7444
g7429
Vf
g4306
I142
g5
tp7445
a(Vwill
p7446
Vstill
p7447
g7429
Vg
g4306
I142
g5
tp7448
a(Vdespair
p7449
Vfair
p7450
Vababcdcdefefgg
p7451
Va
g4306
I143
g5
tp7452
a(Vstill
p7453
Vill
p7454
g7451
Vb
g4306
I143
g5
tp7455
a(Vevil
p7456
Vdevil
p7457
g7451
Vc
g4306
I143
g5
tp7458
a(Vside
p7459
Vpride
p7460
g7451
Vd
g4306
I143
g5
tp7461
a(Vfiend
p7462
Vfriend
p7463
g7451
Ve
g4306
I143
g5
tp7464
a(Vtell
p7465
Vhell
p7466
g7451
Vf
g4306
I143
g5
tp7467
a(Vdoubt
p7468
Vout
p7469
g7451
Vg
g4306
I143
g5
tp7470
a(Vmake
p7471
Vsake
p7472
Vababcdcdefefgg
p7473
Va
g4306
I144
g5
tp7474
a(Vhate
p7475
Vstate
p7476
g7473
Vb
g4306
I144
g5
tp7477
a(Vcome
p7478
Vdoom
p7479
g7473
Vc
g4306
I144
g5
tp7480
a(Vsweet
p7481
Vgreet
p7482
g7473
Vd
g4306
I144
g5
tp7483
a(Vend
p7484
Vfiend
p7485
g7473
Ve
g4306
I144
g5
tp7486
a(Vday
p7487
Vaway
p7488
g7473
Vf
g4306
I144
g5
tp7489
a(Vthrew
p7490
Vyou
p7491
g7473
Vg
g4306
I144
g5
tp7492
a(Vearth
p7493
Vdearth
p7494
Vababcdcdefefgg
p7495
Va
g4306
I145
g5
tp7496
a(Varray
p7497
Vgay
p7498
g7495
Vb
g4306
I145
g5
tp7499
a(Vlease
p7500
Vexcess
p7501
g7495
Vc
g4306
I145
g5
tp7502
a(Vspend
p7503
Vend
p7504
g7495
Vd
g4306
I145
g5
tp7505
a(Vloss
p7506
Vdross
p7507
g7495
Ve
g4306
I145
g5
tp7508
a(Vstore
p7509
Vmore
p7510
g7495
Vf
g4306
I145
g5
tp7511
a(Vmen
p7512
Vthen
p7513
g7495
Vg
g4306
I145
g5
tp7514
a(Vstill
p7515
Vill
p7516
Vababcdcdefefgg
p7517
Va
g4306
I146
g5
tp7518
a(Vdisease
p7519
Vplease
p7520
g7517
Vb
g4306
I146
g5
tp7521
a(Vlove
p7522
Vapprove
p7523
g7517
Vc
g4306
I146
g5
tp7524
a(Vkept
p7525
Vexcept
p7526
g7517
Vd
g4306
I146
g5
tp7527
a(Vcare
p7528
Vare
p7529
g7517
Ve
g4306
I146
g5
tp7530
a(Vunrest
p7531
Vexpressd
p7532
g7517
Vf
g4306
I146
g5
tp7533
a(Vbright
p7534
Vnight
p7535
g7517
Vg
g4306
I146
g5
tp7536
a(Vhead
p7537
Vfled
p7538
Vababcdcdefefgg
p7539
Va
g4306
I147
g5
tp7540
a(Vsight
p7541
Varight
p7542
g7539
Vb
g4306
I147
g5
tp7543
a(Vdote
p7544
Vdenote
p7545
g7539
Vc
g4306
I147
g5
tp7546
a(Vso
p7547
Vno
p7548
g7539
Vd
g4306
I147
g5
tp7549
a(Vtrue
p7550
Vview
p7551
g7539
Ve
g4306
I147
g5
tp7552
a(Vtears
p7553
Vclears
p7554
g7539
Vf
g4306
I147
g5
tp7555
a(Vblind
p7556
Vfind
p7557
g7539
Vg
g4306
I147
g5
tp7558
a(Vnot
p7559
Vforgot
p7560
Vababcdcdefefgg
p7561
Va
g4306
I148
g5
tp7562
a(Vpartake
p7563
Vsake
p7564
g7561
Vb
g4306
I148
g5
tp7565
a(Vfriend
p7566
Vspend
p7567
g7561
Vc
g4306
I148
g5
tp7568
a(Vupon
p7569
Vmoan
p7570
g7561
Vd
g4306
I148
g5
tp7571
a(Vrespect
p7572
Vdefect
p7573
g7561
Ve
g4306
I148
g5
tp7574
a(Vdespise
p7575
Veyes
p7576
g7561
Vf
g4306
I148
g5
tp7577
a(Vmind
p7578
Vblind
p7579
g7561
Vg
g4306
I148
g5
tp7580
a(Vmight
p7581
Vsight
p7582
Vababcdcdefefgg
p7583
Va
g4306
I149
g5
tp7584
a(Vsway
p7585
Vday
p7586
g7583
Vb
g4306
I149
g5
tp7587
a(Vill
p7588
Vskill
p7589
g7583
Vc
g4306
I149
g5
tp7590
a(Vdeeds
p7591
Vexceeds
p7592
g7583
Vd
g4306
I149
g5
tp7593
a(Vmore
p7594
Vabhor
p7595
g7583
Ve
g4306
I149
g5
tp7596
a(Vhate
p7597
Vstate
p7598
g7583
Vf
g4306
I149
g5
tp7599
a(Vme
p7600
Vthee
p7601
g7583
Vg
g4306
I149
g5
tp7602
a(Vis
p7603
Vamiss
p7604
Vababcdcdefefgg
p7605
Va
g4306
I150
g5
tp7606
a(Vlove
p7607
Vprove
p7608
g7605
Vb
g4306
I150
g5
tp7609
a(Vbetray
p7610
Vmay
p7611
g7605
Vc
g4306
I150
g5
tp7612
a(Vtreason
p7613
Vreason
p7614
g7605
Vd
g4306
I150
g5
tp7615
a(Vthee
p7616
Vbe
p7617
g7605
Ve
g4306
I150
g5
tp7618
a(Vpride
p7619
Vside
p7620
g7605
Vf
g4306
I150
g5
tp7621
a(Vcall
p7622
Vfall
p7623
g7605
Vg
g4306
I150
g5
tp7624
a(Vforsworn
p7625
Vtorn
p7626
Vababcdcdefefgg
p7627
Va
g4306
I151
g5
tp7628
a(Vswearing
p7629
Vbearing
p7630
g7627
Vb
g4306
I151
g5
tp7631
a(Vthee
p7632
Vthee
p7633
g7627
Vc
g4306
I151
g5
tp7634
a(Vmost
p7635
Vlost
p7636
g7627
Vd
g4306
I151
g5
tp7637
a(Vkindness
p7638
Vblindness
p7639
g7627
Ve
g4306
I151
g5
tp7640
a(Vconstancy
p7641
Vsee
p7642
g7627
Vf
g4306
I151
g5
tp7643
a(Vi
Vlie
p7644
g7627
Vg
g4306
I151
g5
tp7645
a(Vasleep
p7646
Vsteep
p7647
Vababcdcdefefgg
p7648
Va
g4306
I152
g5
tp7649
a(Vfound
p7650
Vground
p7651
g7648
Vb
g4306
I152
g5
tp7652
a(Vlove
p7653
Vprove
p7654
g7648
Vc
g4306
I152
g5
tp7655
a(Vendure
p7656
Vcure
p7657
g7648
Vd
g4306
I152
g5
tp7658
a(Vfired
p7659
Vdesired
p7660
g7648
Ve
g4306
I152
g5
tp7661
a(Vbreast
p7662
Vguest
p7663
g7648
Vf
g4306
I152
g5
tp7664
a(Vlies
p7665
Veyes
p7666
g7648
Vg
g4306
I152
g5
tp7667
a(Vasleep
p7668
Vkeep
p7669
Vababcdcdefefgg
p7670
Va
g4306
I153
g5
tp7671
a(Vbrand
p7672
Vhand
p7673
g7670
Vb
g4306
I153
g5
tp7674
a(Vfire
p7675
Vdesire
p7676
g7670
Vc
g4306
I153
g5
tp7677
a(Vwarmd
p7678
Vdisarmd
p7679
g7670
Vd
g4306
I153
g5
tp7680
a(Vby
p7681
Vremedy
p7682
g7670
Ve
g4306
I153
g5
tp7683
a(Vperpetual
p7684
Vthrall
p7685
g7670
Vf
g4306
I153
g5
tp7686
a(Vprove
p7687
Vlove
p7688
g7670
Vg
g4306
I153
g5
tp7689
a.