c__builtin__
set
p1
((lp2
Vfawn
p3
aVraining
p4
aVfoul
p5
aVfour
p6
aVwoods
p7
aVhanging
p8
aVvassals
p9
aVmarching
p10
aVlooking
p11
aVgranting
p12
aV'pure
p13
aVlord
p14
aVmeadows
p15
aVsinking
p16
aVinhearse
p17
aVleisurely
p18
aVkennell
p19
aVdisturb
p20
aVuttering
p21
aVprize
p22
aVsuccession
p23
aVcharter
p24
aVglassy
p25
aVinfringed
p26
aVnigh
p27
aVtired
p28
aVdive-dapper
p29
aVsecond
p30
aVinheritors
p31
aVgood-morrow
p32
aVvaliant
p33
aVsustaining
p34
aVerrors
p35
aVforgetting
p36
aVruthless
p37
aVthunder
p38
aVfingers
p39
aVpaphos
p40
aVincreasing
p41
aVshocks
p42
aVherb
p43
aVleaning
p44
aVhere
p45
aVherd
p46
aVhers
p47
aVshriek
p48
aVsubstance
p49
aVcontroversy
p50
aVnatures
p51
aVgolden
p52
aVdivide
p53
aVbrought
p54
aVstern
p55
aVmote
p56
aVpainters
p57
aVspoke
p58
aVjunes
p59
aVmusic
p60
aVtherefore
p61
aVstrike
p62
aVuntil
p63
aVleese
p64
aVfemales
p65
aVholy
p66
aVbrings
p67
aVgashes
p68
aVhurt
p69
aVstill-pining
p70
aVglass
p71
aVmidst
p72
aVhold
p73
aVcircumstances
p74
aVlocked
p75
aVpursue
p76
aVburneth
p77
aVtell-tale
p78
aVexhale
p79
aVrevenues
p80
aVexample
p81
aVvanities
p82
aVwane
p83
aVunjust
p84
aVhousehold
p85
aVwant
p86
aVreprove
p87
aVabsolute
p88
aVturn
p89
aVcomplaining
p90
aVdignifies
p91
aVtravel
p92
aVfeature
p93
aVhow
p94
aVhot
p95
aVstarteth
p96
aVdignified
p97
aVbeauty
p98
aV'here
p99
aVmodest
p100
aVdestined
p101
aVcharm'd
p102
aVyouths
p103
aVrevolt
p104
aVwink
p105
aVkeeps
p106
aVwing
p107
aVwind
p108
aVup-heaveth
p109
aVcouplement
p110
aVwelcomed
p111
aVunworthiness
p112
aVprofaned
p113
aVclose-tongued
p114
aVwrought
p115
aVwelcomes
p116
aVwickedly
p117
aVlode-star
p118
aVfit
p119
aVfix
p120
aVmayst
p121
aVembroider
p122
aVfie
p123
aVnobler
p124
aVhidden
p125
aVwhoeer
p126
aVgrievous
p127
aVenrich
p128
aVthroned
p129
aVguiles
p130
aVschools
p131
aVco-partners
p132
aVsilver
p133
aVblushes
p134
aVdumps
p135
aVspotless
p136
aVarrow
p137
aVobdurate
p138
aVwoes
p139
aVconcord
p140
aVgarment
p141
aVparasites
p142
aVmisprision
p143
aVwhit
p144
aVblinded
p145
aVborne
p146
aVmisfortune
p147
aVre
p148
aVfoundation
p149
aVassured
p150
aVpleadeth
p151
aVelsewhere
p152
aVelement
p153
aVcrowned
p154
aVestimate
p155
aVlimning
p156
aVknit
p157
aVself-applied
p158
aVshelves
p159
aVbehests
p160
aVdisturbed
p161
aVspeedy
p162
aVtempting
p163
aVsad-beholding
p164
aVpotions
p165
aVhearsay
p166
aVwasp
p167
aVsubtlety
p168
aVwast
p169
aVmaladies
p170
aVwash
p171
aVclamorous
p172
aVfilching
p173
aVexchequer
p174
aVservice
p175
aVmaster
p176
aVblossoms
p177
aVlegs
p178
aVbitter
p179
aVcisterns
p180
aV'bonnet
p181
aVwisdom
p182
aVtires
p183
aVshowed
p184
aV'wonder
p185
aVcoward
p186
aVtree
p187
aVrusty
p188
aVidly
p189
aV'such
p190
aVidle
p191
aVendure
p192
aVfeeling
p193
aVsilly-jeering
p194
aVlongs
p195
aV'vouchsafe
p196
aV'o
p197
aVbrawny
p198
aVthaw
p199
aVaffairs
p200
aVuncouth
p201
aVgripe
p202
aVsaint-like
p203
aVdoors
p204
aVhum
p205
aVdisdainfully
p206
aVshall
p207
aVobject
p208
aVrears
p209
aVmouth
p210
aVaddict
p211
aVletter
p212
aVshalt
p213
aVgrove
p214
aVfoist
p215
aVdetriment
p216
aVcame
p217
aVmarvel
p218
aVincorporate
p219
aVtempter
p220
aVtempted
p221
aVapace
p222
aVtouches
p223
aVbusy
p224
aVlights
p225
aVcupid
p226
aVmens
p227
aVbush
p228
aVbliss
p229
aVrich
p230
aVmend
p231
aV'no
p232
aVdevours
p233
aVchampaign
p234
aValtogether
p235
aVgivest
p236
aVrelish
p237
aVspilling
p238
aVeyelids
p239
aVesteeming
p240
aVreposed
p241
aVsurfeits
p242
aVfair
p243
aVhold-fast
p244
aVfain
p245
aVhammer
p246
aVbest
p247
aVpricking
p248
aVadvisedly
p249
aVstampd
p250
aVrings
p251
aVdistress'd
p252
aVinjuries
p253
aVplaintful
p254
aVstamps
p255
aVscore
p256
aVscorn
p257
aVpreserve
p258
aVclaws
p259
aVmen
p260
aVparallels
p261
aVextend
p262
aVnature
p263
aVauthorizing
p264
aVtwinkling
p265
aVreprehends
p266
aVdebt
p267
aVpity
p268
aVaccident
p269
aVdisdain
p270
aVcountry
p271
aVpits
p272
aVstirrd
p273
aVheating
p274
aVincense
p275
aVpith
p276
aVvail
p277
aVvain
p278
aVquiver'st
p279
aVparley
p280
aV.
aVtwain
p281
aVmuch
p282
aVstill-slaughter
p283
aVprivilege
p284
aVfry
p285
aVfiery-pointed
p286
aVlife
p287
aVeastern
p288
aVdote
p289
aVdoubts
p290
aVdoth
p291
aVerst
p292
aVsuch-like
p293
aVchill
p294
aVcontemn
p295
aVunfelt
p296
aVwonted
p297
aVbin
p298
aVrecured
p299
aVrecures
p300
aVto-morrow
p301
aVbounteous
p302
aVlanguisheth
p303
aVmemorial
p304
aVintituled
p305
aVthings
p306
aVilion
p307
aVuntuned
p308
aVharmony
p309
aVfairly
p310
aVsuchlike
p311
aVtops
p312
aVconsents
p313
aVsupper
p314
aVtune
p315
aVmeads
p316
aVaskance
p317
aVcrusheth
p318
aVechoes
p319
aVveils
p320
aVcapitol
p321
aVsleeps
p322
aVforsaken
p323
aVbeset
p324
aVdisguise
p325
aVmaketh
p326
aVfalcon
p327
aVprognosticate
p328
aVplight
p329
aVrushing
p330
aVsucceeding
p331
aVdarksome
p332
aVenters
p333
aVease
p334
aVhad
p335
aVdialogued
p336
aVbeloved
p337
aVprison
p338
aVhap
p339
aVeast
p340
aVhat
p341
aV'reward
p342
aVbirth
p343
aVshadow
p344
aVdesire
p345
aVboundeth
p346
aVowls
p347
aVmisled
p348
aVsteps
p349
aVattorney
p350
aVright
p351
aVold
p352
aVpeople
p353
aVcrown
p354
aVcaptive
p355
aVcreep
p356
aVenemies
p357
aVperchance
p358
aVfor
p359
aVbottom
p360
aVrehearse
p361
aVfox
p362
aVpolluted
p363
aVfoe
p364
aVshakes
p365
aVpitchy
p366
aVshifting
p367
aVlosing
p368
aVdisdains
p369
aVshaken
p370
aVlong-hid
p371
aVlackey
p372
aVo
aVdespair
p373
aVraised
p374
aVsod
p375
aVnought
p376
aVson
p377
aVscythed
p378
aVdespised
p379
aVwaits
p380
aVsuffice
p381
aVtame
p382
aVbarketh
p383
aVauthorized
p384
aVhappy
p385
aVinsurrection
p386
aVoffer
p387
aVtigers
p388
aVback
p389
aVtalents
p390
aVperfumed
p391
aVgriped
p392
aVextremity
p393
aVlays
p394
aVmighty
p395
aVtriumphing
p396
aVpassenger
p397
aVdisgrace
p398
aVmeagre
p399
aVproves
p400
aVunbless
p401
aVwarmd
p402
aVpry'st
p403
aVherdmen
p404
aVcrowns
p405
aVflood
p406
aVambitious
p407
aVcrownd
p408
aVsmell
p409
aVroll
p410
aVcoffers-up
p411
aVwoodman
p412
aV't
p413
aVintend
p414
aV'd
p415
aVintent
p416
aV'a
p417
aVsmelling
p418
aVcleaves
p419
aV'i
p420
aVtime
p421
aVpush
p422
aVfrenzy
p423
aVdotes
p424
aVchain
p425
aVwhoever
p426
aVdoted
p427
aVhole
p428
aVflap-mouth
p429
aVvex
p430
aVremain'd
p431
aVbribed
p432
aVtraitors
p433
aVblustering
p434
aVflood-gates
p435
aVchoice
p436
aVvotary
p437
aVgloomy
p438
aVmourn
p439
aVstays
p440
aVminute
p441
aVtear
p442
aVtrots
p443
aVleave
p444
aVwatch-word
p445
aVdowland
p446
aVteam
p447
aVunaware
p448
aVprevent
p449
aVblade
p450
aVrents
p451
aV'sometime
p452
aVminion
p453
aVsigh
p454
aVvenge
p455
aVmelt
p456
aVcurrent
p457
aV'he
p458
aVfalling
p459
aVbadge
p460
aVhonour
p461
aV'your
p462
aVaddress
p463
aValone
p464
aValong
p465
aVconvertite
p466
aVclimbd
p467
aVtroth
p468
aVwherever
p469
aVdew-bedabbled
p470
aVsawn
p471
aVconcealed
p472
aVlove
p473
aVmelodious
p474
aVmuses
p475
aVprefer
p476
aVstill-gazing
p477
aVbloody
p478
aVbetraying
p479
aVpurblind
p480
aVo'erworn
p481
aVangry
p482
aVvigour
p483
aVwondering
p484
aVscope
p485
aVsonnets
p486
aVloving
p487
aVlaund
p488
aVafford
p489
aVrefrain
p490
aVignorant
p491
aVvirtue
p492
aVavaunt
p493
aVepitaph
p494
aVsanctified
p495
aVbelieved
p496
aVstone-still
p497
aVadmired
p498
aVlockd
p499
aVweasels
p500
aVlocks
p501
aVhides
p502
aVstoln
p503
aVstole
p504
aVwinter
p505
aVdivided
p506
aVvainly
p507
aVcavil
p508
aVblasting
p509
aVspot
p510
aVdate
p511
aVsuch
p512
aVsuck
p513
aVdove
p514
aVtemperate
p515
aVyielding
p516
aVso
p517
aVdimple
p518
aVtruce
p519
aVpollution
p520
aVdrunken
p521
aVaugurs
p522
aVdistempering
p523
aVblusterer
p524
aVdallied
p525
aVcopious
p526
aVcourse
p527
aVtore
p528
aVlimbs
p529
aVderive
p530
aVsolace
p531
aVinfirmities
p532
aVnymph
p533
aVtorn
p534
aVtroubles
p535
aVsuspicion
p536
aVstol'n
p537
aVtroubled
p538
aVmodestly
p539
aVequipage
p540
aVthereby
p541
aVfore-betray'd
p542
aVbashful
p543
aVcourageously
p544
aVrecords
p545
aVcompelled
p546
aVcursed-blessed
p547
aVreckoning
p548
aVtwilight
p549
aVunfruitful
p550
aVcourt'sies
p551
aVveins
p552
aVwarrantize
p553
aVorphans
p554
aVturtle
p555
aV'can
p556
aVreceipt
p557
aV'fie
p558
aVeaseth
p559
aVreviveth
p560
aVgiddy
p561
aV'call
p562
aVabide
p563
aVboundless
p564
aVsuperiors
p565
aVworthiness
p566
aVsiege
p567
aVquite
p568
aVemulation
p569
aVbesides
p570
aV'awake
p571
aVworkmanship
p572
aVembassage
p573
aVdisguised
p574
aVwrong
p575
aVstrived
p576
aVimpure
p577
aVrecompense
p578
aVneglect
p579
aV'air
p580
aVunloose
p581
aVone
p582
aVhabitation
p583
aVopen
p584
aVaffords
p585
aVcity
p586
aVwrath
p587
aVwaist
p588
aVstrong-besieged
p589
aVco-supremes
p590
aVviolated
p591
aVlingering
p592
aVvapours
p593
aVblazon
p594
aVproving
p595
aVridiculous
p596
aVherds
p597
aVfavors
p598
aVfolly
p599
aVwandering
p600
aVdamned
p601
aVtasted
p602
aVargument
p603
aVfalchion
p604
aVsad
p605
aVsay
p606
aVburied
p607
aVlurking
p608
aVsap
p609
aVsaw
p610
aVsat
p611
aVnymphs
p612
aVaside
p613
aVnote
p614
aVintends
p615
aVtake
p616
aVdestroy
p617
aVopposite
p618
aVknew
p619
aVunkindness
p620
aVa-work
p621
aVstaineth
p622
aVstrucken
p623
aVknee
p624
aVpages
p625
aVlawn
p626
aVtrembles
p627
aVdrive
p628
aVways
p629
aVbade
p630
aVtouchd
p631
aVsalt
p632
aVburiest
p633
aVnew-born
p634
aVbright
p635
aVscarce
p636
aVimagined
p637
aVslander
p638
aVslow
p639
aVunkind
p640
aVrobs
p641
aVcloak
p642
aVotis
p643
aVtears
p644
aVgoing
p645
aVpressd
p646
aVoutrage
p647
aVrobe
p648
aVwilfully
p649
aVrobb
p650
aVhindmost
p651
aVguarded
p652
aVsweet-smelling
p653
aVfreezing
p654
aVprime
p655
aVborrow
p656
aVpriest
p657
aVlandlord
p658
aVwhere
p659
aVvision
p660
aVtemperance
p661
aVaudaciously
p662
aVespy
p663
aVexpiate
p664
aVbudding
p665
aVrages
p666
aVbrave
p667
aVcompounds
p668
aVavails
p669
aVenjoyd
p670
aVsable
p671
aVsatiety
p672
aVenjoys
p673
aVpresage
p674
aVuntainted
p675
aVforsake
p676
aVdecks
p677
aVreignd
p678
aVpreach
p679
aVawards
p680
aVmans
p681
aVhearsed
p682
aVmany
p683
aVgluttoning
p684
aVwilleth
p685
aVmane
p686
aVabominations
p687
aV'touch
p688
aVyearly
p689
aVboar
p690
aVboat
p691
aVcramps
p692
aVwest
p693
aVbraving
p694
aValmighty
p695
aVpractised
p696
aVcombined
p697
aVmotives
p698
aVwants
p699
aVthousand
p700
aVextant
p701
aVformer
p702
aVseal-manual
p703
aVprofane
p704
aVrarities
p705
aVdressd
p706
aVcure
p707
aVsituation
p708
aVendured
p709
aVdiscolour
p710
aVinfamies
p711
aVtransgressions
p712
aVbrow
p713
aVlimping
p714
aVblab
p715
aVfame
p716
aVshuts
p717
aVperpetually
p718
aVwires
p719
aVardea
p720
aVsickness
p721
aVdefy
p722
aVcheers
p723
aVextern
p724
aVplaints
p725
aVflocks
p726
aVvacant
p727
aV'lucrece
p728
aVeffects
p729
aVdistills
p730
aVsummer
p731
aVmanifold
p732
aVransoms
p733
aVbeing
p734
aVshamefully
p735
aVrest
p736
aVdisperse
p737
aVdistilld
p738
aVdeceiving
p739
aVgrounded
p740
aVinstrument
p741
aVoverthrow
p742
aVskies
p743
aVaspects
p744
aVsums
p745
aVdart
p746
aVdark
p747
aVtraffic
p748
aVworld
p749
aVsnare
p750
aVdare
p751
aVstranger
p752
aVclad
p753
aVwordless
p754
aVoffenders
p755
aVcrabbed
p756
aVdivine
p757
aVthinks
p758
aVbepainted
p759
aVnoon
p760
aVdeformedst
p761
aVseaman
p762
aVdimpled
p763
aVrevenged
p764
aVdestroys
p765
aVpower
p766
aVsprung
p767
aVforgetfulness
p768
aVstone
p769
aVunseasonable
p770
aVact
p771
aVdeviseth
p772
aVluck
p773
aVchivalry
p774
aVunpractised
p775
aVburning
p776
aVanothers
p777
aVimage
p778
aVprepares
p779
aVlively
p780
aVunwelcome
p781
aVwater-galls
p782
aVher
p783
aVbreathings
p784
aVbristles
p785
aVmissd
p786
aVbetrays
p787
aVwits
p788
aVinflaming
p789
aVland
p790
aVplucks
p791
aVshrill-tongued
p792
aVwith
p793
aVamplify
p794
aVabused
p795
aVswoln
p796
aVdarken
p797
aVrage
p798
aVall-hurting
p799
aVgreeteth
p800
aVimpute
p801
aVabuses
p802
aVagree
p803
aVrust
p804
aVgone
p805
aVfright
p806
aVah
p807
aVaccents
p808
aVforgot
p809
aVam
p810
aVan
p811
aVas
p812
aVensuing
p813
aVat
p814
aVworn-out
p815
aVay
p816
aVtremble
p817
aVgifts
p818
aVherbs
p819
aVhomely
p820
aVinfirmity
p821
aVtiger
p822
aVdisdained
p823
aVscuds
p824
aVtricks
p825
aVgroom
p826
aVmask
p827
aVdissentious
p828
aVdyed
p829
aVconsider
p830
aVbeware
p831
aVneigh
p832
aVimportune
p833
aVwelfare
p834
aVoaths
p835
aVhunting
p836
aVto
p837
aVtail
p838
aVth
p839
aVdressing
p840
aVsmile
p841
aVpaying
p842
aVbechance
p843
aVplaining
p844
aVsurprise
p845
aVswallowd
p846
aVstrand
p847
aVfeast-finding
p848
aVjoined
p849
aVlaud
p850
aVlarge
p851
aVmargents
p852
aVrenown
p853
aVsmall
p854
aVquicker
p855
aVpast
p856
aVburnish
p857
aVhonourable
p858
aVpass
p859
aVlechers
p860
aVdestitute
p861
aVcrests
p862
aV'say
p863
aVclock
p864
aVforestall
p865
aVpoisonous
p866
aVover-fly
p867
aVyourselfs
p868
aVprevailed
p869
aVgouty
p870
aVgouts
p871
aVnurse
p872
aVrevealing
p873
aVdwells
p874
aVsorteth
p875
aVfull
p876
aVthick-sighted
p877
aVhours
p878
aVhast
p879
aVstillitory
p880
aVexperience
p881
aVpick
p882
aVaction
p883
aVever-during
p884
aVmoulds
p885
aVsweetness
p886
aVstruggle
p887
aVdepart
p888
aVdolefull'st
p889
aVsend
p890
aVbeheld
p891
aVunthrift
p892
aVself-love
p893
aVcasket
p894
aVcherubins
p895
aVpearl
p896
aVgoeth
p897
aVmorn
p898
aVwavering
p899
aVmore
p900
aVteen
p901
aVdoor
p902
aVcave-keeping
p903
aVcompany
p904
aVforegone
p905
aVspoils
p906
aVlameness
p907
aVpursuers
p908
aVrudeness
p909
aVdoom
p910
aVcunning
p911
aVfleece
p912
aVpleasing
p913
aVlearn
p914
aVbeautiful
p915
aVprompt
p916
aVtereus
p917
aVneglected
p918
aVautumn
p919
aVsense
p920
aVconcordant
p921
aVscar
p922
aVdress
p923
aVcondemn
p924
aVhuge
p925
aVtorture
p926
aVglowing
p927
aVdugs
p928
aVcreature
p929
aVwiles
p930
aVholy-thoughted
p931
aVdisgraced
p932
aVmended
p933
aVwaves
p934
aVsemblance
p935
aVrefuse
p936
aVresemble
p937
aVregister
p938
aVprotestation
p939
aVreplied
p940
aV'daughter
p941
aVpaper
p942
aVbrim
p943
aVreplies
p944
aVsmiling
p945
aVroots
p946
aVsaucy
p947
aVmerchandized
p948
aVdeeds
p949
aVhounds
p950
aVblue-vein
p951
aVruining
p952
aVtyrants
p953
aVcide
p954
aVeye-balls
p955
aVmotley
p956
aV'among
p957
aVweeds
p958
aVmisuse
p959
aVshooteth
p960
aVresisteth
p961
aVlikeness
p962
aVhereafter
p963
aVfount
p964
aVtruths
p965
aVeloquence
p966
aVcourses
p967
aVfound
p968
aVyellowd
p969
aVbends
p970
aVbegrimed
p971
aVfoolish-witty
p972
aVnurseth
p973
aVdarling
p974
aVjestings
p975
aVdemure
p976
aVbelied
p977
aVcopesmate
p978
aVqualify
p979
aVmurmur
p980
aVimagine
p981
aVreproach
p982
aVowners
p983
aVattainted
p984
aVsicken
p985
aVtestament
p986
aVcastle
p987
aVgazed
p988
aVforwards
p989
aVwilder
p990
aVnumber
p991
aVfeeder
p992
aVgazer
p993
aVgazes
p994
aVnarcissus
p995
aVguess
p996
aVheads
p997
aVguest
p998
aVurchin-snouted
p999
aVthreatening
p1000
aVtransferrd
p1001
aVsaint
p1002
aVessays
p1003
aVjustly
p1004
aVyoungly
p1005
aVvantage
p1006
aVfastly
p1007
aVthronging
p1008
aVprogenitors
p1009
aVgrace
p1010
aVrememberd
p1011
aVdefends
p1012
aVdetermined
p1013
aVmarriage
p1014
aVfights
p1015
aVbeforehand
p1016
aVdefect
p1017
aVlivery
p1018
aVsell
p1019
aVseld
p1020
aVself
p1021
aVsilverd
p1022
aVope
p1023
aVfrail
p1024
aVlouring
p1025
aVseized
p1026
aVplay
p1027
aVswiftly
p1028
aVeffecting
p1029
aVtwine
p1030
aVplat
p1031
aVunused
p1032
aVceremony
p1033
aVblunting
p1034
aVsingled
p1035
aVwishd
p1036
aVseize
p1037
aVcovet
p1038
aVsometimes
p1039
aVcover
p1040
aVangry-chafing
p1041
aVreeleth
p1042
aVbarren
p1043
aVquittal
p1044
aVdespise
p1045
aVgold
p1046
aVvaded
p1047
aVhoisted
p1048
aVsession
p1049
aVviewest
p1050
aVwrapp
p1051
aVshouldst
p1052
aVwrites
p1053
aVunjustly
p1054
aVsorrowing
p1055
aVniggard
p1056
aVgratis
p1057
aVbeams
p1058
aVceasing
p1059
aVimpregnable
p1060
aVresent
p1061
aVremedy
p1062
aVcompass
p1063
aVbanner
p1064
aVdistraction
p1065
aVenemy
p1066
aVpleasures
p1067
aVcry
p1068
aVproclaim
p1069
aVcease
p1070
aVobscure
p1071
aVriver
p1072
aVstorming
p1073
aVset
p1074
aVjade
p1075
aVsex
p1076
aVamorously
p1077
aVsee
p1078
aVhoarsely
p1079
aVoutwardly
p1080
aVpresenteth
p1081
aVmaiden-tongued
p1082
aVoutward
p1083
aVknees
p1084
aVspirits
p1085
aVcloy
p1086
aVrite
p1087
aVmonsters
p1088
aVthrive
p1089
aVknowing
p1090
aVnimbly
p1091
aVunlived
p1092
aVdeath
p1093
aV'even
p1094
aVlast
p1095
aVthou
p1096
aVopal
p1097
aVdumbly
p1098
aVtimorous
p1099
aV'show
p1100
aVlet
p1101
aVwhole
p1102
aVload
p1103
aVpurified
p1104
aVmajesty
p1105
aVdrunk
p1106
aVloan
p1107
aVhollow
p1108
aVagents
p1109
aVfrosty
p1110
aVbrinish
p1111
aVbelt
p1112
aVworthless
p1113
aVdevil
p1114
aVfilth
p1115
aVacceptance
p1116
aVsatire
p1117
aVfirm
p1118
aVresting
p1119
aVchampion
p1120
aVfire
p1121
aVinfect
p1122
aVdully
p1123
aVawake
p1124
aVstruck
p1125
aVhandling
p1126
aVuncertain
p1127
aVhostess
p1128
aVcaged
p1129
aVstraight
p1130
aVlovest
p1131
aVadmire
p1132
aVconceit
p1133
aVerror
p1134
aVkissing
p1135
aVshrubs
p1136
aVowed
p1137
aVhoping
p1138
aVducks
p1139
aVvow
p1140
aVowes
p1141
aVchurl
p1142
aVvanish
p1143
aVchase
p1144
aV'for
p1145
aVservitors
p1146
aVleapd
p1147
aVsnail
p1148
aVlevell
p1149
aVviewing
p1150
aVleaps
p1151
aVclimb
p1152
aVearly
p1153
aVkilld
p1154
aVloathsome
p1155
aVpicks
p1156
aVperson
p1157
aVplagues
p1158
aVcabins
p1159
aVsalve
p1160
aVill-resounding
p1161
aVplagued
p1162
aVnight-wandering
p1163
aVunto
p1164
aVservilely
p1165
aVreap
p1166
aVeager
p1167
aVcrying
p1168
aVcouple
p1169
aVmickle
p1170
aVmischance
p1171
aVsuffering
p1172
aVquest
p1173
aVfortune
p1174
aVformal
p1175
aVgoverness
p1176
aVtushes
p1177
aVchorus
p1178
aVyields
p1179
aVbefall'n
p1180
aVtribes
p1181
aVdisorder
p1182
aVcanst
p1183
aVmethods
p1184
aVspring
p1185
aVsighs
p1186
aVpalm
p1187
aVsight
p1188
aVcurious
p1189
aVpale
p1190
aVmomentary
p1191
aVwresting
p1192
aVbenefit
p1193
aVreligion
p1194
aVbarrenly
p1195
aVbearst
p1196
aVtemple
p1197
aVinclination
p1198
aVbe
p1199
aVrequiem
p1200
aVobscures
p1201
aVnowhere
p1202
aVby
p1203
aVeyne
p1204
aVdeserved
p1205
aVwrinkles
p1206
aVdeserves
p1207
aVambush
p1208
aVwrinkled
p1209
aVrepair
p1210
aV'upon
p1211
aVinto
p1212
aVrecreate
p1213
aVspending
p1214
aVuntutor
p1215
aVchide
p1216
aVsuit
p1217
aVredoubled
p1218
aV:
aVopens
p1219
aVstrives
p1220
aVtragedies
p1221
aVjacks
p1222
aVgraciously
p1223
aVvowing
p1224
aVline
p1225
aVcharmed
p1226
aVimmured
p1227
aVup
p1228
aVus
p1229
aVmaturity
p1230
aVoblations
p1231
aVconsumed
p1232
aVlikewise
p1233
aVinfluence
p1234
aVchat
p1235
aVhail
p1236
aVtarquin
p1237
aVsunken
p1238
aVactors
p1239
aVtuff
p1240
aVscraps
p1241
aV'tween
p1242
aVelements
p1243
aVbesiege
p1244
aVfaintly
p1245
aVsides
p1246
aVdestinies
p1247
aVage
p1248
aVlank
p1249
aVfresh
p1250
aVsin-concealing
p1251
aVhaving
p1252
aVpartial
p1253
aVsaying
p1254
aVmelts
p1255
aVscratch
p1256
aVsoften
p1257
aVsofter
p1258
aVunmatched
p1259
aVamiss
p1260
aVagues
p1261
aVseemed
p1262
aVtrampling
p1263
aVglows
p1264
aVtime-beguiling
p1265
aVyoung
p1266
aV'pity
p1267
aVoutwards
p1268
aVsent
p1269
aVself-will
p1270
aV'now
p1271
aVpanting
p1272
aV'nor
p1273
aVwell-painted
p1274
aVscanted
p1275
aVwipe
p1276
aVtimely
p1277
aVfalse-speaking
p1278
aVtry
p1279
aVrace
p1280
aVrack
p1281
aVencloses
p1282
aVteachest
p1283
aVunprofitable
p1284
aVenclosed
p1285
aVodd
p1286
aVvictor
p1287
aVungrown
p1288
aVlove-lacking
p1289
aVwaning
p1290
aVhenceforth
p1291
aVproffer
p1292
aVbird
p1293
aVled
p1294
aVleg
p1295
aVpoverty
p1296
aVgreat
p1297
aVreceive
p1298
aVsurvey
p1299
aVdefeat
p1300
aVopinion
p1301
aVmakes
p1302
aVthats
p1303
aVsire
p1304
aVequals
p1305
aVneighs
p1306
aVdesiring
p1307
aVstanding
p1308
aVcheered
p1309
aVtheme
p1310
aVnext
p1311
aVdoubt
p1312
aVimmodestly
p1313
aVfeelingly
p1314
aVpensiveness
p1315
aVmidday
p1316
aVpencil
p1317
aVbabe
p1318
aVinfamy
p1319
aVheartily
p1320
aVsharply
p1321
aVgladly
p1322
aVcharity
p1323
aVballs
p1324
aVthis
p1325
aVchallenge
p1326
aVclients
p1327
aVpour
p1328
aVthin
p1329
aVfulfill
p1330
aVcherubin
p1331
aVscatter
p1332
aVweaker
p1333
aVbent
p1334
aVpawn
p1335
aVprocess
p1336
aVlock
p1337
aVreedy
p1338
aVhigh
p1339
aVbend
p1340
aVslip
p1341
aVpieced
p1342
aVpurposed
p1343
aVpaws
p1344
aVtrumpet
p1345
aV'alack
p1346
aVsee'st
p1347
aVmartyr
p1348
aVpaled
p1349
aVdelay
p1350
aVprocured
p1351
aVmightst
p1352
aVrough-grown
p1353
aVobeys
p1354
aVincaged
p1355
aVsingular
p1356
aVtied
p1357
aV'torches
p1358
aVfits
p1359
aVmarrow
p1360
aVhawk
p1361
aVor
p1362
aVwrit
p1363
aVallow
p1364
aVpyramids
p1365
aVcounted
p1366
aVthigh
p1367
aVmute
p1368
aVmove
p1369
aVdoubtful
p1370
aVperfect
p1371
aVrefusest
p1372
aVdecay
p1373
aVremorseless
p1374
aVshudder
p1375
aVputrified
p1376
aVthieves
p1377
aVstalled
p1378
aVphysicians
p1379
aVkiss
p1380
aVwhither
p1381
aVdelightful
p1382
aVtruth
p1383
aVscorch
p1384
aVglasses
p1385
aVdecayd
p1386
aVdoing
p1387
aVsociety
p1388
aVdecays
p1389
aVtenth
p1390
aVwander
p1391
aVwitness
p1392
aV'
aVaspiring
p1393
aVvenom
p1394
aVfrowns
p1395
aVperish
p1396
aVreaves
p1397
aVgreedy
p1398
aVgraze
p1399
aVtresses
p1400
aVtempt
p1401
aVshun
p1402
aVhasten
p1403
aV'when
p1404
aVspill
p1405
aVcould
p1406
aVscars
p1407
aVlength
p1408
aVhindering
p1409
aVblown
p1410
aVpines
p1411
aVpensived
p1412
aVscene
p1413
aVfeasts
p1414
aVsoothing
p1415
aVclepes
p1416
aVtakest
p1417
aVowner
p1418
aVblows
p1419
aVpined
p1420
aVordering
p1421
aVpainful
p1422
aVenforcement
p1423
aVdarest
p1424
aVsteel
p1425
aVbeseem
p1426
aVsteed
p1427
aVjollity
p1428
aVhillocks
p1429
aVsteep
p1430
aVvengeful
p1431
aVaccusing
p1432
aVfalse
p1433
aVshrinks
p1434
aVbeggar
p1435
aVabomination
p1436
aVgently
p1437
aVrefigured
p1438
aVgentle
p1439
aVo'erwhelming
p1440
aVpoisond
p1441
aVlinen
p1442
aVaprils
p1443
aVawed
p1444
aVdeath-boding
p1445
aVadjunct
p1446
aVwax-red
p1447
aVbabes
p1448
aVlily
p1449
aVcourtesy
p1450
aVcipher
p1451
aVdevice
p1452
aVbred
p1453
aVstronger
p1454
aVface
p1455
aVperceiving
p1456
aVwounded
p1457
aVpainting
p1458
aVnew-waxen
p1459
aVfact
p1460
aVrainbows
p1461
aV'over
p1462
aVbring
p1463
aVbrine
p1464
aVrough
p1465
aVpause
p1466
aVtransfix
p1467
aVjar
p1468
aVshould
p1469
aVseemeth
p1470
aVunhallow
p1471
aVwretchedness
p1472
aVhope
p1473
aVexchanged
p1474
aV'out
p1475
aVcranks
p1476
aVundivided
p1477
aVfamiliar
p1478
aVsummon
p1479
aVstuff
p1480
aVrein
p1481
aVwarrior
p1482
aVframe
p1483
aVunacted
p1484
aVlife-poisoning
p1485
aVdestiny
p1486
aVinsulting
p1487
aVthyself
p1488
aVdeep-sore
p1489
aVinjustice
p1490
aVwiry
p1491
aVends
p1492
aVstaring
p1493
aVfigured
p1494
aVdrum
p1495
aVdoteth
p1496
aVinvited
p1497
aVfigures
p1498
aVbrain-sick
p1499
aVconclude
p1500
aVincest
p1501
aVwhispering
p1502
aVsubdue
p1503
aVdazzling
p1504
aVwhate'er
p1505
aVfeather
p1506
aVwaste
p1507
aVdeflower
p1508
aVtyranny
p1509
aVadon
p1510
aVneighbour
p1511
aVresort
p1512
aVhateful
p1513
aVravens
p1514
aVbanish
p1515
aVwearied
p1516
aVsourly
p1517
aVloathed
p1518
aVcoals
p1519
aVmiddle
p1520
aVapparitions
p1521
aVgroin
p1522
aVsith
p1523
aVripe
p1524
aVlaundering
p1525
aVlascivious
p1526
aVlightst
p1527
aVtenor
p1528
aVsits
p1529
aVmover
p1530
aVgreater
p1531
aVleft'st
p1532
aVdenial
p1533
aVjennet
p1534
aVconcealing
p1535
aVbalm
p1536
aVbalk
p1537
aV'leave
p1538
aVdrink
p1539
aVupon
p1540
aVspenser
p1541
aVboding
p1542
aVdust
p1543
aVsing'st
p1544
aV'but
p1545
aVoff
p1546
aVa-billing
p1547
aVcolour
p1548
aVpatterns
p1549
aVcommand
p1550
aVoft
p1551
aVlest
p1552
aVnegligence
p1553
aVflesh
p1554
aVgulls
p1555
aVyears
p1556
aVgentlest
p1557
aVafflicted
p1558
aVweb
p1559
aVwed
p1560
aVlattice
p1561
aVcrack
p1562
aVpractise
p1563
aVgovernment
p1564
aVinundation
p1565
aVthrene
p1566
aVwhispers
p1567
aVfive
p1568
aVlightless
p1569
aVwoeful
p1570
aVmistrustful
p1571
aVimprison
p1572
aVbecome
p1573
aVsinewy
p1574
aVinconstant
p1575
aVconcave
p1576
aVsinews
p1577
aVthief
p1578
aVimmortal
p1579
aVdaylight
p1580
aVtransport
p1581
aVshone
p1582
aVpassion
p1583
aVdecembers
p1584
aV'miss
p1585
aVschedule
p1586
aVposterity
p1587
aVimaginary
p1588
aVcoldly
p1589
aVhiding
p1590
aVsister
p1591
aVdrumming
p1592
aVasks
p1593
aV'stand
p1594
aVcloud-eclipsed
p1595
aVseeds
p1596
aVhies
p1597
aVgainer
p1598
aVmaidens
p1599
aVencamp
p1600
aVletters
p1601
aVstrumpet
p1602
aVall-too-timeless
p1603
aVaskd
p1604
aVspots
p1605
aVwatchman
p1606
aVfunction
p1607
aVdeliverd
p1608
aV'woe
p1609
aVcount
p1610
aVevident
p1611
aVshrunk
p1612
aVsmooth
p1613
aVtriumphant
p1614
aVplaced
p1615
aVbooks
p1616
aVmonument
p1617
aVbearing
p1618
aV'many
p1619
aVrightly
p1620
aVoutburneth
p1621
aVdenote
p1622
aVhearers
p1623
aVink
p1624
aVendeared
p1625
aVnursed
p1626
aVplanting
p1627
aVcompared
p1628
aVdidst
p1629
aVdeadly
p1630
aVforests
p1631
aVslumbers
p1632
aVcompares
p1633
aVbehold
p1634
aVbeseechers
p1635
aVsunshine
p1636
aVoppression
p1637
aVmourner
p1638
aVchance
p1639
aVrepeal
p1640
aVveil
p1641
aVvein
p1642
aVghost
p1643
aVrule
p1644
aVsurplice
p1645
aVaetna
p1646
aVgardens
p1647
aVchild
p1648
aVmansion
p1649
aVsaved
p1650
aVeffectually
p1651
aVorpheus
p1652
aVdiverted
p1653
aVworth
p1654
aVfavours
p1655
aVamorous
p1656
aVdrone-like
p1657
aVreplication
p1658
aVmonth
p1659
aV'tereu
p1660
aVunrest
p1661
aV'fool
p1662
aVenrich'd
p1663
aVsneaped
p1664
aVquaking
p1665
aVtriumph
p1666
aVbubbling
p1667
aVhorn
p1668
aVoutstrippd
p1669
aVyieldings
p1670
aVrepetition
p1671
aV'dear
p1672
aVespied
p1673
aVabove
p1674
aVfeelst
p1675
aVmurther
p1676
aVtold
p1677
aVunask
p1678
aVsinks
p1679
aVrevels
p1680
aVusurps
p1681
aVrichest
p1682
aVpluto
p1683
aVpursuit
p1684
aVstuds
p1685
aVdaughter
p1686
aVstudy
p1687
aVfar-off
p1688
aVsmoke
p1689
aVappaid
p1690
aVdoleful
p1691
aVglittering
p1692
aVenvious
p1693
aVthrust
p1694
aVseizeth
p1695
aVglance
p1696
aVabsolution
p1697
aVplot
p1698
aVgloss
p1699
aVunadvised
p1700
aVabusing
p1701
aVplenitude
p1702
aVreign
p1703
aVpierced
p1704
aVcontinual
p1705
aVstriving
p1706
aVword
p1707
aVwore
p1708
aVerr
p1709
aVwork
p1710
aVeclipse
p1711
aVworm
p1712
aVworn
p1713
aVere
p1714
aVsouring
p1715
aVradiance
p1716
aVserpent
p1717
aVmid-day
p1718
aVcited
p1719
aVheartless
p1720
aVimpair
p1721
aVprovide
p1722
aVhemm
p1723
aVvassal
p1724
aVcures
p1725
aVfever
p1726
aVlad
p1727
aVcoined
p1728
aVafter
p1729
aVlay
p1730
aVsuing
p1731
aVlaw
p1732
aVarch
p1733
aVo'erflows
p1734
aVhasty
p1735
aVgreet
p1736
aVpurging
p1737
aVgreen
p1738
aVfan
p1739
aVwouldst
p1740
aVminded
p1741
aVmodesty
p1742
aVoffice
p1743
aVconsent
p1744
aVsatisfied
p1745
aVchamber-door
p1746
aVsupplicant
p1747
aV'were
p1748
aVbegot
p1749
aVvents
p1750
aVsavour
p1751
aVthen
p1752
aVthem
p1753
aVaffected
p1754
aVremission
p1755
aVthee
p1756
aVbreak
p1757
aVband
p1758
aVshameful
p1759
aVthey
p1760
aVyoungling
p1761
aVbank
p1762
aVrocky
p1763
aVslavery
p1764
aVrocks
p1765
aVvanishd
p1766
aVfeeds
p1767
aVentitled
p1768
aVobservance
p1769
aVjocund
p1770
aVcrimes
p1771
aVextincture
p1772
aVflock
p1773
aVslew
p1774
aVoerlook
p1775
aVfrownst
p1776
aVforty
p1777
aVblack'st
p1778
aVremorse
p1779
aVmedicine
p1780
aVmarigold
p1781
aVforth
p1782
aVmourning
p1783
aVadmits
p1784
aVfixd
p1785
aVshowst
p1786
aVwantonness
p1787
aVhard-favour
p1788
aVdelves
p1789
aVcreated
p1790
aVrenew
p1791
aVvulgar
p1792
aVrender
p1793
aVunicorn
p1794
aVanother
p1795
aVthick
p1796
aVbequest
p1797
aVimmodest
p1798
aVairy
p1799
aVhearst
p1800
aVdogs
p1801
aVrejected
p1802
aVwastes
p1803
aVsecrecies
p1804
aVwasted
p1805
aVmercy
p1806
aVguile
p1807
aVseated
p1808
aVglorifies
p1809
aVinvention
p1810
aVguilt
p1811
aViron
p1812
aVpowers
p1813
aVrespecting
p1814
aVenchanted
p1815
aVmanner
p1816
aVcontents
p1817
aVforced
p1818
aVstrength
p1819
aVannexd
p1820
aVladen
p1821
aVcomfort-killing
p1822
aVsubduing
p1823
aVknowst
p1824
aVsubjects
p1825
aVluxury
p1826
aVforces
p1827
aVpilgrimage
p1828
aVcircles
p1829
aVmaiden
p1830
aVsue
p1831
aVwhere'er
p1832
aVgrave
p1833
aVfoul-reeking
p1834
aVnostrils
p1835
aVaccounted
p1836
aVsun
p1837
aVoppress
p1838
aVfitted
p1839
aVreserve
p1840
aVenjoyer
p1841
aVsubtle
p1842
aVblotting
p1843
aVpeeping
p1844
aVsentence
p1845
aVdeepest
p1846
aVpursuing
p1847
aVdo
p1848
aVforsworn
p1849
aVforswore
p1850
aVleisure
p1851
aVunfair
p1852
aVgored
p1853
aVhaunted
p1854
aVcongealed
p1855
aVheadlong
p1856
aVslack
p1857
aVcleanly
p1858
aVruns
p1859
aVincreaseful
p1860
aVsteal
p1861
aVsteam
p1862
aVunprovident
p1863
aVfullness
p1864
aVobserved
p1865
aVdepends
p1866
aVcattle
p1867
aVdiscontents
p1868
aVdraws
p1869
aVaway
p1870
aVafloat
p1871
aVbier
p1872
aVdivination
p1873
aVchiding
p1874
aVtainted
p1875
aVdrawn
p1876
aVcaves
p1877
aVwe
p1878
aVterms
p1879
aVloves
p1880
aVtermd
p1881
aVdiest
p1882
aVfoes
p1883
aVcoy
p1884
aVill
p1885
aVbrag
p1886
aVreceives
p1887
aVexceeds
p1888
aVgroans
p1889
aVdisarmd
p1890
aVspear
p1891
aVseizure
p1892
aVanswerd
p1893
aV'since
p1894
aVheals
p1895
aVspeak
p1896
aVpetty
p1897
aVunhappily
p1898
aVshort-jointed
p1899
aVcondemned
p1900
aVpresagers
p1901
aVincertainty
p1902
aVthrice
p1903
aVduties
p1904
aVeasy
p1905
aVstifle
p1906
aVyou
p1907
aVdiminish'd
p1908
aVgracious
p1909
aVapplied
p1910
aVphysician
p1911
aVpossessd
p1912
aVespoused
p1913
aVair
p1914
aVaim
p1915
aVaid
p1916
aVvoice
p1917
aVmistake
p1918
aV'mongst
p1919
aVwell-skill
p1920
aVcrowning
p1921
aVsting
p1922
aVpenetrable
p1923
aVbrake
p1924
aVexile
p1925
aVwooing
p1926
aVconfirmed
p1927
aVpatent
p1928
aVbedchamber
p1929
aVmonarch
p1930
aVimperiously
p1931
aVwheel
p1932
aVtrustless
p1933
aVswell
p1934
aVrail
p1935
aVevil
p1936
aVhand
p1937
aVfaiths
p1938
aVblamed
p1939
aVkept
p1940
aVthy
p1941
aVsingleness
p1942
aVhumble
p1943
aVragged
p1944
aVclient
p1945
aVhumbly
p1946
aVthe
p1947
aVmingle
p1948
aVgods
p1949
aVrepose
p1950
aVcurious-good
p1951
aVthanks
p1952
aVswears
p1953
aVhallow
p1954
aVadding
p1955
aVhills
p1956
aVcompeers
p1957
aVhasting
p1958
aVuntutord
p1959
aVtyrannize
p1960
aValchemy
p1961
aVbelongs
p1962
aVchides
p1963
aVfares
p1964
aVbastards
p1965
aVbastardy
p1966
aVhairless
p1967
aV'few
p1968
aVdeep-drenched
p1969
aVnight
p1970
aVaugur
p1971
aVantique
p1972
aVdyers
p1973
aVflatter
p1974
aVodours
p1975
aVborn
p1976
aVbore
p1977
aVpurple
p1978
aVcomments
p1979
aVhonoured
p1980
aVarrest
p1981
aVdenied
p1982
aVbeating
p1983
aVpeel
p1984
aVpeer
p1985
aVflaws
p1986
aVpost
p1987
aVproperties
p1988
aVdamaskd
p1989
aVtheirs
p1990
aVcoral
p1991
aVmonths
p1992
aVbethinking
p1993
aVcherish
p1994
aVtreble
p1995
aVdigestion
p1996
aVmantle
p1997
aVwasting
p1998
aVpays
p1999
aVsparing
p2000
aVdelighted
p2001
aVpreposterously
p2002
aVlewd
p2003
aVstrangely
p2004
aVunrespected
p2005
aVfight
p2006
aVsilver-melting
p2007
aVway
p2008
aVwax
p2009
aVdewy
p2010
aVwat
p2011
aVwas
p2012
aVwar
p2013
aVseem'st
p2014
aVdiligence
p2015
aVbecoming
p2016
aVsundry
p2017
aVpriam
p2018
aVforgetful
p2019
aVursurper
p2020
aVastonished
p2021
aVtrue
p2022
aVabsent
p2023
aVdowry
p2024
aVcrows
p2025
aVcrystal
p2026
aVanew
p2027
aVbedrid
p2028
aVwaxen
p2029
aVdigression
p2030
aVhotter
p2031
aVexpressd
p2032
aVevidence
p2033
aVhowling
p2034
aVsubsist
p2035
aVpromised
p2036
aVprayer
p2037
aVdying
p2038
aVthriftless
p2039
aVshrine
p2040
aVadons
p2041
aVunwilling
p2042
aVwelcome
p2043
aVmightily
p2044
aVcastaway
p2045
aVpaces
p2046
aVtogether
p2047
aVbeds
p2048
aVebon
p2049
aVcheater
p2050
aVprecedent
p2051
aVglow-worms
p2052
aVsongs
p2053
aV'unless
p2054
aVdance
p2055
aV'grim-grinning
p2056
aVengrafted
p2057
aVbattle
p2058
aVscowling
p2059
aVgrape
p2060
aV'yea
p2061
aVflash
p2062
aV'yet
p2063
aVtusk
p2064
aVterror
p2065
aVpanteth
p2066
aVdivision
p2067
aVcongest
p2068
aVtrouble
p2069
aVblast
p2070
aVbrows
p2071
aVfeeble
p2072
aVo'ergrown
p2073
aVconsorted
p2074
aVpresented
p2075
aValtering
p2076
aVturns
p2077
aVgun
p2078
aVmiss'd
p2079
aVwoven
p2080
aVturnd
p2081
aVrevolution
p2082
aVcost
p2083
aVscarcity
p2084
aVforging
p2085
aVtreble-dated
p2086
aVhelpless
p2087
aVtempest
p2088
aV'though
p2089
aVcurse
p2090
aVappear
p2091
aVheaviness
p2092
aVassistance
p2093
aVcurst
p2094
aVoaks
p2095
aVappeal
p2096
aVsatisfy
p2097
aVdaunts
p2098
aVwhiteness
p2099
aVgorge
p2100
aVroaring
p2101
aVbirth-hour
p2102
aVappears
p2103
aVchange
p2104
aVnight-owl
p2105
aVflames
p2106
aVtrial
p2107
aVyoke
p2108
aVpillow
p2109
aVhomeward
p2110
aVosiers
p2111
aVlending
p2112
aVshaming
p2113
aVretires
p2114
aVprimrose
p2115
aVprove
p2116
aVcaptivate
p2117
aV'love
p2118
aVlive
p2119
aVcrushd
p2120
aVentrance
p2121
aVtowers
p2122
aVgatherd
p2123
aVcar
p2124
aVcap
p2125
aVcat
p2126
aVpurge
p2127
aVhardest
p2128
aVcan
p2129
aVdissembled
p2130
aVbreeds
p2131
aVspy
p2132
aVdedicated
p2133
aVhears
p2134
aVsaith
p2135
aVstoutly
p2136
aVarise
p2137
aVheard
p2138
aVfortunes
p2139
aVchin
p2140
aVpurity
p2141
aVslackly
p2142
aVchid
p2143
aVbankrupt
p2144
aVbonds
p2145
aVtrophies
p2146
aVwrite
p2147
aVflank
p2148
aVgaping
p2149
aVarmies
p2150
aVwrong'st
p2151
aVbawd
p2152
aVpeerless
p2153
aVcountermand
p2154
aVsinon
p2155
aV'in
p2156
aVflourish
p2157
aVremember
p2158
aVcandles
p2159
aVdishonoured
p2160
aVgavest
p2161
aVcrept
p2162
aVoffend
p2163
aVtormenteth
p2164
aVserving
p2165
aVreceivest
p2166
aVindeed
p2167
aVforfeit
p2168
aVbeak
p2169
aVconsulting
p2170
aVbewitching
p2171
aVbrain
p2172
aVcold
p2173
aVstill
p2174
aVbirds
p2175
aVtrifle
p2176
aVacknowledge
p2177
aVconquerors
p2178
aVcurls
p2179
aVforms
p2180
aVfounts
p2181
aVimmortality
p2182
aVspacious
p2183
aVdreadfully
p2184
aVcorrespondence
p2185
aVhalt
p2186
aVwound'st
p2187
aVflint
p2188
aVhalf
p2189
aVnot
p2190
aVnow
p2191
aVnor
p2192
aVenacted
p2193
aVwont
p2194
aVfumes
p2195
aVservant
p2196
aVdrop
p2197
aVencrimson
p2198
aVlamentations
p2199
aVunletterd
p2200
aVvexation
p2201
aVfired
p2202
aVfires
p2203
aVyear
p2204
aVhurries
p2205
aVhymns
p2206
aVtried
p2207
aVshown
p2208
aVaccomplish
p2209
aVspace
p2210
aVthirst
p2211
aVincrease
p2212
aVdishevell
p2213
aVoverlook
p2214
aVreceiving
p2215
aVshows
p2216
aVheart-wish
p2217
aVthong
p2218
aVrebel
p2219
aVcare
p2220
aV'her
p2221
aVkingdoms
p2222
aVhonest
p2223
aVseest
p2224
aVtangled
p2225
aVnew-sprung
p2226
aVoutcry
p2227
aVsupport
p2228
aVblind
p2229
aV'lie
p2230
aVsad-tuned
p2231
aVyourself
p2232
aVconsecrate
p2233
aVdirectly
p2234
aVring
p2235
aVtomorrow
p2236
aVsize
p2237
aVtrue-love
p2238
aVsheet
p2239
aVsilent
p2240
aVcaught
p2241
aVbreed
p2242
aVpurloin
p2243
aVtragic
p2244
aVfriend
p2245
aVpomp
p2246
aVthat
p2247
aVsores
p2248
aVflowers
p2249
aVthan
p2250
aVgrooms
p2251
aVangel
p2252
aVslay
p2253
aVcorrection
p2254
aVperfumes
p2255
aVanger
p2256
aVhigh-proud
p2257
aVsnout
p2258
aVbegin
p2259
aVprick
p2260
aVprice
p2261
aVsuccessive
p2262
aVcanopied
p2263
aVbrutus
p2264
aVspendst
p2265
aVtooth
p2266
aVsunset
p2267
aVslaves
p2268
aVdispersed
p2269
aVerred
p2270
aVengirt
p2271
aVblindness
p2272
aVground
p2273
aVpoor-rich
p2274
aVtitle
p2275
aVstained
p2276
aVproportion
p2277
aVonly
p2278
aVthreefold
p2279
aVinventions
p2280
aVstain
p2281
aVmalcontent
p2282
aVfroward
p2283
aV'nights
p2284
aVcannon
p2285
aVlimbecks
p2286
aVtruly
p2287
aVwhiles
p2288
aVhonours
p2289
aVseldom
p2290
aVbaits
p2291
aV'fair
p2292
aVentomb
p2293
aVhusband
p2294
aVmonarchs
p2295
aVfamine
p2296
aVasleep
p2297
aVflatly
p2298
aVsport
p2299
aVuntrimmd
p2300
aVcolourd
p2301
aV'without
p2302
aVsourest
p2303
aVcolours
p2304
aVcomplexion
p2305
aVbetween
p2306
aVimport
p2307
aVharshsounding
p2308
aVnotice
p2309
aVsapphire
p2310
aVdiscloses
p2311
aVpluck
p2312
aVblame
p2313
aVmoans
p2314
aVprofitless
p2315
aVnill
p2316
aVcomes
p2317
aVimpediments
p2318
aVover-handled
p2319
aVmadness
p2320
aVdispatch
p2321
aVwreaths
p2322
aVlearning
p2323
aVproved
p2324
aVolives
p2325
aVcares
p2326
aVdangers
p2327
aVinformer
p2328
aVstraying
p2329
aVwounds
p2330
aVgraff
p2331
aVexternal
p2332
aVfoggy
p2333
aVmasonry
p2334
aVcountless
p2335
aVthese
p2336
aVwinks
p2337
aVlate-embarked
p2338
aVdregs
p2339
aVforbear
p2340
aVsoil
p2341
aVcommander
p2342
aVbias
p2343
aVembrace
p2344
aVspleens
p2345
aVheels
p2346
aVcommanded
p2347
aVawhile
p2348
aVfiguring
p2349
aV'scapeth
p2350
aVstreams
p2351
aVnoble
p2352
aVfoam
p2353
aVfruit
p2354
aVswallow
p2355
aVenchanting
p2356
aVpurer
p2357
aVbondage
p2358
aVsevere
p2359
aVsuppliant
p2360
aVcharged
p2361
aVwreckd
p2362
aVvent
p2363
aVarmour
p2364
aVaccumulate
p2365
aVmadrigals
p2366
aVactor
p2367
aVtouch
p2368
aVspeed
p2369
aVmingling
p2370
aVthinking
p2371
aVsenseless
p2372
aVverse
p2373
aVmournful
p2374
aVreal
p2375
aVhover
p2376
aVfrown
p2377
aVread
p2378
aVoffence
p2379
aVbasest
p2380
aVearnest
p2381
aVlistening
p2382
aVlady
p2383
aVruled
p2384
aVexpress'd
p2385
aVeithers
p2386
aVmiracle
p2387
aVoblivion
p2388
aVbeguiled
p2389
aVt
aVdownward
p2390
aVfalsehood
p2391
aVverbal
p2392
aVservile
p2393
aV's
p2394
aVpassions
p2395
aVperverse
p2396
aVmangling
p2397
aVstrained
p2398
aVburthens
p2399
aVseducing
p2400
aVinnocence
p2401
aVassemble
p2402
aVthrow
p2403
aVconceald
p2404
aVpiety
p2405
aVjourney
p2406
aVwolf
p2407
aVbear'st
p2408
aVrolling
p2409
aVyour
p2410
aVgrates
p2411
aVprepare
p2412
aVremoving
p2413
aVstark
p2414
aVstart
p2415
aVstealth
p2416
aVamain
p2417
aVlow
p2418
aVlot
p2419
aVimmaculate
p2420
aVgroan
p2421
aVdraind
p2422
aVgrowst
p2423
aVdeceits
p2424
aVfraud
p2425
aVniggarding
p2426
aVself-same
p2427
aVsadness
p2428
aVintents
p2429
aVfalseness
p2430
aVwormwood
p2431
aVdescribe
p2432
aVmoved
p2433
aV'go
p2434
aVmoves
p2435
aVenfranchising
p2436
aVenglishman
p2437
aVthither
p2438
aVkey-cold
p2439
aVfools
p2440
aVpoor
p2441
aVperils
p2442
aVsuited
p2443
aVbuilding
p2444
aV'give
p2445
aVuntidy
p2446
aVrepay
p2447
aVembracing
p2448
aVbanishment
p2449
aVpointing
p2450
aVfamishd
p2451
aVfranticly
p2452
aVceased
p2453
aVbequeath
p2454
aVreligious
p2455
aVpreventst
p2456
aVdreadful
p2457
aVtear-stained
p2458
aVfountain
p2459
aVsubtleties
p2460
aVvery
p2461
aVvermilion
p2462
aVsecurely
p2463
aVheaven
p2464
aVceaseless
p2465
aVthrobbing
p2466
aVrelenting
p2467
aVfence
p2468
aVstreets
p2469
aVgyves
p2470
aVbefriends
p2471
aVconscience
p2472
aVdarkness
p2473
aVlearned
p2474
aVloose
p2475
aVanswers
p2476
aVout-stripping
p2477
aV'didst
p2478
aVexcess
p2479
aVdepend
p2480
aVstrong
p2481
aVcreeps
p2482
aVloseth
p2483
aVlosses
p2484
aVsealing
p2485
aVsimois
p2486
aVtenderer
p2487
aVimpiety
p2488
aVask
p2489
aVslavish
p2490
aVtoys
p2491
aVglobes
p2492
aVhapless
p2493
aVtaker
p2494
aVtakes
p2495
aVtrue-sweet
p2496
aVcontains
p2497
aVabstaining
p2498
aVgrapes
p2499
aVunback
p2500
aVtaken
p2501
aVinjury
p2502
aVunlearned
p2503
aVmarks
p2504
aVexcuse
p2505
aVbroke
p2506
aVmounted
p2507
aVboll'n
p2508
aVsuffered
p2509
aVlilys
p2510
aVlust
p2511
aVoffended
p2512
aVnine
p2513
aV'behold
p2514
aVhistory
p2515
aVvisage
p2516
aVlackd
p2517
aVphrase
p2518
aVfirmly
p2519
aVoratory
p2520
aVorators
p2521
aVcloying
p2522
aVransom
p2523
aVcircuit
p2524
aVrude
p2525
aVderived
p2526
aVtriumphs
p2527
aVtries
p2528
aVcomplexiond
p2529
aVinvasion
p2530
aVa
aVcorrupting
p2531
aVdread
p2532
aVcontrives
p2533
aVperjured
p2534
aVbanks
p2535
aVdream
p2536
aVvalour
p2537
aV'dost
p2538
aVhelp
p2539
aVdisplacest
p2540
aVsoon
p2541
aVheld
p2542
aVimpressest
p2543
aVta'en
p2544
aVcommitted
p2545
aVhell
p2546
aVfanning
p2547
aVlabours
p2548
aVteeming
p2549
aVfruitful
p2550
aVabsence
p2551
aVastonish
p2552
aVfool
p2553
aVpleads
p2554
aVfood
p2555
aVye
p2556
aVvomit
p2557
aVfoot
p2558
aVtowering
p2559
aVgaol
p2560
aVbless
p2561
aVstopped
p2562
aVblest
p2563
aVminstrels
p2564
aVfairy
p2565
aVheavy
p2566
aVrestless
p2567
aVjaws
p2568
aVdebaters
p2569
aVcrossd
p2570
aVbeyond
p2571
aVheave
p2572
aVevent
p2573
aVlimed
p2574
aVtrusty
p2575
aVwedlock
p2576
aVsince
p2577
aVpublish
p2578
aVsustain
p2579
aVsweetst
p2580
aVissue
p2581
aVsympathized
p2582
aVsharpst
p2583
aVreason
p2584
aVbase
p2585
aVdire
p2586
aVput
p2587
aVdistemperd
p2588
aVknow'st
p2589
aVbeggard
p2590
aVcheering
p2591
aVuncertainly
p2592
aVexpecting
p2593
aVdaisy
p2594
aVblush
p2595
aVassign
p2596
aVmerry
p2597
aVlong-experienced
p2598
aVtannd
p2599
aVantiquity
p2600
aVelder
p2601
aVmist
p2602
aVblow'st
p2603
aVutters
p2604
aVhorse
p2605
aVexclaiming
p2606
aVblossom
p2607
aVobedience
p2608
aVeddy
p2609
aVhundred
p2610
aVmerciless
p2611
aVaudit
p2612
aVselling
p2613
aVflatterd
p2614
aVflatters
p2615
aVbower
p2616
aVdissemble
p2617
aVauthors
p2618
aVflattery
p2619
aVgrew
p2620
aVkindly
p2621
aVlament
p2622
aVanticipate
p2623
aVgrey
p2624
aVshallowest
p2625
aVpremeditate
p2626
aVbattering
p2627
aVkindle
p2628
aVtoward
p2629
aVjuice
p2630
aVsubstantial
p2631
aVwrinkled-old
p2632
aVsensual
p2633
aVlie
p2634
aVtrance
p2635
aVflaming
p2636
aVswallowing
p2637
aVlabour
p2638
aVlip
p2639
aVuseless
p2640
aVunconstrained
p2641
aV'had
p2642
aVtowards
p2643
aVquoth
p2644
aVimpanneled
p2645
aVquote
p2646
aVeater
p2647
aVbreedeth
p2648
aVbridle
p2649
aVamazeth
p2650
aVchronicle
p2651
aVsturdy
p2652
aVbuilded
p2653
aVclear
p2654
aVunbred
p2655
aVsuccor
p2656
aVclean
p2657
aVconvertest
p2658
aVunwed
p2659
aVeisel
p2660
aVblend
p2661
aVhips
p2662
aV'ay
p2663
aV'at
p2664
aV'as
p2665
aVrhymers
p2666
aVregisters
p2667
aVheavens
p2668
aVbegets
p2669
aVsportive
p2670
aVnorthern
p2671
aVjustice
p2672
aVless
p2673
aVrudest
p2674
aVbeauteous
p2675
aVensconced
p2676
aVdescant'st
p2677
aVunswept
p2678
aVkind
p2679
aVtrees
p2680
aVfeels
p2681
aVwhateer
p2682
aV'come
p2683
aValteration
p2684
aVthrowing
p2685
aVplausibly
p2686
aVdescriptions
p2687
aVmediators
p2688
aVclose
p2689
aVhasteth
p2690
aVwot
p2691
aVwoo
p2692
aVwon
p2693
aVwoe
p2694
aVstalk
p2695
aVpictured
p2696
aVsleided
p2697
aVintending
p2698
aVpoorer
p2699
aVinvisible
p2700
aVdally
p2701
aV'gentle
p2702
aVboth
p2703
aVsecrets
p2704
aVadored
p2705
aVanon
p2706
aVforgotten
p2707
aVusest
p2708
aVliked
p2709
aVbattery
p2710
aVmanners
p2711
aVdespitefully
p2712
aVskips
p2713
aVliker
p2714
aVlikes
p2715
aVhabitude
p2716
aV'look
p2717
aVstamp
p2718
aVdamn
p2719
aVmutiny
p2720
aVdamm
p2721
aVblunter
p2722
aVempty
p2723
aVdame
p2724
aVlived
p2725
aVpartly
p2726
aV'twixt
p2727
aVwet
p2728
aVelse
p2729
aVlives
p2730
aVliver
p2731
aVbidding
p2732
aVwhetteth
p2733
aVutmost
p2734
aVlook
p2735
aVconspirator
p2736
aVinvocations
p2737
aVpace
p2738
aVwhile
p2739
aVguide
p2740
aVpack
p2741
aVcostly
p2742
aVstraggling
p2743
aVis't
p2744
aVconfound
p2745
aVready
p2746
aVfairer
p2747
aVgrant
p2748
aVbelong
p2749
aVmarrow-eating
p2750
aVshag
p2751
aVmadly
p2752
aVcomposition
p2753
aVconflict
p2754
aVcovetous
p2755
aVused
p2756
aVwanteth
p2757
aVtaught'st
p2758
aVdimm
p2759
aVarbitrators
p2760
aVuser
p2761
aVprickd
p2762
aVolder
p2763
aVgrind
p2764
aVcoffer-lids
p2765
aVpricks
p2766
aVclears
p2767
aVcedar
p2768
aVappalled
p2769
aVgrossly
p2770
aVfair'st
p2771
aVbottom-grass
p2772
aVbearer
p2773
aVjudgments
p2774
aVhither
p2775
aVwounding
p2776
aVwayward
p2777
aVcherries
p2778
aVquestioned
p2779
aVwakend
p2780
aVremaining
p2781
aVmarch
p2782
aVlacking
p2783
aVshowing
p2784
aVdearly
p2785
aVfoul-cankering
p2786
aVwings
p2787
aVoutright
p2788
aVinviting
p2789
aVstrife
p2790
aVlucretia
p2791
aVtranslated
p2792
aVdiapason
p2793
aVwrack
p2794
aVbrakes
p2795
aVwombs
p2796
aVlargeness
p2797
aVfathers
p2798
aVcreation
p2799
aVsome
p2800
aVlips
p2801
aVadmitted
p2802
aVsavage
p2803
aVreckon
p2804
aVconfounds
p2805
aVtereu
p2806
aVrun
p2807
aVstem
p2808
aVnerves
p2809
aVache
p2810
aVabroad
p2811
aVtroops
p2812
aVshine
p2813
aVfaith
p2814
aVaye
p2815
aVdisplay'd
p2816
aVsilence
p2817
aVseeing
p2818
aVwithin
p2819
aVdebateth
p2820
aVsmells
p2821
aVworshipper
p2822
aVbesieged
p2823
aVhimself
p2824
aV'alas
p2825
aVgoverns
p2826
aVhealthful
p2827
aVfrost
p2828
aValive
p2829
aVnewer
p2830
aVreek
p2831
aVwarlike
p2832
aVdull
p2833
aVbevel
p2834
aVheaven-hued
p2835
aVimmure
p2836
aVforesight
p2837
aVpolitic
p2838
aVwicked
p2839
aVvassalage
p2840
aVmindful
p2841
aVbrowny
p2842
aVchafes
p2843
aVsurmise
p2844
aVstrong-tempered
p2845
aVsullen
p2846
aVfears
p2847
aVbetakes
p2848
aVclamours
p2849
aVcontenting
p2850
aVnay
p2851
aVsmiles
p2852
aVdraw
p2853
aVprincely
p2854
aVresign
p2855
aVall-to
p2856
aVkirtle
p2857
aVsmiled
p2858
aVresolving
p2859
aVheats
p2860
aV'kill
p2861
aVberries
p2862
aVnuns
p2863
aVgo
p2864
aVruminate
p2865
aV'have
p2866
aVcompact
p2867
aVtincture
p2868
aVmargent
p2869
aVattired
p2870
aVfriendly
p2871
aVvirtuous
p2872
aVmurderous
p2873
aVwave
p2874
aVrebuked
p2875
aVtelling
p2876
aVyourselves
p2877
aV'how
p2878
aVkindled
p2879
aVmeant
p2880
aVgender
p2881
aVcompassionate
p2882
aVhive
p2883
aVverdict
p2884
aVprecurrer
p2885
aVcloister
p2886
aVbetwixt
p2887
aVdefiling
p2888
aVself-slaughter
p2889
aVsistering
p2890
aVwaking
p2891
aVjump
p2892
aVissueless
p2893
aVdecrees
p2894
aVsubornd
p2895
aVplays
p2896
aVcell
p2897
aVrotten
p2898
aVplayd
p2899
aVrotted
p2900
aV;
aVmelancholy
p2901
aVfollowing
p2902
aVscythe
p2903
aVconceited
p2904
aVripe-red
p2905
aVadulterate
p2906
aVpredecease
p2907
aVconvert
p2908
aVchant
p2909
aVoverseen
p2910
aVout-worn
p2911
aVrepel
p2912
aVnameless
p2913
aVdanger
p2914
aVwin
p2915
aVmanage
p2916
aVdrench'd
p2917
aVsinging
p2918
aVcloud
p2919
aVremains
p2920
aVfeeling-painful
p2921
aVweak-made
p2922
aVmix'd
p2923
aVmeans
p2924
aVstage
p2925
aVreflects
p2926
aVcheeks
p2927
aVpretty
p2928
aVbecomes
p2929
aVhied
p2930
aVimprisond
p2931
aVlooketh
p2932
aVcrosses
p2933
aVmeek
p2934
aVconsort
p2935
aVmeed
p2936
aVride
p2937
aVservants
p2938
aVdropp
p2939
aVmeet
p2940
aVdrops
p2941
aVdropt
p2942
aVvaunt
p2943
aVcontrol
p2944
aVushers
p2945
aVsought
p2946
aVdarkening
p2947
aVpoetry
p2948
aVfare
p2949
aVconquers
p2950
aVfouler
p2951
aVmiscalld
p2952
aVcanker
p2953
aVconquerd
p2954
aVcomprehends
p2955
aVconsecrated
p2956
aVlordly
p2957
aVprays
p2958
aVcraggy
p2959
aVfavourites
p2960
aVsightless
p2961
aVoffences
p2962
aVunstain
p2963
aVincluding
p2964
aVbrittle
p2965
aVbrood
p2966
aVscornfully
p2967
aVbrook
p2968
aVhousewife
p2969
aVhim
p2970
aVmountain-spring
p2971
aVsword
p2972
aVsweets
p2973
aVnight-waking
p2974
aVstout
p2975
aVhands
p2976
aVfront
p2977
aVblack-faced
p2978
aVslide
p2979
aVshaking
p2980
aVlegions
p2981
aVbeshrew
p2982
aVills
p2983
aVweepingly
p2984
aVdeath-worthy
p2985
aVsands
p2986
aVburden-wise
p2987
aVmeasure
p2988
aVspecial
p2989
aVgallant
p2990
aVmarigolds
p2991
aVentertainment
p2992
aVconfess
p2993
aVbeseech'd
p2994
aVcause
p2995
aVwithering
p2996
aVdarkly
p2997
aVattending
p2998
aVprincess
p2999
aVdetermining
p3000
aVkeep
p3001
aVcounterpart
p3002
aVkeen
p3003
aVself-trust
p3004
aVglories
p3005
aVpitied
p3006
aVpossessing
p3007
aVpowerful
p3008
aVforego
p3009
aVflows
p3010
aVquality
p3011
aVhateth
p3012
aVbears
p3013
aVembracements
p3014
aVforgery
p3015
aVdeclines
p3016
aVprouder
p3017
aVfairest
p3018
aVprone
p3019
aVslaketh
p3020
aVlists
p3021
aVgrowest
p3022
aVprefiguring
p3023
aVspites
p3024
aVsoundless
p3025
aVspurn
p3026
aVaught
p3027
aVgirdle
p3028
aVchurlish
p3029
aVbeg
p3030
aVbed
p3031
aVbee
p3032
aVclaim
p3033
aVtransgression
p3034
aVdumb
p3035
aVenforced
p3036
aVneer
p3037
aVvariable
p3038
aVneed
p3039
aVcloud-kissing
p3040
aVcleanly-coin
p3041
aVsings
p3042
aVbastard
p3043
aVable
p3044
aVcompacted
p3045
aVinstance
p3046
aVpursues
p3047
aVlectures
p3048
aVadieu
p3049
aVrigol
p3050
aVrigor
p3051
aVachilles
p3052
aVawe
p3053
aVexpired
p3054
aVwolves
p3055
aVspleen
p3056
aVurn
p3057
aVproceedings
p3058
aVelysium
p3059
aVpictures
p3060
aVconstrain
p3061
aVdeface
p3062
aVimpression
p3063
aVwilful
p3064
aVcouldst
p3065
aVpoesy
p3066
aVpassd
p3067
aVsoldiers
p3068
aVdwell'd
p3069
aVobsequious
p3070
aVdelivers
p3071
aVabettor
p3072
aVuntimely
p3073
aVtire
p3074
aVwreak
p3075
aVrash
p3076
aVhector
p3077
aVbaser
p3078
aVarabian
p3079
aVfuel
p3080
aVachieve
p3081
aVaccessary
p3082
aVdoubting
p3083
aValabaster
p3084
aVabundance
p3085
aVdurst
p3086
aVleases
p3087
aVendless
p3088
aVgray
p3089
aVplaces
p3090
aVgust
p3091
aVimperious
p3092
aVtuned
p3093
aVyellow
p3094
aVshe
p3095
aVdangerous
p3096
aVtunes
p3097
aVwidow
p3098
aVspotted
p3099
aVoutbraves
p3100
aVburying
p3101
aVpitch
p3102
aVorphan
p3103
aVobey'd
p3104
aVlegacy
p3105
aVdesperate
p3106
aVjoys
p3107
aVmissing
p3108
aVtend
p3109
aVwritten
p3110
aVbeautify
p3111
aVallotted
p3112
aVneither
p3113
aVbestow'd
p3114
aVtent
p3115
aVken
p3116
aVsole
p3117
aVwelkin
p3118
aVkey
p3119
aVprecious
p3120
aVhits
p3121
aVlimits
p3122
aVminds
p3123
aVstrains
p3124
aVadmit
p3125
aVlofty
p3126
aVdistinguish
p3127
aVkings
p3128
aValoes
p3129
aVquit
p3130
aVrenewest
p3131
aVaddition
p3132
aVwills
p3133
aVcowards
p3134
aVpoet
p3135
aVstealeth
p3136
aVwilld
p3137
aVglisters
p3138
aVsenses
p3139
aVcontrolled
p3140
aVleague
p3141
aVreleasing
p3142
aVmaim
p3143
aVsmoking
p3144
aVdebtor
p3145
aVnovel
p3146
aVharder
p3147
aVharden
p3148
aVriper
p3149
aVpleasance
p3150
aVdieted
p3151
aVclaps
p3152
aVlambs
p3153
aVvexd
p3154
aVbegan
p3155
aVroman
p3156
aVstrange
p3157
aVkingly
p3158
aVparty
p3159
aVhuntsman
p3160
aVeffect
p3161
aVnightly
p3162
aVto-night
p3163
aVfierce
p3164
aVsteals
p3165
aVscarcely
p3166
aVi
aVvariety
p3167
aVwell
p3168
aVamends
p3169
aVdrowns
p3170
aVrestore
p3171
aVdiscord
p3172
aVmistakes
p3173
aVdisputation
p3174
aVskill
p3175
aVmilch
p3176
aVashy-pale
p3177
aVskill-contending
p3178
aVwarrant
p3179
aVclouded
p3180
aVfate
p3181
aVdevised
p3182
aVsteeld
p3183
aVburden
p3184
aVloss
p3185
aVnecessary
p3186
aVlost
p3187
aVkill'd
p3188
aVlose
p3189
aVparching
p3190
aVindigest
p3191
aVlends
p3192
aVtherein
p3193
aVshed
p3194
aVhush
p3195
aVrepeat
p3196
aVhome
p3197
aVliking
p3198
aVproofs
p3199
aVbroad
p3200
aVcradle
p3201
aV'expected
p3202
aV?
aVhinder
p3203
aVchokes
p3204
aVhurls
p3205
aVpresentst
p3206
aVinstinct
p3207
aVchoked
p3208
aVstows
p3209
aVtempering
p3210
aVsways
p3211
aVdun
p3212
aVfreedom
p3213
aVcombustious
p3214
aVoversway'd
p3215
aVtongue
p3216
aVequally
p3217
aVcontending
p3218
aVattaint
p3219
aVtreads
p3220
aVadditions
p3221
aVforceless
p3222
aVrejoice
p3223
aVimpatience
p3224
aVposies
p3225
aVweeps
p3226
aVprophetic
p3227
aVsuggesteth
p3228
aVsoft-slow
p3229
aVagrees
p3230
aVfountains
p3231
aVgait
p3232
aVprophecies
p3233
aVgain
p3234
aVoverflow
p3235
aVear
p3236
aVeat
p3237
aVhe
p3238
aVstrengthend
p3239
aVleathern
p3240
aVgrieve
p3241
aVcarriage
p3242
aVconverted
p3243
aVlimit
p3244
aVdelights
p3245
aVpiece
p3246
aVdisplay
p3247
aVurging
p3248
aVoercharged
p3249
aVdevise
p3250
aVkisses
p3251
aValoof
p3252
aVbeats
p3253
aVpikes
p3254
aVkissed
p3255
aV'adieu
p3256
aVscowls
p3257
aVslaughterhouse
p3258
aVonwards
p3259
aVdisposing
p3260
aVstar
p3261
aVinsults
p3262
aVmethinks
p3263
aVfoil
p3264
aVfriends
p3265
aVpestilence
p3266
aVabhor
p3267
aVdetermination
p3268
aVindirectly
p3269
aVshunn
p3270
aVdeservest
p3271
aVpardon
p3272
aVdissolution
p3273
aVprotest
p3274
aVknell
p3275
aVtrodden
p3276
aVcaptain
p3277
aVunsheathed
p3278
aVwhose
p3279
aVswan
p3280
aVsweetest
p3281
aVbragg
p3282
aVpresents
p3283
aVteaching
p3284
aVsorry
p3285
aVsway
p3286
aVbetterd
p3287
aVinordinate
p3288
aVhadst
p3289
aVwarble
p3290
aVgovern
p3291
aV'all
p3292
aVvast
p3293
aVsimiles
p3294
aVcrops
p3295
aVgraced
p3296
aVopen'd
p3297
aVgraces
p3298
aVforce
p3299
aVparling
p3300
aVcold-pale
p3301
aVlikely
p3302
aVcauseless
p3303
aVquill
p3304
aVeven
p3305
aVtrapping
p3306
aVne'er
p3307
aVwreck
p3308
aVhatefully
p3309
aVunwholesome
p3310
aVsunder
p3311
aVmatcheth
p3312
aVnew
p3313
aVnet
p3314
aVever
p3315
aVeves
p3316
aVreviving
p3317
aVorbed
p3318
aVnever
p3319
aVdrew
p3320
aVmet
p3321
aVa-shaking
p3322
aVactive
p3323
aVdry
p3324
aVresty
p3325
aVrests
p3326
aVpiercing
p3327
aVcredit
p3328
aVpermit
p3329
aVfantastic
p3330
aVheedful
p3331
aVplea
p3332
aVguests
p3333
aVmortality
p3334
aVmaintain'd
p3335
aVarms
p3336
aVcall
p3337
aVcalm
p3338
aVsurvive
p3339
aVgilding
p3340
aVtype
p3341
aVtell
p3342
aVposting
p3343
aVlungs
p3344
aVwary
p3345
aVwars
p3346
aVherein
p3347
aVwarm
p3348
aVbewray
p3349
aVward
p3350
aVblindfold
p3351
aVshepherds
p3352
aVroom
p3353
aVrights
p3354
aVroof
p3355
aVguise
p3356
aVroot
p3357
aVunperfect
p3358
aVfresher
p3359
aVgive
p3360
aVlaughs
p3361
aVhoney
p3362
aVdegenerate
p3363
aVlaughd
p3364
aVwights
p3365
aVfaults
p3366
aVanswer
p3367
aVquenchless
p3368
aVconstrue
p3369
aVblanks
p3370
aVminority
p3371
aVreconciled
p3372
aVchorus-like
p3373
aVpurchase
p3374
aVphrygian
p3375
aVattempt
p3376
aVthird
p3377
aVstain'd
p3378
aV'gins
p3379
aVdefaced
p3380
aVmaintain
p3381
aVfrequent
p3382
aVdeterminate
p3383
aVhelens
p3384
aVdeck
p3385
aVensnare
p3386
aVpetitioners
p3387
aVtoads
p3388
aVfortify
p3389
aVghastly
p3390
aVvastly
p3391
aVflameth
p3392
aVbefore
p3393
aVpersonal
p3394
aV,
aVcrew
p3395
aVbetter
p3396
aVcarve
p3397
aVweeks
p3398
aVovercome
p3399
aVweakness
p3400
aVdowns
p3401
aVsceptre
p3402
aVglazed
p3403
aVdownright
p3404
aVrhetoric
p3405
aV'on
p3406
aVbrightness
p3407
aVmistrust
p3408
aVimpious
p3409
aVvictories
p3410
aVmead
p3411
aVmounts
p3412
aVwent
p3413
aVside
p3414
aVbone
p3415
aVbond
p3416
aVpity-pleading
p3417
aVtaught
p3418
aVstealing
p3419
aVaids
p3420
aVcontend
p3421
aVdecree
p3422
aVvelvet
p3423
aVtales
p3424
aVlurks
p3425
aVcontent
p3426
aVundeserved
p3427
aVrevolving
p3428
aVinstigate
p3429
aVturning
p3430
aVrevenge
p3431
aVbestow
p3432
aVrestrains
p3433
aVabate
p3434
aVmistress
p3435
aVdeemd
p3436
aVstarts
p3437
aVist
p3438
aVdeems
p3439
aVprodigal
p3440
aVarrived
p3441
aVawaketh
p3442
aVloud
p3443
aVpenury
p3444
aVenraged
p3445
aVwronged
p3446
aVthereon
p3447
aVthereof
p3448
aVbuttock
p3449
aVfeatured
p3450
aVwronger
p3451
aVcomforter
p3452
aVhoof
p3453
aVusurer
p3454
aVhawks
p3455
aVtwisted
p3456
aVdwell
p3457
aVbodys
p3458
aV'small
p3459
aVreprobate
p3460
aVmoisture
p3461
aVdigs
p3462
aVtravelld
p3463
aVhelen
p3464
aVswells
p3465
aVwanderst
p3466
aVpeculiar
p3467
aVbegins
p3468
aVdistance
p3469
aVravisher
p3470
aVbitterness
p3471
aVcite
p3472
aVmatter
p3473
aVsilly
p3474
aVmermaid
p3475
aVdeserving
p3476
aVknights
p3477
aVturrets
p3478
aVcheek
p3479
aVsees
p3480
aVquench
p3481
aVmodern
p3482
aVmind
p3483
aVmine
p3484
aVcommandement
p3485
aVbewailed
p3486
aVseen
p3487
aVseem
p3488
aVseek
p3489
aVtells
p3490
aVscapes
p3491
aVbold-faced
p3492
aVchest
p3493
aVconstrues
p3494
aVdares
p3495
aVby-past
p3496
aValarm
p3497
aVdog
p3498
aVbreathes
p3499
aVdoe
p3500
aVpoints
p3501
aVbreathed
p3502
aVconsumes
p3503
aVdoves
p3504
aVdiscontent
p3505
aVamending
p3506
aVhunger
p3507
aVretire
p3508
aVending
p3509
aVliberty
p3510
aVsneaking
p3511
aVexploits
p3512
aVacquit
p3513
aVunwitnessed
p3514
aVfolded
p3515
aVsugar
p3516
aVhoard
p3517
aVcompounded
p3518
aVrejoicing
p3519
aVconduct
p3520
aVstop
p3521
aVperceive
p3522
aVraiment
p3523
aVbootless
p3524
aVslanderous
p3525
aVsaturn
p3526
aVseemly
p3527
aVbat
p3528
aVbar
p3529
aVindenting
p3530
aVfields
p3531
aVthrusts
p3532
aVbay
p3533
aVbad
p3534
aVsoftly
p3535
aVtroop
p3536
aVyelping
p3537
aVban
p3538
aVlong-living
p3539
aVenchant
p3540
aVears
p3541
aVunworthy
p3542
aVimitate
p3543
aVprophesy
p3544
aVlook'st
p3545
aVallure
p3546
aVimposthumes
p3547
aVsubject
p3548
aVsaid
p3549
aVsail
p3550
aVpebbled
p3551
aVsorts
p3552
aVtamed
p3553
aVlazy
p3554
aVwears
p3555
aVvows
p3556
aVkindred
p3557
aVignorance
p3558
aVweary
p3559
aVvowd
p3560
aV'that
p3561
aV'and
p3562
aVgentry
p3563
aVsuggested
p3564
aVagainst
p3565
aVfalse-creeping
p3566
aVheight
p3567
aVunnoted
p3568
aVlowly
p3569
aVsprings
p3570
aVputs
p3571
aVthree
p3572
aVparticulars
p3573
aVrecketh
p3574
aVconjures
p3575
aVwell-proportion
p3576
aVinterest
p3577
aVlovely
p3578
aVidol
p3579
aVthrew
p3580
aVdeeper
p3581
aVsuppress
p3582
aVdismiss
p3583
aVfeedst
p3584
aVdecrepit
p3585
aVjewels
p3586
aV'lest
p3587
aVentombed
p3588
aVsly
p3589
aVugly
p3590
aVnear
p3591
aVmelted
p3592
aVsuppose
p3593
aVmurders
p3594
aVheart-easing
p3595
aVbreatheth
p3596
aVis
p3597
aVit
p3598
aVdefeated
p3599
aVshame
p3600
aVjest
p3601
aVin
p3602
aVmouse
p3603
aVif
p3604
aVgrown
p3605
aVcools
p3606
aVmake
p3607
aVbelly
p3608
aVhandmaids
p3609
aVunweaves
p3610
aVgrows
p3611
aVbells
p3612
aVmeets
p3613
aV'his
p3614
aVdelight
p3615
aVsupposing
p3616
aVjealous
p3617
aVopportunity
p3618
aVthoughts
p3619
aVweakly
p3620
aVchanges
p3621
aVinherit
p3622
aVdismal-dreaming
p3623
aVrome
p3624
aVqualities
p3625
aVclaims
p3626
aVyours
p3627
aVleft
p3628
aVjust
p3629
aVwasteful
p3630
aVyea
p3631
aVsporting
p3632
aVwiser
p3633
aVverdure
p3634
aVverses
p3635
aVhuman
p3636
aVyes
p3637
aVyet
p3638
aVcharacter
p3639
aVpotential
p3640
aVsave
p3641
aVbeholds
p3642
aVboasted
p3643
aVreviewest
p3644
aVauspicious
p3645
aVwanting
p3646
aVdreams
p3647
aVshoulder
p3648
aVdignity
p3649
aVswelleth
p3650
aVvilest
p3651
aVnotorious
p3652
aVdeaf
p3653
aVdead
p3654
aVdear
p3655
aVuproar
p3656
aVdazzleth
p3657
aVfix'd
p3658
aVdrudge
p3659
aVbold
p3660
aVburn
p3661
aVbreeder
p3662
aVforgetst
p3663
aVbury
p3664
aVwept
p3665
aV'it
p3666
aV'is
p3667
aVhaply
p3668
aVfrailer
p3669
aV'if
p3670
aVcommix
p3671
aVazure
p3672
aVcommit
p3673
aV'let
p3674
aVhotly
p3675
aVwhats
p3676
aVflatterer
p3677
aVdown
p3678
aVlies
p3679
aVrefined
p3680
aVsnorts
p3681
aVflying
p3682
aVjealousy
p3683
aVprodigies
p3684
aVcarcanet
p3685
aVfaring
p3686
aVform
p3687
aVgleam
p3688
aVfore
p3689
aVgarments
p3690
aVprettily
p3691
aVintermixd
p3692
aVfort
p3693
aVcontinuance
p3694
aVmouthed
p3695
aVlilies
p3696
aVbounds
p3697
aVengraft
p3698
aVdamps
p3699
aVsticks
p3700
aVtoss
p3701
aVwidowd
p3702
aVesteems
p3703
aVcovers
p3704
aVesteemd
p3705
aVwidows
p3706
aVmarking
p3707
aVexcel
p3708
aVhollo
p3709
aVcureless
p3710
aVpouted
p3711
aVdies
p3712
aVfelt
p3713
aVfell
p3714
aVdied
p3715
aVblushing
p3716
aVdaily
p3717
aVteeth
p3718
aVlaws
p3719
aVparcels
p3720
aVrestored
p3721
aVsouls
p3722
aVinvent
p3723
aVthemes
p3724
aVmild
p3725
aVskin
p3726
aVidolatry
p3727
aVabundant
p3728
aVmilk
p3729
aVretention
p3730
aVdeep-sweet
p3731
aVpraises
p3732
aVdeceitful
p3733
aVfancies
p3734
aVswoon
p3735
aVfather
p3736
aVamaze
p3737
aVpraised
p3738
aVsour-faced
p3739
aVchoir
p3740
aVsovereignty
p3741
aVshoot
p3742
aVstrumpeted
p3743
aVgreeing
p3744
aVstring
p3745
aVfoild
p3746
aVsappy
p3747
aVmerit
p3748
aVadvised
p3749
aVdim
p3750
aVnectar
p3751
aVdid
p3752
aVdie
p3753
aVdig
p3754
aVtravels
p3755
aVexcellence
p3756
aVround
p3757
aVfearing
p3758
aVseasoning
p3759
aVdealing
p3760
aVwherefore
p3761
aVeating
p3762
aVadds
p3763
aVlighteth
p3764
aVheres
p3765
aVunfinish
p3766
aVfavour
p3767
aVfillet
p3768
aVsuspect
p3769
aV'point'st
p3770
aVwail
p3771
aVclerk
p3772
aVappetites
p3773
aVdetest
p3774
aVdeceit
p3775
aVearthquake
p3776
aVwait
p3777
aVboy
p3778
aVshift
p3779
aVodour
p3780
aVbow
p3781
aVspheres
p3782
aVsuggestion
p3783
aV'disturb
p3784
aVpriceless
p3785
aVbruised
p3786
aVrecounting
p3787
aVrheumatic
p3788
aVmerely
p3789
aVwithal
p3790
aVplots
p3791
aVsurmount
p3792
aVsweating
p3793
aVwealth
p3794
aVsake
p3795
aVstoops
p3796
aVvisit
p3797
aVsharing
p3798
aVowest
p3799
aVlabyrinth
p3800
aVacceptable
p3801
aVrecreant
p3802
aVorator
p3803
aVfly
p3804
aVsoul
p3805
aVsour
p3806
aVgrowing
p3807
aVmaking
p3808
aVarrive
p3809
aVbites
p3810
aVdeceased
p3811
aVgrained
p3812
aVpredict
p3813
aVpawning
p3814
aVfamoused
p3815
aVgraceless
p3816
aVpine
p3817
aVtatterd
p3818
aVtill
p3819
aVpure
p3820
aVswore
p3821
aVpersuasion
p3822
aVsworn
p3823
aVpurl
p3824
aVmap
p3825
aVmar
p3826
aVmaw
p3827
aVmay
p3828
aVmad
p3829
aVgrow
p3830
aVman
p3831
aVneck
p3832
aVpurify
p3833
aV'to
p3834
aVtale
p3835
aVthorny
p3836
aVdeceive
p3837
aVthorns
p3838
aVtall
p3839
aVtalk
p3840
aVframing
p3841
aVshield
p3842
aVwishing
p3843
aVtarriance
p3844
aVshake
p3845
aVargued
p3846
aVthank
p3847
aVmaid
p3848
aVtillage
p3849
aVpolicy
p3850
aVours
p3851
aVmain
p3852
aVtruest
p3853
aVviews
p3854
aVsooner
p3855
aVpyrrhus
p3856
aVtouching
p3857
aVensue
p3858
aVpossess
p3859
aVhealeth
p3860
aVquake
p3861
aVcareless
p3862
aVrock
p3863
aVsurfeit
p3864
aVharken
p3865
aVrichly
p3866
aVunlock
p3867
aV'chaste
p3868
aVgirl
p3869
aVwhirlwinds
p3870
aVsnow-white
p3871
aVliving
p3872
aVimpurity
p3873
aVgreeks
p3874
aVcorrect
p3875
aVbrooks
p3876
aVspies
p3877
aVromans
p3878
aVajax
p3879
aVmusing
p3880
aVspied
p3881
aVorb
p3882
aVadvance
p3883
aVlanguage
p3884
aVgoest
p3885
aVcontented
p3886
aVthing
p3887
aVthine
p3888
aVsufferance
p3889
aVthink
p3890
aVwaited
p3891
aVfirst
p3892
aVdwelling
p3893
aVnativity
p3894
aVlong
p3895
aVcarry
p3896
aVsheathed
p3897
aVsounds
p3898
aVdischarged
p3899
aVinterchange
p3900
aVlittle
p3901
aVlap
p3902
aVslept
p3903
aVmischances
p3904
aVbare-boned
p3905
aVfiery
p3906
aVspeaking
p3907
aVgaudy
p3908
aVeyes
p3909
aVinterdict
p3910
aVeyed
p3911
aVheart-strings
p3912
aVfluxive
p3913
aVbeseige
p3914
aVwert
p3915
aVdolour
p3916
aVhard-believing
p3917
aVventure
p3918
aVwere
p3919
aVcommends
p3920
aVlullaby
p3921
aVvoices
p3922
aVdash
p3923
aVwinding
p3924
aVspectacle
p3925
aVanswering
p3926
aVpurest
p3927
aVwretch
p3928
aVhaste
p3929
aV'tarquin
p3930
aVchannel
p3931
aVpain
p3932
aVtallies
p3933
aVpaid
p3934
aVblackest
p3935
aVassault
p3936
aVsheets
p3937
aVtract
p3938
aVpair
p3939
aVmettle
p3940
aVentreats
p3941
aVwreathed
p3942
aVnapkin
p3943
aVfilld
p3944
aVundistinguish
p3945
aVshop
p3946
aVshot
p3947
aVshow
p3948
aVthreshold
p3949
aVcurled
p3950
aVstormy
p3951
aVplume
p3952
aVtreasure
p3953
aVstorms
p3954
aVbehind
p3955
aVblack
p3956
aVplump
p3957
aVget
p3958
aVwinters
p3959
aVred-rose
p3960
aVnearly
p3961
aVbeseech
p3962
aVharbinger
p3963
aVyield
p3964
aVmorning
p3965
aVmiles
p3966
aVnostril
p3967
aVravishment
p3968
aVhonesty
p3969
aVseas
p3970
aVsear
p3971
aVseat
p3972
aVseal
p3973
aVsalutation
p3974
aVwonder
p3975
aVsteadfast
p3976
aVornament
p3977
aVgage
p3978
aVenough
p3979
aVreading
p3980
aVacross
p3981
aVcountenance
p3982
aVdates
p3983
aVvaporous
p3984
aVblasts
p3985
aVdwellers
p3986
aVreigns
p3987
aVamong
p3988
aVunthrifts
p3989
aVunthrifty
p3990
aVuncouple
p3991
aVslain
p3992
aVstretched
p3993
aVdisliking
p3994
aVmare
p3995
aVintrude
p3996
aVtuning
p3997
aVrepine
p3998
aVmark
p3999
aVmars
p4000
aVspare
p4001
aVlustily
p4002
aVwake
p4003
aVdeceivest
p4004
aVthose
p4005
aVsound
p4006
aVgriping
p4007
aVslumber
p4008
aVcompile
p4009
aVwarning
p4010
aVcock
p4011
aVdebarrd
p4012
aVulysses
p4013
aVrubbing
p4014
aVstrait
p4015
aVpassing-bell
p4016
aVsleeping
p4017
aVrelieveth
p4018
aVsudden
p4019
aVraineth
p4020
aVdifferent
p4021
aVharsh
p4022
aVdoctor
p4023
aVbreathing-while
p4024
aVsame
p4025
aVdainties
p4026
aVspeech
p4027
aVarguments
p4028
aVstruggling
p4029
aVunperceived
p4030
aVoil
p4031
aV'then
p4032
aVassist
p4033
aV'they
p4034
aVrunning
p4035
aVbane
p4036
aVslanders
p4037
aVmortgaged
p4038
aVamazes
p4039
aVnight-wanderers
p4040
aVhues
p4041
aVrains
p4042
aVslanderd
p4043
aVsolve
p4044
aVamazed
p4045
aVgates
p4046
aVgaining
p4047
aVsuitor
p4048
aVfume
p4049
aVsights
p4050
aVimprint
p4051
aVaspect
p4052
aVexhaled
p4053
aVswooning
p4054
aVshapeless
p4055
aVimpeachd
p4056
aVmow
p4057
aVmot
p4058
aVsecrecy
p4059
aVgrim
p4060
aVmoe
p4061
aVacquainted
p4062
aVserves
p4063
aVlightning
p4064
aVchamber
p4065
aVaudience
p4066
aVeither
p4067
aVrobbery
p4068
aVserved
p4069
aVfulfil
p4070
aVafflict
p4071
aVwitchcraft
p4072
aVtitan
p4073
aVsentinel
p4074
aVimages
p4075
aVcollatium
p4076
aVgross
p4077
aVconfirm
p4078
aVpale-faced
p4079
aVfooting
p4080
aVforgoing
p4081
aVexpressing
p4082
aVknife
p4083
aVsensible
p4084
aVseconds
p4085
aVarts
p4086
aVbroken
p4087
aVpretended
p4088
aV'where
p4089
aVloveliness
p4090
aVisland
p4091
aVyouve
p4092
aVvictors
p4093
aVheart-poor
p4094
aVimitated
p4095
aVquietly
p4096
aVlands
p4097
aVwhiter
p4098
aVspreading
p4099
aVbountiful
p4100
aVblessed
p4101
aVstrifes
p4102
aVcranny
p4103
aVdreaming
p4104
aVkneels
p4105
aVblesses
p4106
aVwildfire
p4107
aVbreath
p4108
aVshelly
p4109
aVlions
p4110
aVbettering
p4111
aVpleased
p4112
aVstrikes
p4113
aVmeetness
p4114
aVgore
p4115
aVscorning
p4116
aVkinsman
p4117
aVinvised
p4118
aVaffection
p4119
aVpalate
p4120
aVdeer
p4121
aVdeep
p4122
aVgeneral
p4123
aVimagination
p4124
aVdeem
p4125
aVdeed
p4126
aVhound
p4127
aVfill
p4128
aVtedious
p4129
aVagain
p4130
aVretiring
p4131
aVrepent
p4132
aVdrouth
p4133
aVfield
p4134
aVhigh-pitch
p4135
aVfruitless
p4136
aVshelter
p4137
aVsequent
p4138
aVremote
p4139
aVwets
p4140
aV'fondling
p4141
aVhugely
p4142
aVresolution
p4143
aVunset
p4144
aVforget
p4145
aVvile
p4146
aVsuns
p4147
aVforbidden
p4148
aVworms
p4149
aVsunk
p4150
aVforged
p4151
aVsung
p4152
aVfellowship
p4153
aVdeath's-man
p4154
aVperfectst
p4155
aV'flint-hearted
p4156
aVcrimson
p4157
aVhideous
p4158
aVpuffs
p4159
aVoverplus
p4160
aVsitting
p4161
aVlain
p4162
aVfall
p4163
aVdifference
p4164
aVheedfully
p4165
aVvouchsafe
p4166
aVknighthood
p4167
aVmothers
p4168
aValms
p4169
aVmistaking
p4170
aVpolishd
p4171
aVoutwore
p4172
aVireful
p4173
aVmayest
p4174
aVtitles
p4175
aVperspective
p4176
aVfurther
p4177
aVaffable
p4178
aVchafing
p4179
aVdian
p4180
aVdial
p4181
aVdefence
p4182
aVstood
p4183
aVsweetly
p4184
aVobsequy
p4185
aVstoop
p4186
aVtribute
p4187
aVeverlasting
p4188
aVdoting
p4189
aVquenched
p4190
aVbasely
p4191
aVranged
p4192
aVvale
p4193
aVfalleth
p4194
aVthreads
p4195
aVpublisher
p4196
aVsearch
p4197
aVenmity
p4198
aVstelld
p4199
aVmisery
p4200
aVsteepy
p4201
aVbathe
p4202
aVclapping
p4203
aVemptied
p4204
aVunapproved
p4205
aVarmed
p4206
aVreadily
p4207
aVeye
p4208
aVwiped
p4209
aVtwo
p4210
aVcomparing
p4211
aVdrench
p4212
aVdiamond
p4213
aVsubtle-shining
p4214
aVheavy-hanging
p4215
aVcontrolling
p4216
aVvarying
p4217
aVleisures
p4218
aVnone
p4219
aVhour
p4220
aVstrain
p4221
aVrecall
p4222
aVdew
p4223
aVguards
p4224
aVremain
p4225
aVmarble
p4226
aVwails
p4227
aVcompare
p4228
aVshare
p4229
aV'arise
p4230
aVbate-breeding
p4231
aVnumbers
p4232
aVpurchased
p4233
aVsharp
p4234
aV!
aVsiren
p4235
aVneedy
p4236
aVcomfort
p4237
aVivy
p4238
aVsacred
p4239
aVstir
p4240
aVcharms
p4241
aVadvice
p4242
aVround-hoof
p4243
aVblood
p4244
aVcoming
p4245
aVcontraries
p4246
aVcoat
p4247
aVeats
p4248
aVbathed
p4249
aVcoal
p4250
aVskilful
p4251
aVpay
p4252
aVbathes
p4253
aVplaying
p4254
aVseparable
p4255
aVinfant
p4256
aVwinged
p4257
aVrifled
p4258
aVsuffer
p4259
aVstaind
p4260
aVpent
p4261
aVpens
p4262
aVforthwith
p4263
aVsheaved
p4264
aVbosom
p4265
aVlate
p4266
aVmightest
p4267
aVpenn
p4268
aVbereft
p4269
aVcrawls
p4270
aVnew-fall'n
p4271
aVgood
p4272
aVseeking
p4273
aVwalls
p4274
aVcompound
p4275
aVhome-bred
p4276
aVcomplain
p4277
aVeasily
p4278
aVholiest
p4279
aVashes
p4280
aVtoken
p4281
aVexiled
p4282
aVboisterous
p4283
aVnotes
p4284
aVglow'd
p4285
aVharm
p4286
aVdelicious
p4287
aVhouse
p4288
aVhare
p4289
aVhard
p4290
aVlove-sick
p4291
aVorient
p4292
aVlovers
p4293
aV'father
p4294
aVchildish
p4295
aV'more
p4296
aVprint
p4297
aVcaparisons
p4298
aVabridgement
p4299
aVcircumstance
p4300
aVcommits
p4301
aVuncheerful
p4302
aVpleasant
p4303
aVcuckoos
p4304
aVdisposition
p4305
aVsaddle-bow
p4306
aVbeginning
p4307
aVneeding
p4308
aVaudacity
p4309
aVnever-conquer
p4310
aVbreathers
p4311
aVdone
p4312
aVembraced
p4313
aVnew-kill
p4314
aVtwenty
p4315
aVslanderers
p4316
aVleast
p4317
aVhollows
p4318
aVpaint
p4319
aVlease
p4320
aVtravail
p4321
aVneedle
p4322
aVpark
p4323
aVpart
p4324
aVnoteth
p4325
aVbelieve
p4326
aVstirs
p4327
aVyouth
p4328
aVsubornation
p4329
aVcontrary
p4330
aVsupposed
p4331
aVtrifles
p4332
aVplead
p4333
aVages
p4334
aVilliterate
p4335
aVshowers
p4336
aVfilleth
p4337
aVaged
p4338
aVmurder'st
p4339
aVfading
p4340
aVmountain
p4341
aVbuilt
p4342
aVdepending
p4343
aVassails
p4344
aVcouch
p4345
aVonset
p4346
aVlifts
p4347
aVbe-tumbled
p4348
aVgriefs
p4349
aVassaild
p4350
aVchary
p4351
aVmost
p4352
aVcharm
p4353
aVservices
p4354
aVfeasting
p4355
aVcharitable
p4356
aVseething
p4357
aVweigh
p4358
aVpioner
p4359
aVfleet-wing
p4360
aVswelling
p4361
aVwailing
p4362
aVcurvets
p4363
aVfine
p4364
aVfind
p4365
aVdividing
p4366
aVruin
p4367
aVunhappy
p4368
aVidiots
p4369
aVtempests
p4370
aVdefiled
p4371
aVcredulous
p4372
aVgills
p4373
aVwarm'd
p4374
aVslandering
p4375
aVexpress
p4376
aVsepulchred
p4377
aVplayst
p4378
aVcourage
p4379
aVbatter
p4380
aVbreast
p4381
aVtheft
p4382
aVsepulchres
p4383
aVsilk
p4384
aVdoubled
p4385
aVcommon
p4386
aVdoubles
p4387
aVwrongfully
p4388
aVdevils
p4389
aVvine
p4390
aVlion
p4391
aVmanly
p4392
aVploughman
p4393
aVtender
p4394
aVplease
p4395
aVmountain-snow
p4396
aVsmallest
p4397
aVdead-killing
p4398
aVseeded
p4399
aVrenewd
p4400
aVcinders
p4401
aValterd
p4402
aVrenews
p4403
aVvanishing
p4404
aValters
p4405
aVwell-doing
p4406
aVpossesseth
p4407
aVafar
p4408
aVconsume
p4409
aVpoint
p4410
aVsimple
p4411
aVsmother
p4412
aVsimply
p4413
aVgnats
p4414
aVpatiently
p4415
aVraise
p4416
aVfrets
p4417
aVdevouring
p4418
aVdefeature
p4419
aVsecret
p4420
aVdropping
p4421
aVmeeting
p4422
aVslips
p4423
aVunlookd
p4424
aVgay
p4425
aVnoon-tide
p4426
aVdissension
p4427
aVgan
p4428
aVout-bragg
p4429
aVtrojan
p4430
aVlanguishd
p4431
aVaptness
p4432
aVrigour
p4433
aVsobs
p4434
aVeclipses
p4435
aVacquaintance
p4436
aVvaulty
p4437
aVitself
p4438
aVitaly
p4439
aVbristly
p4440
aVbutcher
p4441
aVwherein
p4442
aVdiscourse
p4443
aVruth
p4444
aVheraldry
p4445
aVpraising
p4446
aVresounds
p4447
aVsolicited
p4448
aVhusbands
p4449
aVmoment
p4450
aVpurpose
p4451
aVlucrece
p4452
aVtask
p4453
aVcraved
p4454
aVspent
p4455
aVmorrow
p4456
aVtoil
p4457
aVspend
p4458
aVshape
p4459
aVmadding
p4460
aVwagg
p4461
aVcut
p4462
aVcup
p4463
aVhated
p4464
aVcoal-black
p4465
aVbravery
p4466
aVreproof
p4467
aVhates
p4468
aVsilken
p4469
aVlivest
p4470
aVbig
p4471
aVbid
p4472
aVrondure
p4473
aVredeem
p4474
aVmessengers
p4475
aVextemporally
p4476
aVbit
p4477
aVsalutes
p4478
aVvapour
p4479
aVborrowd
p4480
aVblemish
p4481
aVfollows
p4482
aVglove
p4483
aVwit
p4484
aVfoolish
p4485
aVfollowd
p4486
aVvalleys
p4487
aVoften
p4488
aVsinketh
p4489
aVmartial
p4490
aVstrongest
p4491
aVexamples
p4492
aVornaments
p4493
aVmirror
p4494
aVnourishd
p4495
aVpronounced
p4496
aVscale
p4497
aVpelt
p4498
aVscalps
p4499
aVbalmy
p4500
aVpen
p4501
aVlark
p4502
aVpelf
p4503
aVaugmenting
p4504
aVnose
p4505
aVpatient
p4506
aVremembered
p4507
aVoer
p4508
aVclay
p4509
aVuse
p4510
aV'this
p4511
aVunlaced
p4512
aVtripping
p4513
aVgoods
p4514
aVtenants
p4515
aVmisplaced
p4516
aVcircled
p4517
aVframed
p4518
aVremembrance
p4519
aVlesson
p4520
aVsmiteth
p4521
aVconduits
p4522
aVinfected
p4523
aVwhereto
p4524
aVforward
p4525
aVtranslate
p4526
aVinvite
p4527
aVengrossd
p4528
aV'good
p4529
aVfrenzies
p4530
aVdelighting
p4531
aVhopes
p4532
aVdirected
p4533
aVclipp
p4534
aVsort
p4535
aVconstant
p4536
aV'mine
p4537
aVmetal
p4538
aVdeprive
p4539
aVscarlet
p4540
aVsingle
p4541
aVmightier
p4542
aVcurb
p4543
aVdispensation
p4544
aVsuspecteth
p4545
aVstar-gazers
p4546
aVexcuses
p4547
aVconfine
p4548
aVrarest
p4549
aVmixd
p4550
aVaccidental
p4551
aVspurns
p4552
aVantiquities
p4553
aVlent
p4554
aVfishes
p4555
aVfisher
p4556
aVbulwarks
p4557
aVdesert
p4558
aVsore
p4559
aVcredent
p4560
aVwards
p4561
aVadmiring
p4562
aVhighmost
p4563
aVcynthia
p4564
aVtombs
p4565
aVtombd
p4566
aVgraves
p4567
aVmarcheth
p4568
aVchaps
p4569
aVblaze
p4570
aVgraven
p4571
aVfatal
p4572
aVsaw'st
p4573
aVrandom
p4574
aVassay
p4575
aVpresently
p4576
aVlisteth
p4577
aVconfounding
p4578
aVrhyme
p4579
aVhoards
p4580
aVaccuse
p4581
aVchoppd
p4582
aViniquity
p4583
aVknight
p4584
aVlust-breathed
p4585
aVkinsmen
p4586
aVengirts
p4587
aVtransgressed
p4588
aVbleeding
p4589
aVcrow
p4590
aVquakes
p4591
aVoersnowd
p4592
aVcrop
p4593
aVrivers
p4594
aVnests
p4595
aVgiving
p4596
aVanthem
p4597
aVpipes
p4598
aVsurcease
p4599
aVpleading
p4600
aVbody
p4601
aVmisdeeds
p4602
aVbeasts
p4603
aVsins
p4604
aVjointly
p4605
aVunwood
p4606
aVnimble
p4607
aVobjects
p4608
aVsink
p4609
aVothers
p4610
aVdissuade
p4611
aVsing
p4612
aVextreme
p4613
aVstalks
p4614
aVcoped
p4615
aVtantalus
p4616
aVbefits
p4617
aVcavils
p4618
aVcomposed
p4619
aVprivate
p4620
aVuprear
p4621
aVdecrease
p4622
aVlimb
p4623
aVscandal
p4624
aVpatron
p4625
aVcopse
p4626
aVsmother'st
p4627
aVthemselves
p4628
aVdefendant
p4629
aVethiope
p4630
aVassailed
p4631
aVinsufficiency
p4632
aVashamed
p4633
aVdebtors
p4634
aVnobly
p4635
aVtearing
p4636
aVharvest
p4637
aVaccount
p4638
aVpraise
p4639
aVsmear
p4640
aVgrin
p4641
aVthralled
p4642
aVtrimmd
p4643
aVreserved
p4644
aVsalving
p4645
aVexclaims
p4646
aVbones
p4647
aVlamb
p4648
aVdaring
p4649
aVlame
p4650
aVholds
p4651
aVthrall
p4652
aVlamp
p4653
aVfurnace
p4654
aVstock
p4655
aVwatery
p4656
aVbuildings
p4657
aVaccorded
p4658
aVcancelld
p4659
aVyielded
p4660
aVphysic
p4661
aVlecher
p4662
aVchasing
p4663
aVbind
p4664
aVlines
p4665
aVtrembling
p4666
aVguilded
p4667
aVchief
p4668
aVdispraise
p4669
aVforeknowing
p4670
aVembers
p4671
aVrepentant
p4672
aVhorns
p4673
aVflattering
p4674
aVunswayd
p4675
aVwhereon
p4676
aVunstained
p4677
aVlo
p4678
aVwhereof
p4679
aVwilling
p4680
aVrevives
p4681
aVstonish
p4682
aVtickled
p4683
aVentombs
p4684
aVpangs
p4685
aVkindness
p4686
aVday
p4687
aVstrive
p4688
aVgazing
p4689
aVfeedeth
p4690
aVbeweep
p4691
aVextinguishing
p4692
aVplods
p4693
aVdefend
p4694
aVmate
p4695
aVmessenger
p4696
aVfondly
p4697
aVred
p4698
aVfrank
p4699
aVoverslipp
p4700
aVbleed
p4701
aVpack-horse
p4702
aVcured
p4703
aVrearward
p4704
aVdeprived
p4705
aVhes
p4706
aVabuse
p4707
aVmortal
p4708
aVgrieving
p4709
aVrudely
p4710
aVovershoot
p4711
aVtributes
p4712
aVsack
p4713
aVlagging
p4714
aVmoiety
p4715
aVancient
p4716
aVsadly
p4717
aVlapp
p4718
aVthwarting
p4719
aVchased
p4720
aVlamentable
p4721
aVrunnst
p4722
aVscant
p4723
aVcaterpillars
p4724
aVcabin
p4725
aVperforce
p4726
aVloved
p4727
aVtreatise
p4728
aVo'er
p4729
aVassays
p4730
aVlover
p4731
aVnuzzling
p4732
aVwakes
p4733
aVlabouring
p4734
aVcomfortable
p4735
aVtide
p4736
aVunlikely
p4737
aVhave
p4738
aVputst
p4739
aV'madam
p4740
aVventuring
p4741
aVsaucily
p4742
aVgravity
p4743
aVmix
p4744
aVprovoked
p4745
aVwreck-threatening
p4746
aVunless
p4747
aVpausing
p4748
aVprisoner
p4749
aVpayment
p4750
aVafresh
p4751
aVwherewith
p4752
aVgather
p4753
aVrequest
p4754
aVdisease
p4755
aVreproving
p4756
aVcytherea
p4757
aVoccasion
p4758
aVoutlive
p4759
aVphilomela
p4760
aVtext
p4761
aVunseen
p4762
aVloop-holes
p4763
aVcoucheth
p4764
aVtraitor
p4765
aVhell-born
p4766
aVknowledge
p4767
aVphilomel
p4768
aVcontrols
p4769
aVcontroll
p4770
aVoppressor
p4771
aVinferior
p4772
aVbeat
p4773
aVbear
p4774
aVperfection
p4775
aVswiftest
p4776
aVthrives
p4777
aVdefame
p4778
aVenclose
p4779
aVfixed
p4780
aVsluttish
p4781
aVuntrue
p4782
aVfarthest
p4783
aVpuddle
p4784
aVprotestings
p4785
aVgreece
p4786
aVtempts
p4787
aVimposition
p4788
aVpattern
p4789
aVprogress
p4790
aVsmilingly
p4791
aVsheep
p4792
aVsorrow
p4793
aVmonarchy
p4794
aVantics
p4795
aVcraves
p4796
aVexclaim
p4797
aVinstant
p4798
aVasunder
p4799
aVtaking
p4800
aVthence
p4801
aVequal
p4802
aVtrips
p4803
aVassure
p4804
aVdisdaineth
p4805
aVsexes
p4806
aVwringing
p4807
aVpassing
p4808
aVglorious
p4809
aVcomment
p4810
aVfester
p4811
aVmarjoram
p4812
aVstatues
p4813
aVunfold
p4814
aVjavelin
p4815
aVcommend
p4816
aVcelestial
p4817
aVlaugh
p4818
aVswimmer
p4819
aVinflict
p4820
aVgaze
p4821
aVattends
p4822
aVcertain
p4823
aVcurtain
p4824
aVwrings
p4825
aVdefine
p4826
aVperplexed
p4827
aVreceived
p4828
aVlate-sack
p4829
aVbulk
p4830
aVhear'st
p4831
aVfellow
p4832
aVplain
p4833
aVappearance
p4834
aVexcusing
p4835
aVlucretius
p4836
aVcarved
p4837
aValmost
p4838
aVwalks
p4839
aVpartner
p4840
aVbloodless
p4841
aVblooms
p4842
aVshames
p4843
aVarm'd
p4844
aVjudgment
p4845
aVshamed
p4846
aVthought
p4847
aVsets
p4848
aVarising
p4849
aVoppressd
p4850
aVstores
p4851
aVemerald
p4852
aVforbiddings
p4853
aVinterim
p4854
aVsurpass
p4855
aVsick-thoughted
p4856
aVonward
p4857
aVadd
p4858
aV'desire
p4859
aVcitizen
p4860
aVado
p4861
aVmatch
p4862
aVraven
p4863
aVresolved
p4864
aVtesty
p4865
aVnursest
p4866
aVlike
p4867
aVsuccess
p4868
aVsurety
p4869
aVheed
p4870
aVworks
p4871
aVsoft
p4872
aVdecease
p4873
aVinfusing
p4874
aVauthority
p4875
aVhair
p4876
aVeye-sore
p4877
aVconvey
p4878
aVoblivious
p4879
aVshrub
p4880
aVmasked
p4881
aVthinly
p4882
aVnoise
p4883
aVpollute
p4884
aVslight
p4885
aVhost
p4886
aVexpire
p4887
aValthough
p4888
aVworthy
p4889
aVworths
p4890
aVabout
p4891
aVimparteth
p4892
aVquills
p4893
aVdistilling
p4894
aVwithdrew
p4895
aVblessings
p4896
aVtomb
p4897
aVsmarts
p4898
aVchildrens
p4899
aVguard
p4900
aVesteem
p4901
aVfemale
p4902
aVquickly
p4903
aVgazeth
p4904
aVrushes
p4905
aVbees
p4906
aVmaze
p4907
aV'these
p4908
aVivory
p4909
aVbuy
p4910
aVbrand
p4911
aVbut
p4912
aVplague
p4913
aVanatomized
p4914
aVbud
p4915
aVpartially
p4916
aVmisty
p4917
aVwise
p4918
aVprinces
p4919
aVglory
p4920
aVwish
p4921
aVmists
p4922
aVsobbing
p4923
aVminutes
p4924
aVthorn
p4925
aVsupreme
p4926
aVdeaths
p4927
aVexceeded
p4928
aVsparks
p4929
aVproceeds
p4930
aVoak
p4931
aVdetain
p4932
aVcockatrice
p4933
aVprizing
p4934
aVvariation
p4935
aVlonging
p4936
aVcheque
p4937
aVgloriously
p4938
aVastronomy
p4939
aVentreat
p4940
aVpupil
p4941
aVyell
p4942
aVaccidents
p4943
aVcollatine
p4944
aVhath
p4945
aVsleep
p4946
aVappetite
p4947
aVevermore
p4948
aVhate
p4949
aVpoorly
p4950
aVfeeding
p4951
aVclasps
p4952
aVviolate
p4953
aVparis
p4954
aVstriking
p4955
aVwhatsoever
p4956
aVunder
p4957
aVdales
p4958
aVpride
p4959
aVlours
p4960
aVperceivest
p4961
aVwondrous
p4962
aVmerchant
p4963
aVlure
p4964
aVdispense
p4965
aVrise
p4966
aVlurk
p4967
aVbosoms
p4968
aVevery
p4969
aVweariness
p4970
aVharms
p4971
aVencounter
p4972
aVschool
p4973
aVsmoky
p4974
aVvenus
p4975
aVglued
p4976
aVenjoy
p4977
aVleaders
p4978
aVrazed
p4979
aVfeathers
p4980
aVunlook'd-for
p4981
aVdisciplined
p4982
aVpersuade
p4983
aVlourst
p4984
aVfeatherd
p4985
aVransack
p4986
aVshining
p4987
aVblue
p4988
aVbeated
p4989
aVhide
p4990
aVsolemn
p4991
aVbeaten
p4992
aVpoison
p4993
aVchildren
p4994
aVinsinuate
p4995
aVworser
p4996
aVblur
p4997
aVebbs
p4998
aVseeks
p4999
aV'she
p5000
aVbeck
p5001
aVpath
p5002
aVstares
p5003
aVproperty
p5004
aVravish
p5005
aVleaves
p5006
aVchanged
p5007
aVweakens
p5008
aVsettled
p5009
aVpunishment
p5010
aVswearing
p5011
aVstray
p5012
aVstraw
p5013
aVloveless
p5014
aVsorrows
p5015
aVpatience
p5016
aVwould
p5017
aVunderprop
p5018
aVtenderd
p5019
aVbreathe
p5020
aVensnared
p5021
aVmuse
p5022
aVgrief
p5023
aVbreaths
p5024
aVexcellent
p5025
aVrobbing
p5026
aVneedeth
p5027
aVmust
p5028
aVme
p5029
aVdaff
p5030
aVmyrtles
p5031
aVjoin
p5032
aVmy
p5033
aVbutcher-sire
p5034
aVfortress
p5035
aVshook
p5036
aVestate
p5037
aVplaits
p5038
aVtimes
p5039
aVobloquy
p5040
aVend
p5041
aVwriters
p5042
aVbow-back
p5043
aVgate
p5044
aVcharging
p5045
aVeyeballs
p5046
aVdialect
p5047
aVmoisten
p5048
aVmouths
p5049
aVfamish
p5050
aVinfold
p5051
aVquick-shifting
p5052
aVdeep-green
p5053
aVtold'st
p5054
aVvow'd
p5055
aVamid
p5056
aVenter
p5057
aValoud
p5058
aValack
p5059
aVlords
p5060
aVuntold
p5061
aVover
p5062
aVsickle
p5063
aVsickly
p5064
aVcrimeful
p5065
aVoven
p5066
aVstrangle
p5067
aVforehead
p5068
aVcomprehend
p5069
aVfade
p5070
aVrelenteth
p5071
aVblots
p5072
aVplaster
p5073
aVdiseased
p5074
aVfee-simple
p5075
aVglutton-like
p5076
aVshadows
p5077
aVsuppressd
p5078
aVherald
p5079
aVfilling
p5080
aVvictory
p5081
aVeach
p5082
aVwantonly
p5083
aVlasting
p5084
aVunapt
p5085
aVdians
p5086
aVtruant
p5087
aVdistincts
p5088
aVclothe
p5089
aVfevers
p5090
aVgod
p5091
aVsighing
p5092
aVaccurst
p5093
aVspringing
p5094
aVlaid
p5095
aVbanning
p5096
aVheavenly
p5097
aVgot
p5098
aVnewly
p5099
aVblames
p5100
aVcarcass
p5101
aVfadeth
p5102
aVhang
p5103
aVeternal
p5104
aVfree
p5105
aVwhereupon
p5106
aVrain
p5107
aVscoped
p5108
aVmastering
p5109
aVtrances
p5110
aVfret
p5111
aVdays
p5112
aV'gan
p5113
aVhopeless
p5114
aVaspire
p5115
aVruinate
p5116
aVrecite
p5117
aValready
p5118
aVvanisheth
p5119
aVencouraging
p5120
aVrank
p5121
aVhearing
p5122
aVfantasy
p5123
aVsober
p5124
aVappertainings
p5125
aVaidance
p5126
aVtoy
p5127
aVgalled
p5128
aVtop
p5129
aVkinder
p5130
aVtoo
p5131
aVwildly
p5132
aVcurtains
p5133
aVmurder
p5134
aVtool
p5135
aVserve
p5136
aVtook
p5137
aVincur
p5138
aVplantest
p5139
aVwardrobe
p5140
aVflame
p5141
aVmirth
p5142
aVbeard
p5143
aVfashion
p5144
aVran
p5145
aVram
p5146
aVraw
p5147
aVlaugher
p5148
aV-
aVsnow
p5149
aVthorough
p5150
aVhatch
p5151
aVcleft
p5152
aVcreatures
p5153
aVrider
p5154
aVinured
p5155
aVthough
p5156
aVexcelling
p5157
aVplenty
p5158
aVcommanding
p5159
aVwantons
p5160
aVparting
p5161
aVglow
p5162
aVconstancy
p5163
aVpeers
p5164
aVdouble-lock
p5165
aVflow
p5166
aVreputation
p5167
aVforsook
p5168
aVenterprise
p5169
aVdismay'd
p5170
aVchariot
p5171
aVbait
p5172
aValight
p5173
aVqueen
p5174
aVsage
p5175
aVmakest
p5176
aVearth
p5177
aVbail
p5178
aV'with
p5179
aVspite
p5180
aVpeasants
p5181
aVherself
p5182
aVdelays
p5183
aV'thou
p5184
aVdullness
p5185
aVdelayd
p5186
aVblenches
p5187
aVkindling
p5188
aVwatch
p5189
aVdespite
p5190
aVreport
p5191
aVknocks
p5192
aV'poor
p5193
aVexcell'd
p5194
aVruind
p5195
aVlicking
p5196
aVpublic
p5197
aVtwice
p5198
aVthriveth
p5199
aVruins
p5200
aVfarther
p5201
aVfragrant
p5202
aVpenance
p5203
aVhabit
p5204
aVrobbd
p5205
aVproclaims
p5206
aVnun
p5207
aVcorrupt
p5208
aVdisturbing
p5209
aVsharpend
p5210
aVtemptation
p5211
aVmud
p5212
aVfinger
p5213
aVvices
p5214
aVapproach
p5215
aVdiscovery
p5216
aVlanguishment
p5217
aVbargains
p5218
aVconfusion
p5219
aVweal
p5220
aVweak
p5221
aVdevour
p5222
aVwear
p5223
aVvadeth
p5224
aVnews
p5225
aVblasted
p5226
aVgoddess
p5227
aVfault
p5228
aVorts
p5229
aVfaces
p5230
aVexpense
p5231
aVcomely-distant
p5232
aVleadeth
p5233
aVtrust
p5234
aVdreadeth
p5235
aVexecutest
p5236
aVfaltering
p5237
aVbeen
p5238
aVcoasteth
p5239
aVspread
p5240
aVmean
p5241
aVfleeting
p5242
aVsprite
p5243
aVdrugs
p5244
aVspeeches
p5245
aVanchord
p5246
aVcraft
p5247
aVcatch
p5248
aVglides
p5249
aVlesser
p5250
aVtorment
p5251
aVuntuck
p5252
aVdescant
p5253
aVbestowest
p5254
aVlock'd-up
p5255
aVunsavoury
p5256
aVsuggest
p5257
aVwound
p5258
aVbeside
p5259
aVseveral
p5260
aVtapsters
p5261
aVlusty
p5262
aVcharacterd
p5263
aVimpleach'd
p5264
aVburnd
p5265
aV'scape
p5266
aVunyielding
p5267
aVportal
p5268
aVcharacters
p5269
aVworkings
p5270
aVcensures
p5271
aVocean
p5272
aVgreatest
p5273
aVincapable
p5274
aVmother
p5275
aValarms
p5276
aVhearts
p5277
aVrubies
p5278
aVproposed
p5279
aVworthier
p5280
aVenlighten
p5281
aVcoward-like
p5282
aVkeepst
p5283
aVdearer
p5284
aVpitiful
p5285
aVinterprets
p5286
aVhumanity
p5287
aVgave
p5288
aVbreaks
p5289
aVvulture
p5290
aVdismount
p5291
aVdescending
p5292
aVjudge
p5293
aVburns
p5294
aVburnt
p5295
aVmelting
p5296
aVappearing
p5297
aVmansions
p5298
aVgift
p5299
aVcontradict
p5300
aVhunt
p5301
aV'think
p5302
aVvestal
p5303
aVoffices
p5304
aVsplendor
p5305
aVcaitiff
p5306
aVhung
p5307
aVhot-burning
p5308
aVproudly
p5309
aVwork'st
p5310
aVosier
p5311
aVcompanions
p5312
aVintendments
p5313
aVeverything
p5314
aVditty
p5315
aVcrest-wounding
p5316
aVbehoof
p5317
aVdamask
p5318
aVbrawl
p5319
aVcorn
p5320
aVgildst
p5321
aVsober-sad
p5322
aVlamps
p5323
aVplum
p5324
aVbeldam
p5325
aVplunging
p5326
aVoutfacing
p5327
aVinveigh
p5328
aVwell-breath
p5329
aVwreckful
p5330
aVdials
p5331
aVpresence
p5332
aVcivil
p5333
aVobtaining
p5334
aVbath
p5335
aVuncleanness
p5336
aVrounds
p5337
aVearth-delving
p5338
aVvirgin
p5339
aVfought
p5340
aVpandion
p5341
aVnaught
p5342
aVhead
p5343
aVspongy
p5344
aVremover
p5345
aVheinous
p5346
aVheat
p5347
aVhear
p5348
aVremoved
p5349
aVcounsel
p5350
aValtars
p5351
aVsupp
p5352
aVbids
p5353
aVtwixt
p5354
aVadore
p5355
aVbide
p5356
aVlatch
p5357
aVadorn
p5358
aVtrim
p5359
aVfury
p5360
aVsinful
p5361
aVsometime
p5362
aVstrong-neck
p5363
aVshines
p5364
aVtrip
p5365
aVwillingly
p5366
aVfaithful
p5367
aVno
p5368
aVwhereas
p5369
aVtip
p5370
aVwhereat
p5371
aVvanquished
p5372
aVtis
p5373
aVtil
p5374
aVdespising
p5375
aVwhet
p5376
aVpapers
p5377
aVtie
p5378
aVeternity
p5379
aVpicture
p5380
aVphoenix
p5381
aVridges
p5382
aVdischarge
p5383
aVlonger
p5384
aVbullet
p5385
aVwithhold
p5386
aVfasten
p5387
aVbackward
p5388
aVforgeries
p5389
aVneighbors
p5390
aVyokes
p5391
aVrob
p5392
aVparticular
p5393
aVroe
p5394
aVlivelihood
p5395
aVleads
p5396
aVrot
p5397
aVdiscern
p5398
aVhammerd
p5399
aVpassage
p5400
aVcharge
p5401
aVfurrows
p5402
aVtown
p5403
aVadvantage
p5404
aVsours
p5405
aVcool
p5406
aVoftentimes
p5407
aVclouds
p5408
aVlevel
p5409
aVbrother
p5410
aVcloudy
p5411
aVquick
p5412
aVdries
p5413
aVsays
p5414
aVdried
p5415
aVdrinks
p5416
aVhymn
p5417
aVstately
p5418
aVunripe
p5419
aVcontracted
p5420
aV'shameful
p5421
aVgoes
p5422
aVhairy
p5423
aVprescriptions
p5424
aVhairs
p5425
aVenvy
p5426
aVwater
p5427
aVup-till
p5428
aVentertain
p5429
aVpearly
p5430
aVboast
p5431
aVexpressly
p5432
aVpearls
p5433
aVguilty
p5434
aVhearkens
p5435
aVdescended
p5436
aVhospitality
p5437
aVremaineth
p5438
aVhumour
p5439
aVtempteth
p5440
aVmulberries
p5441
aVnumberd
p5442
aVpeep
p5443
aVspill'd
p5444
aVswayst
p5445
aVbrighter
p5446
aVconfounded
p5447
aValarums
p5448
aVsports
p5449
aVwrongs
p5450
aVmeaner
p5451
aVbases
p5452
aVprey
p5453
aVfrothy
p5454
aVmemory
p5455
aVsmeared
p5456
aVdismay
p5457
aVriot
p5458
aVsessions
p5459
aValtar
p5460
aVaright
p5461
aVdrown
p5462
aVdismal
p5463
aVallayd
p5464
aVinhabit
p5465
aVsheds
p5466
aVunruly
p5467
aVbesmeard
p5468
aVaffectedly
p5469
aVcorrupted
p5470
aVstream
p5471
aVmisgoverning
p5472
aVcritic
p5473
aV'thrice-fairer
p5474
aVprovoke
p5475
aVchurls
p5476
aVrose-cheek
p5477
aVbegg
p5478
aVwatching
p5479
aVtwining
p5480
aVspeaks
p5481
aVbegs
p5482
aVimpartial
p5483
aVneeds
p5484
aVsluggard
p5485
aVbranches
p5486
aVliquid
p5487
aVjoint
p5488
aVunskilful
p5489
aVgorged
p5490
aVfull-fed
p5491
aVacts
p5492
aVheaved-up
p5493
aVmidnight
p5494
aVfangs
p5495
aVworship
p5496
aVdreading
p5497
aVspur
p5498
aVoffers
p5499
aVdimmd
p5500
aVbound
p5501
aVunderneath
p5502
aVqualified
p5503
aVconquer
p5504
aVlustful
p5505
aVuncontrolled
p5506
aVill-nurtured
p5507
aVterm
p5508
aVname
p5509
aVdebating
p5510
aVoertake
p5511
aVreckond
p5512
aVtorch
p5513
aVcatching
p5514
aVfarewell
p5515
aVbegun
p5516
aVmyrtle
p5517
aVexclamation
p5518
aVprofit
p5519
aVcancell
p5520
aVstell
p5521
aVgrecian
p5522
aVgush
p5523
aVeagle
p5524
aVattended
p5525
aVcontain
p5526
aVnotary
p5527
aV'who
p5528
aVblotted
p5529
aVkneel
p5530
aVmotion
p5531
aVgusts
p5532
aVplace
p5533
aVswine
p5534
aV'why
p5535
aVview
p5536
aVweakling
p5537
aVorigin
p5538
aVfeign
p5539
aVfetched
p5540
aVsurviving
p5541
aVmilliond
p5542
aVfaculty
p5543
aVsovereign
p5544
aVarray
p5545
aVmillions
p5546
aVgiven
p5547
aVreturnd
p5548
aVstuck
p5549
aVprayers
p5550
aVgrant'st
p5551
aVcooling
p5552
aVchastity
p5553
aVbounty
p5554
aVwhite
p5555
aVgives
p5556
aVhue
p5557
aVspright
p5558
aVcope
p5559
aVseason
p5560
aValas
p5561
aVgirded
p5562
aVfoul-defiled
p5563
aVcopy
p5564
aVwide
p5565
aVbewitch
p5566
aVunfortunately
p5567
aVrequire
p5568
aVoath
p5569
aVruby-colour
p5570
aVand
p5571
aVmated
p5572
aVfroth
p5573
aVstay'st
p5574
aVrent
p5575
aVsells
p5576
aVpry
p5577
aVany
p5578
aV'what
p5579
aVmourners
p5580
aVresembling
p5581
aVforbod
p5582
aVstrengths
p5583
aVblunt
p5584
aVurge
p5585
aVsure
p5586
aVclearer
p5587
aVfalls
p5588
aVpleasure
p5589
aVproud
p5590
aVunwisely
p5591
aVhungry
p5592
aVbeaded
p5593
aVglutton
p5594
aVpencill
p5595
aVshrieking
p5596
aVforage
p5597
aVcheap
p5598
aVbreaketh
p5599
aVdirge
p5600
aVtrespass
p5601
aVtroy
p5602
aVenfeebled
p5603
aVwoos
p5604
aVgulf
p5605
aVariseth
p5606
aVstate
p5607
aVcrime
p5608
aVstains
p5609
aVfickle
p5610
aVwood
p5611
aVbelieving
p5612
aVpartake
p5613
aVdeign
p5614
aVlighted
p5615
aVmocking-birds
p5616
aVadmiration
p5617
aVdye
p5618
aVhedge
p5619
aVclosure
p5620
aVworkman
p5621
aVfainted
p5622
aVnaked
p5623
aVmuster
p5624
aVembassy
p5625
aVthrough
p5626
aVpants
p5627
aVbeholding
p5628
aV'holla
p5629
aVphraseless
p5630
aVsigns
p5631
aVapologies
p5632
aVinvoked
p5633
aVoverruled
p5634
aVcrooked
p5635
aVreview
p5636
aVamen
p5637
aVweapons
p5638
aVgainst
p5639
aVdepartest
p5640
aVhiss
p5641
aVshivered
p5642
aVneedst
p5643
aVgrieves
p5644
aVcome
p5645
aVgrieved
p5646
aVmustering
p5647
aVregion
p5648
aVquiet
p5649
aVberry
p5650
aVwittily
p5651
aVduty
p5652
aVafterwards
p5653
aVperiod
p5654
aVsatisfaction
p5655
aVreworded
p5656
aVlifes
p5657
aVattendeth
p5658
aVsubscribes
p5659
aVpeaceful
p5660
aVengine
p5661
aVdirection
p5662
aVblessing
p5663
aVmaund
p5664
aVminister
p5665
aVcareful
p5666
aVspirit
p5667
aVpilot
p5668
aVcase
p5669
aVmyself
p5670
aVfiends
p5671
aVamend
p5672
aVsheaves
p5673
aVmount
p5674
aVrhymes
p5675
aVgazers
p5676
aVcast
p5677
aVshrieks
p5678
aVnumbs
p5679
aVcontrive
p5680
aVconverts
p5681
aVunsounded
p5682
aVauthor
p5683
aVgranted
p5684
aVinjurious
p5685
aVshifts
p5686
aVbows
p5687
aVbuys
p5688
aVheartens
p5689
aVevents
p5690
aVweek
p5691
aVsang
p5692
aVtyrannous
p5693
aVnest
p5694
aVdrives
p5695
aVmuffled
p5696
aVweed
p5697
aVdriven
p5698
aVfowls
p5699
aVlute
p5700
aVstatue
p5701
aVchanging
p5702
aVweep
p5703
aV'do
p5704
aVrelier
p5705
aVthreaden
p5706
aVcommission
p5707
aVwithout
p5708
aVrelief
p5709
aVfleet-foot
p5710
aVbodies
p5711
aVjustify
p5712
aVwhen
p5713
aVbareness
p5714
aVviolent
p5715
aVkill
p5716
aVguides
p5717
aVblow
p5718
aVblot
p5719
aVwomans
p5720
aVrose
p5721
aVseems
p5722
aVexcept
p5723
aVlets
p5724
aVfalsely
p5725
aVrosy
p5726
aVhind
p5727
aVseemd
p5728
aVkingdom
p5729
aVholding
p5730
aVkills
p5731
aVsoundly
p5732
aVworm-holes
p5733
aVschedules
p5734
aVconfined
p5735
aVunshorn
p5736
aVraging-mad
p5737
aValways
p5738
aVtower
p5739
aVtable
p5740
aVcourser
p5741
aVmood
p5742
aVstopt
p5743
aVstopp
p5744
aVstops
p5745
aVmoon
p5746
aVbateless
p5747
aVself-loving
p5748
aVfreed
p5749
aVguiltless
p5750
aVnails
p5751
aVunmask
p5752
aVslaughter
p5753
aVloudest
p5754
aV'wander
p5755
aVexcelleth
p5756
aVtread
p5757
aV'the
p5758
aVon
p5759
aVsubdued
p5760
aVzealous
p5761
aVof
p5762
aVchoirs
p5763
aVwhence
p5764
aVstand
p5765
aVscornful
p5766
aVtributary
p5767
aV'thy
p5768
aVperused
p5769
aVamber
p5770
aVladies
p5771
aVadders
p5772
aVcarry-tale
p5773
aVcursed
p5774
aVrising
p5775
aVbuds
p5776
aVthere
p5777
aVdisposed
p5778
aVstrict
p5779
aVfairing
p5780
aVvalley
p5781
aVforbade
p5782
aVmischief
p5783
aVregard
p5784
aVbetoken
p5785
aVcabinet
p5786
aVheaveth
p5787
aVstay'd
p5788
aVrouse
p5789
aVfaster
p5790
aVapplying
p5791
aVpreys
p5792
aV'shall
p5793
aVhallowd
p5794
aVgrass
p5795
aVcreeping
p5796
aVstrongly
p5797
aVruffian
p5798
aVfrighted
p5799
aVsurly
p5800
aVwretches
p5801
aVtaste
p5802
aVorchards
p5803
aVencompass
p5804
aVspends
p5805
aVset'st
p5806
aVpineth
p5807
aVdeserve
p5808
aVswords
p5809
aVloyal
p5810
aV'some
p5811
aVroses
p5812
aVabysm
p5813
aVwinking
p5814
aVprovokest
p5815
aVdishonour
p5816
aVflower
p5817
aVunbent
p5818
aVbrass
p5819
aVcalls
p5820
aVwife
p5821
aVplatted
p5822
aVcalld
p5823
aVtreason
p5824
aVapparel
p5825
aVamazedly
p5826
aVall
p5827
aVlace
p5828
aVlack
p5829
aVswerving
p5830
aVseals
p5831
aV'gainst
p5832
aVseald
p5833
aVfollow
p5834
aVmeditation
p5835
aVwanton
p5836
aVhomage
p5837
aVassuage
p5838
aVsparkling
p5839
aVrevengeful
p5840
aVpainter
p5841
aVcrest
p5842
aVwoman
p5843
aVworse
p5844
aVsong
p5845
aVfar
p5846
aVdisjoin
p5847
aVfat
p5848
aVoblation
p5849
aVsons
p5850
aVworst
p5851
aVcozening
p5852
aVhems
p5853
aVannexions
p5854
aVlist
p5855
aVafeard
p5856
aVtrench
p5857
aVwilt
p5858
aVundone
p5859
aVa-turning
p5860
aVdexterity
p5861
aVten
p5862
aVbreakers
p5863
aVrate
p5864
aVstewards
p5865
aVdesign
p5866
aVsendst
p5867
aVbemoaned
p5868
aVaptly
p5869
aVwhat
p5870
aVdeeply
p5871
aVsum
p5872
aVrascal
p5873
aVbrief
p5874
aVcrush
p5875
aVfoison
p5876
aVdisbursed
p5877
aVbrier
p5878
aVunfatherd
p5879
aVwomb
p5880
aVruffle
p5881
aV'unruly
p5882
aVensconce
p5883
aVconsecrations
p5884
aV'well
p5885
aV'twere
p5886
aVdearths
p5887
aVextremes
p5888
aVsilly-mild
p5889
aVsuddenly
p5890
aVfearfully
p5891
aVobscurely
p5892
aVproceed
p5893
aVmarketh
p5894
aVfaint
p5895
aVwield
p5896
aVhorses
p5897
aVhisses
p5898
aVwretched
p5899
aVknows
p5900
aVmire
p5901
aVstick
p5902
aVknown
p5903
aVmellow
p5904
aVglad
p5905
aVshielded
p5906
aV'art
p5907
aVdebated
p5908
aVjoints
p5909
aVconspire
p5910
aVthievish
p5911
aVhearted
p5912
aVwell-tuned
p5913
aVallege
p5914
aVoffspring
p5915
aVcourt
p5916
aVrather
p5917
aV'thus
p5918
aVbreaking
p5919
aVliveries
p5920
aVwither
p5921
aVfeareth
p5922
aVsimplicity
p5923
aV'hast
p5924
aVnever-ending
p5925
aVreflect
p5926
aVpalmers
p5927
aVweak-built
p5928
aVreplete
p5929
aVurgeth
p5930
aVshort
p5931
aVchiefly
p5932
aVshady
p5933
aVjove
p5934
aVfooted
p5935
aVshore
p5936
aVshade
p5937
aVshorn
p5938
aVessence
p5939
aVdisabled
p5940
aVgranteth
p5941
aVstyle
p5942
aVpray
p5943
aVinward
p5944
aVharmless
p5945
aVdross
p5946
aVparts
p5947
aVthreescore
p5948
aV'therefore
p5949
aVmight
p5950
aValter
p5951
aVreturn
p5952
aVfreezings
p5953
aVperceived
p5954
aVspeechless
p5955
aVrock'd
p5956
aVhunted
p5957
aVsmoothness
p5958
aVrefresh
p5959
aVfriendship
p5960
aVweighs
p5961
aVpirates
p5962
aVweight
p5963
aVexpect
p5964
aVundertake
p5965
aV'young
p5966
aVoutworn
p5967
aVincertainties
p5968
aVbraided
p5969
aVreverend
p5970
aVhealth
p5971
aVhill
p5972
aVparadise
p5973
aVhild
p5974
aVboldness
p5975
aVforgive
p5976
aVdandling
p5977
aVperplex
p5978
aVteach
p5979
aVbushes
p5980
aVjet
p5981
aV'courageous
p5982
aVthreat
p5983
aVdivorce
p5984
aVthrows
p5985
aVfeed
p5986
aV'sweet
p5987
aVseeming
p5988
aVfeel
p5989
aVfancy
p5990
aVsympathy
p5991
aVenlarged
p5992
aVdint
p5993
aVdefects
p5994
aVwench
p5995
aVmoan
p5996
aVstory
p5997
aVbreathless
p5998
aVswart
p5999
aVleading
p6000
aVhangs
p6001
aVstorm
p6002
aVstore
p6003
aVimperfect
p6004
aVrelieved
p6005
aVimprinted
p6006
aVadonis
p6007
aVtreasures
p6008
aVinsulter
p6009
aVking
p6010
aVconsumest
p6011
aV'long
p6012
aVvial
p6013
aVdouble
p6014
aVoutrageous
p6015
aVstall
p6016
aVdank
p6017
aVdardan
p6018
aVstale
p6019
aVrestful
p6020
aVtongues
p6021
aVlow-declined
p6022
aVshrewd
p6023
aValike
p6024
aVgall
p6025
aVnights
p6026
aV'my
p6027
aVmoist
p6028
aVfinding
p6029
aVadded
p6030
aVunpeopled
p6031
aVgild
p6032
aVpillage
p6033
aVmeasures
p6034
aVseasond
p6035
aVfangled
p6036
aVadder
p6037
aVnothing
p6038
aVseasons
p6039
aVmeasured
p6040
aVstands
p6041
aVdissolves
p6042
aVwindows
p6043
aVbrains
p6044
aVdissolved
p6045
aVlying
p6046
aVstones
p6047
aVfond
p6048
aVlaments
p6049
aVmelody
p6050
aVgilded
p6051
aVcollatinus
p6052
aVaggravate
p6053
aVdeserts
p6054
aVgrazed
p6055
aVdressings
p6056
aVbetray
p6057
aVshepherd
p6058
aVhis
p6059
aVhit
p6060
aVgains
p6061
aVcompiled
p6062
aVaffright
p6063
aV'hadst
p6064
aVhid
p6065
aVhie
p6066
aVreplenish
p6067
aVbanquet
p6068
aVgrievances
p6069
aVnon-payment
p6070
aVnibbler
p6071
aVengraven
p6072
aVa-twain
p6073
aVbars
p6074
aVbarr
p6075
aVart
p6076
aVintelligence
p6077
aVdefense
p6078
aVbare
p6079
aVare
p6080
aVtroilus
p6081
aVbark
p6082
aVarm
p6083
aVdeclined
p6084
aVthreats
p6085
aVforlorn
p6086
aVblurr
p6087
aVdrooping
p6088
aVunions
p6089
aVlearnd
p6090
aVdost
p6091
aVfalser
p6092
aVnestor
p6093
aVlamenting
p6094
aVuneard
p6095
aVcreating
p6096
aVsold
p6097
aVattention
p6098
aVuntreads
p6099
aVoversee
p6100
aVsluices
p6101
aVblazed
p6102
aVbecame
p6103
aVenchained
p6104
aVfinds
p6105
aVflies
p6106
aVdistress
p6107
aVreasons
p6108
aVsweet
p6109
aVharbour
p6110
aVrave
p6111
aV'hard-favour
p6112
aVposied
p6113
aVconfessd
p6114
aVillumined
p6115
aVdue
p6116
aVwhos
p6117
aVwhom
p6118
aVbeautys
p6119
aVflight
p6120
aVflinty
p6121
aVgoodly
p6122
aVbrokers
p6123
aVdemand
p6124
aVplants
p6125
aVunconquered
p6126
aVfrozen
p6127
aVbehavior
p6128
aVtheres
p6129
aVfetlocks
p6130
aVpelleted
p6131
aVecstasy
p6132
aVfrantic
p6133
aVlodged
p6134
aVrid
p6135
aVtwofold
p6136
aVlengths
p6137
aVassuaged
p6138
aVesteemed
p6139
aVthrivers
p6140
aVdaughters
p6141
aVhigher
p6142
aVchequer
p6143
aVfastens
p6144
aVcement
p6145
aVchequed
p6146
aVflown
p6147
aVmoving
p6148
aVbroils
p6149
aVlower
p6150
aVdancing
p6151
aVcheer
p6152
aVedge
p6153
aVunspotted
p6154
aVstarved
p6155
aVdulling
p6156
aVbounced
p6157
aVlording
p6158
aVgrievance
p6159
aVknot
p6160
aVgems
p6161
aVtables
p6162
aVtames
p6163
aVdeath-divining
p6164
aVamended
p6165
aVawakes
p6166
aVjoyless
p6167
aVadvocate
p6168
aVmoods
p6169
aVmoody
p6170
aVhollow-swelling
p6171
aVcommanders
p6172
aVhecuba
p6173
aVshapes
p6174
aVmoralize
p6175
aVentice
p6176
aVdivining
p6177
aVall-hiding
p6178
aVunderstood
p6179
aVaccomplishment
p6180
aVsauces
p6181
aV'farewell
p6182
aVmarr'd
p6183
aVdescried
p6184
aVrefused
p6185
aValoft
p6186
aVmingled
p6187
aVforbears
p6188
aVpage
p6189
aVlifeless
p6190
aVgreets
p6191
aVhatred
p6192
aVwomens
p6193
aVbleeds
p6194
aVyouthful
p6195
aVlendeth
p6196
aVfleets
p6197
aVscorns
p6198
aVconquest
p6199
aVdarts
p6200
aVwarmed
p6201
aVpiteous
p6202
aVscornd
p6203
aVfeatureless
p6204
aVquestion
p6205
aVfast
p6206
aVmountains
p6207
aVcontrite
p6208
aVcloth
p6209
aVusurp
p6210
aVfiled
p6211
aVupright
p6212
aVusury
p6213
aV'you
p6214
aV'bid
p6215
aVup-prick
p6216
aVsullied
p6217
aVenswathed
p6218
aVredress
p6219
aVcalled
p6220
aVbeguiling
p6221
aVprescience
p6222
aVstrong-bonded
p6223
aVdeep-brain
p6224
aVrainy
p6225
aVconies
p6226
aVevils
p6227
aVpeace
p6228
aVincome
p6229
aVdaff'd
p6230
aVmock
p6231
aVnice
p6232
aVdale
p6233
aVperusal
p6234
aVbreasts
p6235
aValarum
p6236
aVinflame
p6237
aVmeaning
p6238
aVmakeless
p6239
aVwrinkle
p6240
aVrightful
p6241
aVo'erstraw
p6242
aVsuffers
p6243
aVhappier
p6244
aVhappies
p6245
aVvice
p6246
aVwildness
p6247
aVdeparts
p6248
aVdistain
p6249
aVscroll
p6250
aVonce
p6251
aVpervert
p6252
aVwilfulness
p6253
aVhooks
p6254
aVresistance
p6255
aValien
p6256
aVwindy
p6257
aVlend
p6258
aVwinds
p6259
aVuphold
p6260
aVpeering
p6261
aVbreach
p6262
aVdefunctive
p6263
aVwished
p6264
aVforetell
p6265
aVbounding
p6266
aVgins
p6267
aVphysiognomy
p6268
aVextenuate
p6269
aVfortified
p6270
aVacture
p6271
aVnoted
p6272
aVfolds
p6273
aVfold
p6274
aVtoild
p6275
aVconcludes
p6276
aVpaleness
p6277
aVhourly
p6278
aVwaiting
p6279
aVchose
p6280
aVdesires
p6281
aVdesired
p6282
aVseparation
p6283
aVcoverlet
p6284
aVmiser
p6285
aVmetre
p6286
aV'nay
p6287
aVleaving
p6288
aVshaded
p6289
aVchaste
p6290
aVapple
p6291
aVheart
p6292
aVforbid
p6293
aVensign
p6294
aVapt
p6295
aVfed
p6296
aVfee
p6297
aVfrom
p6298
aVfigure
p6299
aVfew
p6300
aVrefuge
p6301
aVweeping
p6302
aVbottomless
p6303
aVeagles
p6304
aVpossession
p6305
aVdistillation
p6306
aVinclined
p6307
aVfiend
p6308
aVheir
p6309
aVinfection
p6310
aVsteadfastly
p6311
aVdistractedly
p6312
aVwomen
p6313
aVannoy
p6314
aVstroke
p6315
aVexecutor
p6316
aVdissolve
p6317
aVproof
p6318
aVfawneth
p6319
aVthirsty
p6320
aVspying
p6321
aVvillain
p6322
aVsomething
p6323
aVtan
p6324
aVrape
p6325
aVcounterfeit
p6326
aVsummers
p6327
aVcounting
p6328
aVsit
p6329
aVstruggles
p6330
aVtickling
p6331
aVcarrier
p6332
aVinstead
p6333
aVsin
p6334
aVashy
p6335
aVcounterfeits
p6336
aVscent-snuffing
p6337
aVattend
p6338
aVhazard
p6339
aVperjury
p6340
aVstars
p6341
aVmaskd
p6342
aVcedar-tops
p6343
aVlight
p6344
aVinterrupted
p6345
aVsweetens
p6346
aVlookd
p6347
aVbeauties
p6348
aVowl
p6349
aVdamsel
p6350
aVwhilst
p6351
aVbeguile
p6352
aVdearest
p6353
aVpulses
p6354
aVlooks
p6355
aVtyrant
p6356
aVbadges
p6357
aVfrailties
p6358
aVwilderness
p6359
aVwretchs
p6360
aVwaxeth
p6361
aVrestrain
p6362
aVchoose
p6363
aVcommended
p6364
aVflew
p6365
aVambition
p6366
aVaffections
p6367
aVfled
p6368
aVworlds
p6369
aVhusbandry
p6370
aVprofound
p6371
aVgrisly
p6372
aVeased
p6373
aVfeast
p6374
aVtumult
p6375
aVbills
p6376
aVpitying
p6377
aVremove
p6378
aVour
p6379
aVgirths
p6380
aVphoebus
p6381
aVout
p6382
aVrespects
p6383
aVvehement
p6384
aVsufficed
p6385
aVchaos
p6386
aVimpart
p6387
aVcautels
p6388
aVdespairing
p6389
aVyore
p6390
aVbarns
p6391
aVvestals
p6392
aVpluck'd
p6393
aVhence
p6394
aVprecepts
p6395
aVpurple-colour
p6396
aVobscurity
p6397
aVlearneds
p6398
aVecho
p6399
aVbonnet
p6400
aVunmeet
p6401
aVfilial
p6402
aVdroop
p6403
aVunknown
p6404
aVaccent
p6405
aVtheir
p6406
aVbadness
p6407
aVboil
p6408
aV'by
p6409
aVchastest
p6410
aVshallow
p6411
aVslides
p6412
aVcommence
p6413
aVriches
p6414
aVricher
p6415
aVrarity
p6416
aVover-wash
p6417
aVfaints
p6418
aVsea
p6419
aVclip
p6420
aVviolets
p6421
aVfowl
p6422
aVunexperient
p6423
aVafraid
p6424
aVbough
p6425
aVreeks
p6426
aVwhich
p6427
aVdivert
p6428
aVcombat
p6429
aVcentre
p6430
aVwho
p6431
aVharmful
p6432
aVspurn'st
p6433
aVweeper
p6434
aVwhy
p6435
aVstatute
p6436
aVdeny
p6437
aVensues
p6438
aVmishaps
p6439
aVpipe
p6440
aVmadmens
p6441
aVmistook
p6442
aVtidings
p6443
aVbetake
p6444
aVutter
p6445
aVfear
p6446
aVfeat
p6447
aVdebate
p6448
aVspurring
p6449
aVnearer
p6450
aVender
p6451
aVstudded
p6452
aVcolt
p6453
aVmonuments
p6454
aVwords
p6455
aVchips
p6456
aVheretic
p6457
aVended
p6458
aVdeceives
p6459
aVmarried
p6460
aVmanys
p6461
aV'so
p6462
aVnightingale
p6463
aVsparrows
p6464
aVdeceived
p6465
aVstrengthless
p6466
aVoutruns
p6467
aVexpel
p6468
aVmusets
p6469
aVwistly
p6470
aVmerits
p6471
aVviolet
p6472
aVcloset
p6473
aVcruel
p6474
aVunseeing
p6475
aVelipses
p6476
aVenpatron
p6477
aVclosed
p6478
aVendowd
p6479
aVboughs
p6480
aVstories
p6481
aVbought
p6482
aVjot
p6483
aVhavings
p6484
aVdateless
p6485
aVjoy
p6486
aVspoil
p6487
aVswift
p6488
aV'make
p6489
aVcommands
p6490
aVdireful
p6491
aVapril
p6492
aVcanopy
p6493
aVgrounds
p6494
aVtorments
p6495
aVwall
p6496
aVwalk
p6497
aVrespect
p6498
aVrouseth
p6499
aVwindow
p6500
aVtutor
p6501
aVstickst
p6502
aVproudest
p6503
aVnew-bleeding
p6504
aVpainted
p6505
aVmeritorious
p6506
aVunmoved
p6507
aVoverturn
p6508
aVpresent
p6509
aVunlike
p6510
aVcomforteth
p6511
aVfearful
p6512
aVaddeth
p6513
aVwill
p6514
aVhovering
p6515
aVwild
p6516
aVsupply
p6517
aVringing
p6518
aVthus
p6519
aVreft
p6520
aVcrystals
p6521
aV'witness
p6522
aVfaultful
p6523
aVunrecalling
p6524
aVpied
p6525
aVperhaps
p6526
aVcross
p6527
aVlargess
p6528
aVadverse
p6529
aVunity
p6530
aVduteous
p6531
aVmerciful
p6532
aVprivileged
p6533
aVelbows
p6534
aVprickles
p6535
aVslave
p6536
aVoutcast
p6537
aVbeast
p6538
aVpourst
p6539
aVapprove
p6540
aVfighting
p6541
aVtails
p6542
aVtwire
p6543
aVbending
p6544
aVcried
p6545
aVheavily
p6546
aVobtain
p6547
aVyoking
p6548
aVcries
p6549
aVunresisted
p6550
aVhappiness
p6551
aVreprehend
p6552
aVbell
p6553
aVsky
p6554
aVother
p6555
aVcrannies
p6556
aVvolleys
p6557
aVswains
p6558
aVknow
p6559
aVpresume
p6560
aVpress
p6561
aVwheresoe'er
p6562
aVpalfrey
p6563
aVrich-built
p6564
aVsafest
p6565
aVperpetual
p6566
aVfeigned
p6567
aVexceed
p6568
aVbecause
p6569
aVsalt-waved
p6570
aVdeified
p6571
aVmourn'st
p6572
aVdemeanor
p6573
aVgrowth
p6574
aVsickles
p6575
aVleaden
p6576
aVleaf
p6577
aVlead
p6578
aVlean
p6579
aVleap
p6580
aVfrosts
p6581
aVleader
p6582
aVpoets
p6583
aVobey
p6584
aVfords
p6585
aVstay
p6586
aVthrone
p6587
aVthrong
p6588
aVrare
p6589
aVincline
p6590
aVlinger
p6591
aVuniverse
p6592
aVurged
p6593
aVcarries
p6594
aVswear
p6595
aVsweat
p6596
aVsubjection
p6597
aVown
p6598
aVstrangeness
p6599
aVowe
p6600
aVbrambles
p6601
aVtermless
p6602
aVweather
p6603
aVpromise
p6604
aVlawful
p6605
aVhonouring
p6606
aVcrave
p6607
aVtrenches
p6608
aVsmoothing
p6609
aVappals
p6610
aVbreeding
p6611
aVinvocate
p6612
aVassail
p6613
aVmade
p6614
aV'mis-shapen
p6615
aVwhether
p6616
aVdistract
p6617
aVrecord
p6618
aVbelow
p6619
aVinfants
p6620
aVstirring
p6621
aVunfolding
p6622
aVdearth
p6623
aVgoodness
p6624
aVnaming
p6625
aVmutual
p6626
aV'll
p6627
aV'lo
p6628
aVboot
p6629
aVcave
p6630
aVbook
p6631
aVsick
p6632
aVsurfeit-taking
p6633
aVswounds
p6634
aVpluck'st
p6635
aVconclusion
p6636
aVlance
p6637
aVmildness
p6638
aVkinds
p6639
aVjuno
p6640
aVquietus
p6641
aVearthly
p6642
aV'time
p6643
aVranks
p6644
aVbereaves
p6645
aVjewel
p6646
aVill-annexed
p6647
aVsilver-shining
p6648
atRp6649
.